
./build/dummy.o:     file format elf64-x86-64

Contents of section .text:
 0000 f30f1efa 4885d274 4841554c 8d2d0000  ....H..tHAUL.-..
 0010 00004154 4989fc55 488d2c16 534889f3  ..ATI..UH.,.SH..
 0020 4883ec08 0f1f4000 31c04889 da4c89ee  H.....@.1.H..L..
 0030 4c89e7e8 00000000 83f80175 154883c3  L..........u.H..
 0040 014839eb 75e24883 c4085b5d 415c415d  .H9.u.H...[]A\A]
 0050 c3c3488b 0d000000 00ba2a00 0000be01  ..H.......*.....
 0060 00000048 8d3d0000 0000e800 000000bf  ...H.=..........
 0070 01000000 e8000000 000f1f80 00000000  ................
 0080 f30f1efa 4885d274 4a41564c 8d350000  ....H..tJAVL.5..
 0090 00004155 4989d541 544989fc 5531ed53  ..AUI..ATI..U1.S
 00a0 4889f30f 1f440000 31c04889 da4c89f6  H....D..1.H..L..
 00b0 4c89e7e8 00000000 83f80175 174883c5  L..........u.H..
 00c0 014883c3 024939ed 75de5b5d 415c415d  .H...I9.u.[]A\A]
 00d0 415ec3c3 488b0d00 000000ba 2b000000  A^..H.......+...
 00e0 be010000 00488d3d 00000000 e8000000  .....H.=........
 00f0 00bf0100 0000e800 0000000f 1f440000  .............D..
 0100 f30f1efa 4885d274 4a41564c 8d350000  ....H..tJAVL.5..
 0110 00004155 4989d541 544989fc 5531ed53  ..AUI..ATI..U1.S
 0120 4889f30f 1f440000 31c04889 da4c89f6  H....D..1.H..L..
 0130 4c89e7e8 00000000 83f80175 174883c5  L..........u.H..
 0140 014883c3 044939ed 75de5b5d 415c415d  .H...I9.u.[]A\A]
 0150 415ec3c3 488b0d00 000000ba 2b000000  A^..H.......+...
 0160 be010000 00488d3d 00000000 e8000000  .....H.=........
 0170 00bf0100 0000e800 0000000f 1f440000  .............D..
 0180 f30f1efa 4885d274 4a41564c 8d350000  ....H..tJAVL.5..
 0190 00004155 4989d541 544989fc 5531ed53  ..AUI..ATI..U1.S
 01a0 4889f30f 1f440000 31c04889 da4c89f6  H....D..1.H..L..
 01b0 4c89e7e8 00000000 83f80175 174883c5  L..........u.H..
 01c0 014883c3 044939ed 75de5b5d 415c415d  .H...I9.u.[]A\A]
 01d0 415ec3c3 488b0d00 000000ba 2d000000  A^..H.......-...
 01e0 be010000 00488d3d 00000000 e8000000  .....H.=........
 01f0 00bf0100 0000e800 0000000f 1f440000  .............D..
 0200 f30f1efa 4885d274 4a41564c 8d350000  ....H..tJAVL.5..
 0210 00004155 4989d541 544989fc 5531ed53  ..AUI..ATI..U1.S
 0220 4889f30f 1f440000 31c04889 da4c89f6  H....D..1.H..L..
 0230 4c89e7e8 00000000 83f80175 174883c5  L..........u.H..
 0240 014883c3 084939ed 75de5b5d 415c415d  .H...I9.u.[]A\A]
 0250 415ec3c3 488b0d00 000000ba 2d000000  A^..H.......-...
 0260 be010000 00488d3d 00000000 e8000000  .....H.=........
 0270 00bf0100 0000e800 0000000f 1f440000  .............D..
 0280 f30f1efa 4989fa48 85c9742b 4c8b0231  ....I..H..t+L..1
 0290 ff0f1f80 00000000 410fbe04 3a440fbe  ........A...:D..
 02a0 0c3e4883 c701410f afc14898 4901c04c  .>H...A...H.I..L
 02b0 89024839 f975e1c3 0f1f8400 00000000  ..H9.u..........
 02c0 f30f1efa 4989d148 85c90f84 94010000  ....I..H........
 02d0 488d41ff 488b1248 83f8060f 86840100  H.A.H..H........
 02e0 004989c8 660fefc0 660fefe4 31c049c1  .I..f...f...1.I.
 02f0 e80349c1 e004662e 0f1f8400 00000000  ..I...f.........
 0300 f30f6f34 06f30f6f 0c07f30f 6f1c0748  ..o4...o....o..H
 0310 83c01066 0fd5ce66 0fe5de66 0f6fd166  ...f...f...f.o.f
 0320 0f61d366 0f69cb66 0f6fdc66 0f66da66  .a.f.i.f.o.f.f.f
 0330 0f6fea66 0f62eb66 0f6ad366 0f6fd966  .o.f.b.f.j.f.o.f
 0340 0fd4c566 0fd4c266 0f6fd466 0f66d166  ...f...f.o.f.f.f
 0350 0f62da66 0f6aca66 0fd4c366 0fd4c14c  .b.f.j.f...f...L
 0360 39c0759c 660f6fc8 660f73d9 08660fd4  9.u.f.o.f.s..f..
 0370 c166480f 7ec04801 c24889c8 4883e0f8  .fH.~.H..H..H...
 0380 f6c1070f 84d80000 00440fbf 1447440f  .........D...GD.
 0390 bf1c464c 8d040045 0fafd34d 63d24c01  ..FL...E...Mc.L.
 03a0 d24c8d50 014c39d1 0f86b300 0000460f  .L.P.L9.......F.
 03b0 bf540702 460fbf5c 0602450f afd34d63  .T..F..\..E...Mc
 03c0 d24c01d2 4c8d5002 4c39d10f 86900000  .L..L.P.L9......
 03d0 00460fbf 54070446 0fbf5c06 04450faf  .F..T..F..\..E..
 03e0 d34d63d2 4c01d24c 8d50034c 39d17671  .Mc.L..L.P.L9.vq
 03f0 460fbf54 0706460f bf5c0606 450fafd3  F..T..F..\..E...
 0400 4d63d24c 01d24c8d 50044c39 d1765246  Mc.L..L.P.L9.vRF
 0410 0fbf5407 08460fbf 5c060845 0fafd34d  ..T..F..\..E...M
 0420 63d24c01 d24c8d50 054c39d1 7633460f  c.L..L.P.L9.v3F.
 0430 bf54070a 460fbf5c 060a4883 c006450f  .T..F..\..H...E.
 0440 afd34d63 d24c01d2 4839c176 14420fbf  ..Mc.L..H9.v.B..
 0450 44060c42 0fbf4c07 0c0fafc1 48984801  D..B..L.....H.H.
 0460 c2498911 c331c0e9 1dffffff 0f1f4000  .I...1........@.
 0470 f30f1efa 4989d148 89ca4885 c90f84f2  ....I..H..H.....
 0480 00000048 8d41ff4d 8b014883 f8020f86  ...H.A.M..H.....
 0490 e2000000 48c1e902 660fefd2 660fefe4  ....H...f...f...
 04a0 31c048c1 e104662e 0f1f8400 00000000  1.H...f.........
 04b0 f30f6f0c 07f30f6f 1c06f30f 6f0407f3  ..o....o....o...
 04c0 0f6f2c06 4883c010 660f73d3 20660f73  .o,.H...f.s. f.s
 04d0 d120660f f4cb660f f4c5660f 70c90866  . f...f...f.p..f
 04e0 0f70c008 660f62c1 660f6fcc 660f66c8  .p..f.b.f.o.f.f.
 04f0 660f6fd8 660f62d9 660f6ac1 660fd4d3  f.o.f.b.f.j.f...
 0500 660fd4d0 4839c175 a7660f6f c2660f73  f...H9.u.f.o.f.s
 0510 d808660f d4d06648 0f7ed049 01c04889  ..f...fH.~.I..H.
 0520 d04883e0 fcf6c203 74488b0c 870faf0c  .H......tH......
 0530 864c8d14 85000000 004863c9 4901c848  .L.......Hc.I..H
 0540 8d480148 39ca762a 428b4c17 04420faf  .H.H9.v*B.L..B..
 0550 4c160448 83c00248 63c94901 c84839c2  L..H...Hc.I..H9.
 0560 7610428b 44160842 0faf4417 08489849  v.B.D..B..D..H.I
 0570 01c04d89 01c331c0 ebb0660f 1f440000  ..M...1...f..D..
 0580 f30f1efa 4885c974 26db2a31 c00f1f00  ....H..t&.*1....
 0590 f30f1004 87f30f59 04864883 c001f30f  .......Y..H.....
 05a0 114424f4 d84424f4 4839c175 e3db3ac3  .D$..D$.H9.u..:.
 05b0 f30f1efa 4885c974 26db2a31 c00f1f00  ....H..t&.*1....
 05c0 f20f1004 c7f20f59 04c64883 c001f20f  .......Y..H.....
 05d0 114424f0 dc4424f0 4839c175 e3db3ac3  .D$..D$.H9.u..:.
 05e0 f30f1efa 4885c90f 840b0100 004989ca  ....H........I..
 05f0 4989f849 89f15348 89d6488b 024889fa  I..I..SH..H..H..
 0600 498d7aff 4883e7f8 4c89c94d 8d5c3808  I.z.H...L..M.\8.
 0610 0fbe190f be3a4883 c2084883 c1080faf  .....:H...H.....
 0620 fb4863ff 4801c748 893e0fbe 59f90fbe  .Hc.H..H.>..Y...
 0630 42f90faf c3489848 01f84889 060fbe59  B....H.H..H....Y
 0640 fa0fbe7a fa0faffb 4863ff48 01c74889  ...z....Hc.H..H.
 0650 3e0fbe59 fb0fbe42 fb0fafc3 48984801  >..Y...B....H.H.
 0660 f8488906 0fbe59fc 0fbe7afc 0faffb48  .H....Y...z....H
 0670 63ff4801 c748893e 0fbe59fd 0fbe42fd  c.H..H.>..Y...B.
 0680 0fafc348 984801f8 4889060f be59fe0f  ...H.H..H....Y..
 0690 be7afe0f affb4863 ff4801c7 48893e0f  .z....Hc.H..H.>.
 06a0 be42ff0f be59ff0f afc34898 4801f848  .B...Y....H.H..H
 06b0 89064939 d30f8555 ffffff44 89d183e1  ..I9...U...D....
 06c0 f84863c9 4939ca76 260f1f80 00000000  .Hc.I9.v&.......
 06d0 410fbe14 08410fbe 3c094883 c1010faf  A....A..<.H.....
 06e0 d74863d2 4801d048 89064939 ca75e15b  .Hc.H..H..I9.u.[
 06f0 c30f1f80 00000000 c3                 .........       
Contents of section .rodata.str1.1:
 0000 25686864 00256864 00256400 25660025  %hhd.%hd.%d.%f.%
 0010 6c660044 6f742070 726f6475 63742074  lf.Dot product t
 0020 696d653a 20256620 7365636f 6e64730a  ime: %f seconds.
 0030 00446f74 2070726f 64756374 20726573  .Dot product res
 0040 756c743a 20256c6c 640a00             ult: %lld..     
Contents of section .rodata.str1.8:
 0000 4661696c 65642074 6f207265 61642069  Failed to read i
 0010 6e743820 74797065 2066726f 6d206669  nt8 type from fi
 0020 6c657374 7265616d 2e0a0000 00000000  lestream........
 0030 4661696c 65642074 6f207265 61642069  Failed to read i
 0040 6e743136 20747970 65206672 6f6d2066  nt16 type from f
 0050 696c6573 74726561 6d2e0a00 00000000  ilestream.......
 0060 4661696c 65642074 6f207265 61642069  Failed to read i
 0070 6e743332 20747970 65206672 6f6d2066  nt32 type from f
 0080 696c6573 74726561 6d2e0a00 00000000  ilestream.......
 0090 4661696c 65642074 6f207265 61642066  Failed to read f
 00a0 6c6f6174 33322074 79706520 66726f6d  loat32 type from
 00b0 2066696c 65737472 65616d2e 0a000000   filestream.....
 00c0 4661696c 65642074 6f207265 61642066  Failed to read f
 00d0 6c6f6174 36342074 79706520 66726f6d  loat64 type from
 00e0 2066696c 65737472 65616d2e 0a000000   filestream.....
 00f0 4661696c 65642074 6f20616c 6c6f6361  Failed to alloca
 0100 7465206d 656d6f72 7920666f 72207665  te memory for ve
 0110 63310a00 00000000 4661696c 65642074  c1......Failed t
 0120 6f20616c 6c6f6361 7465206d 656d6f72  o allocate memor
 0130 7920666f 72207665 63320a00           y for vec2..    
Contents of section .text.startup:
 0000 f30f1efa 415631ff 41554154 55534883  ....AV1.AUATUSH.
 0010 ec206448 8b042528 00000048 89442418  . dH..%(...H.D$.
 0020 31c0e800 00000089 c7e80000 0000be01  1...............
 0030 000000bf 00127a00 e8000000 004885c0  ......z......H..
 0040 0f847a02 00004889 c54889c3 4c8da000  ..z...H..H..L...
 0050 127a000f 1f440000 e8000000 004883c3  .z...D.......H..
 0060 0183c080 8843ff4c 39e375ec be010000  .....C.L9.u.....
 0070 00bf0012 7a00e800 00000049 89c54885  ....z......I..H.
 0080 c00f8465 02000048 89c34c8d a000127a  ...e...H..L....z
 0090 000f1f80 00000000 e8000000 004883c3  .............H..
 00a0 0183c080 8843ff4c 39e375ec 48c74424  .....C.L9.u.H.D$
 00b0 10000000 004c8d35 00000000 4c8d2500  .....L.5....L.%.
 00c0 000000e8 00000000 b900127a 004c89ee  ...........z.L..
 00d0 4889ef48 8d542410 4889c3e8 00000000  H..H.T$.H.......
 00e0 e8000000 00660fef c04c89f6 bf010000  .....f...L......
 00f0 004829d8 f2480f2a c0b80100 0000f20f  .H)..H.*........
 0100 5e050000 0000e800 00000048 8b542410  ^..........H.T$.
 0110 4c89e631 c0bf0100 0000e800 000000e8  L..1............
 0120 00000000 66450fef c0660fef ed660fef  ....fE...f...f..
 0130 e44889c3 660fefdb 31c0660f 1f440000  .H..f...1.f..D..
 0140 f30f6f44 0500f341 0f6f4c05 00660f6f  ..oD...A.oL..f.o
 0150 fd660f6f f54883c0 10660f64 f9660f64  .f.o.H...f.d.f.d
 0160 f066440f 6fc9660f 6fd06644 0f60cf66  .fD.o.f.o.fD.`.f
 0170 0f60d666 0f68cf66 410fd5d1 660f68c6  .`.f.h.fA...f.h.
 0180 66440f6f cb660fd5 c1660f6f cc660f65  fD.o.f...f.o.f.e
 0190 ca660f6f f2660f6f f8660f61 f1660f69  .f.o.f.o.f.a.f.i
 01a0 d1660f6f cc660f65 c866440f 66ce660f  .f.o.f.e.fD.f.f.
 01b0 61f9660f 69c1660f 6fce6641 0f62c966  a.f.i.f.o.fA.b.f
 01c0 410f6af1 66410fd4 c866440f 6fc2660f  A.j.fA...fD.o.f.
 01d0 d4ce660f 6ff3660f 66f26644 0f62c666  ..f.o.f.f.fD.b.f
 01e0 0f6ad666 0f6ff366 0f66f766 410fd4c8  .j.f.o.f.f.fA...
 01f0 660fd4ca 660f6fd7 660f62d6 660fd4ca  f...f.o.f.b.f...
 0200 660f6fd7 660f6ad6 660f6ff0 660fd4ca  f.o.f.j.f.o.f...
 0210 660f6fd3 660f66d0 660f62f2 660f6ac2  f.o.f.f.f.b.f.j.
 0220 660fd4ce 660fd4c8 66440f6f c1483d00  f...f...fD.o.H=.
 0230 127a000f 8507ffff ff0f290c 24e80000  .z........).$...
 0240 0000660f efc04c89 f6bf0100 00004829  ..f...L.......H)
 0250 d8f2480f 2ac0b801 000000f2 0f5e0500  ..H.*........^..
 0260 000000e8 00000000 66440f6f 04244c89  ........fD.o.$L.
 0270 e631c0bf 01000000 66410f6f c0660f73  .1......fA.o.f.s
 0280 d8086644 0fd4c066 4c0f7ec2 e8000000  ..fD...fL.~.....
 0290 004889ef e8000000 004c89ef e8000000  .H.......L......
 02a0 00488b44 24186448 2b042528 00000075  .H.D$.dH+.%(...u
 02b0 364883c4 2031c05b 5d415c41 5d415ec3  6H.. 1.[]A\A]A^.
 02c0 488b0d00 000000ba 23000000 be010000  H.......#.......
 02d0 00488d3d 00000000 e8000000 00bf0100  .H.=............
 02e0 0000e800 000000e8 00000000 488b0d00  ............H...
 02f0 000000ba 23000000 be010000 00488d3d  ....#........H.=
 0300 00000000 e8000000 00bf0100 0000e800  ................
 0310 000000                               ...             
Contents of section .rodata.cst8:
 0000 00000000 80842e41                    .......A        
Contents of section .debug_info:
 0000 06110000 05000108 00000000 27000000  ............'...
 0010 001d0000 00000000 00000000 00000000  ................
 0020 00000000 00000000 00000708 04000000  ................
 0030 00070805 00000000 0c000000 00040719  ................
 0040 44000000 28000000 00d80331 08ae0100  D...(......1....
 0050 00020000 00003307 d8010000 00020000  ......3.........
 0060 00003609 11020000 08020000 00003709  ..6...........7.
 0070 11020000 10020000 00003809 11020000  ..........8.....
 0080 18020000 00003909 11020000 20020000  ......9..... ...
 0090 00003a09 11020000 28020000 00003b09  ..:.....(.....;.
 00a0 11020000 30020000 00003c09 11020000  ....0.....<.....
 00b0 38020000 00003d09 11020000 40020000  8.....=.....@...
 00c0 00004009 11020000 48020000 00004109  ..@.....H.....A.
 00d0 11020000 50020000 00004209 11020000  ....P.....B.....
 00e0 58020000 00004416 5d020000 60020000  X.....D.]...`...
 00f0 00004614 62020000 68020000 00004807  ..F.b...h.....H.
 0100 d8010000 70020000 00004907 d8010000  ....p.....I.....
 0110 74020000 00004a0b df010000 78020000  t.....J.....x...
 0120 00004d12 b5010000 80020000 00004e0f  ..M...........N.
 0130 ca010000 82020000 00004f08 67020000  ..........O.g...
 0140 83020000 0000510f 77020000 88020000  ......Q.w.......
 0150 0000590d eb010000 90020000 00005b17  ..Y...........[.
 0160 81020000 98020000 00005c19 8b020000  ..........\.....
 0170 a0020000 00005d14 62020000 a8020000  ......].b.......
 0180 00005e09 0f020000 b0020000 00005f0a  ..^..........._.
 0190 2e020000 b8020000 00006007 d8010000  ..........`.....
 01a0 c0020000 00006208 90020000 c4000701  ......b.........
 01b0 08000000 00070207 00000000 07040700  ................
 01c0 00000007 08070000 00000701 06000000  ................
 01d0 00070205 00000000 29040569 6e74000c  ........)..int..
 01e0 00000000 05981931 0000000c 00000000  .......1........
 01f0 05991b31 0000000c 00000000 059c1b31  ...1...........1
 0200 0000000c 00000000 05a01a31 0000002a  ...........1...*
 0210 08041602 00000701 06000000 002b1602  .............+..
 0220 00000c00 00000006 0713f701 00000c00  ................
 0230 00000007 d117c301 00000c00 00000008  ................
 0240 0a120302 0000041d 0200001e 46020000  ............F...
 0250 2c000000 00032b0e 19000000 00045802  ,.....+.......X.
 0260 00000444 0000001f 16020000 77020000  ...D........w...
 0270 20c30100 00000004 50020000 19000000   .......P.......
 0280 00047c02 00001900 00000004 86020000  ..|.............
 0290 1f160200 00a00200 0020c301 00001300  ......... ......
 02a0 04380000 001ea002 00002d00 0000000b  .8........-.....
 02b0 910ea002 00000708 05000000 00070807  ................
 02c0 00000000 07100400 00000014 69380015  ............i8..
 02d0 0e160200 00146931 3600160f d1010000  ......i16.......
 02e0 14693332 00170dd8 01000014 66333200  .i32........f32.
 02f0 180ff602 00000704 04000000 00146636  ..............f6
 0300 34001910 2a000000 0c000000 00011a13  4...*...........
 0310 b6020000 0c000000 00011b15 c4020000  ................
 0320 1a000000 00025f0c d8010000 3c030000  ......_.....<...
 0330 08d80100 00084602 00001500 21000000  ......F.....!...
 0340 002b024d 03000008 0f020000 002e0000  .+.M............
 0350 00000948 10220200 002f0000 00000ac6  ...H.".../......
 0360 010cd801 00003000 0000000a 1c020e0f  ......0.........
 0370 0200007d 03000008 2e020000 00210000  ...}.........!..
 0380 0000c801 8e030000 08bc0100 00001a00  ................
 0390 00000009 4c0f3a02 0000a403 000008a4  ....L.:.........
 03a0 03000000 043a0200 001a0000 0000025d  .....:.........]
 03b0 0cd80100 00ca0300 0008a502 000008d8  ................
 03c0 01000008 4b020000 15003100 0000000a  ....K.....1.....
 03d0 70020ddd 03000008 d8010000 00320000  p............2..
 03e0 00000bb2 010c0000 0000d801 0000fe03  ................
 03f0 000008a5 02000008 4b020000 15003300  ........K.....3.
 0400 00000001 9305d801 00000000 00000000  ................
 0410 00001303 00000000 0000019c 55080000  ............U...
 0420 34000000 0001960c 2e020000 00127a00  4.............z.
 0430 16000000 00970955 08000000 00000000  .......U........
 0440 00000016 00000000 9b095508 00000000  ..........U.....
 0450 00000000 00003500 00000001 9f0e0803  ......5.........
 0460 00000291 40160000 0000a00d 22020000  ....@......."...
 0470 00000000 00000000 06656e64 00a20d22  .........end..."
 0480 02000000 00000000 00000016 00000000  ................
 0490 a30c2a00 00000000 00000000 00002200  ..*...........".
 04a0 00000000 00000023 00000000 000000d2  .......#........
 04b0 04000006 69009811 2e020000 00000000  ....i...........
 04c0 00000000 0e000000 00000000 00590300  .............Y..
 04d0 00002200 00000000 00000025 00000000  .."........%....
 04e0 00000006 05000006 69009c11 2e020000  ........i.......
 04f0 00000000 00000000 0e000000 00000000  ................
 0500 00590300 00001753 10000000 00000000  .Y.....S........
 0510 00000002 00000000 a4440500 00056210  .........D....b.
 0520 00000000 00000000 00000300 00000000  ................
 0530 00000020 03000001 01550131 01015402  ... .....U.1..T.
 0540 7e000000 17531000 00000000 00000000  ~....S..........
 0550 00020000 0000a582 05000005 62100000  ............b...
 0560 00000000 00000000 03000000 00000000  ................
 0570 00200300 00010155 01310101 54027c00  . .....U.1..T.|.
 0580 000017db 0a000000 00000000 00000001  ................
 0590 00000000 a9e50500 0005060b 00000000  ................
 05a0 00000000 000005fa 0a000000 00000000  ................
 05b0 00000005 f10a0000 00000000 00000000  ................
 05c0 05e80a00 00000000 00000000 0023120b  .............#..
 05d0 00000000 00002413 0b000000 00000000  ......$.........
 05e0 00000000 00175310 00000000 00000000  ......S.........
 05f0 00000200 000000ac 23060000 05621000  ........#....b..
 0600 00000000 00000000 00030000 00000000  ................
 0610 00002003 00000101 55013101 0154027e  .. .....U.1..T.~
 0620 0000000f 53100000 00000000 00000000  ....S...........
 0630 02000000 00000000 00290000 00000000  .........)......
 0640 00ad056e 06000005 62100000 00000000  ...n....b.......
 0650 00000000 03000000 00000000 00200300  ............. ..
 0660 00010155 01310101 54027c00 00000f70  ...U.1..T.|....p
 0670 10000000 00000000 00000001 00000000  ................
 0680 00000000 1d000000 00000000 9710cb06  ................
 0690 0000058b 10000000 00000000 00000012  ................
 06a0 7f100000 03000000 00000000 00ee1000  ................
 06b0 00010155 09030000 00000000 00000101  ...U............
 06c0 54013101 01510208 2300000f 70100000  T.1..Q..#...p...
 06d0 00000000 00000000 01000000 00000000  ................
 06e0 001d0000 00000000 009b1028 07000005  ...........(....
 06f0 8b100000 00000000 00000000 127f1000  ................
 0700 00030000 00000000 0000ee10 00000101  ................
 0710 55090300 00000000 00000001 01540131  U............T.1
 0720 01015102 08230000 09000000 00000000  ..Q..#..........
 0730 008e0300 003f0700 00010155 0130000e  .....?.....U.0..
 0740 00000000 00000000 7d030000 09000000  ........}.......
 0750 00000000 00f71000 006c0700 00010155  .........l.....U
 0760 050c0012 7a000101 54013100 09000000  ....z...T.1.....
 0770 00000000 00f71000 008c0700 00010155  ...............U
 0780 050c0012 7a000101 54013100 0e000000  ....z...T.1.....
 0790 00000000 004d0300 00090000 00000000  .....M..........
 07a0 00005a08 0000c607 00000101 55027600  ..Z.........U.v.
 07b0 01015402 7d000101 51029140 01015205  ..T.}...Q..@..R.
 07c0 0c00127a 00000e00 00000000 0000004d  ...z...........M
 07d0 0300000e 00000000 00000000 4d030000  ............M...
 07e0 0e000000 00000000 004d0300 00090000  .........M......
 07f0 00000000 00003c03 00000508 00000101  ......<.........
 0800 55027600 00090000 00000000 00003c03  U.v...........<.
 0810 00001d08 00000101 55027d00 00090000  ........U.}.....
 0820 00000000 0000ca03 00003408 00000101  ..........4.....
 0830 55013100 0e000000 00000000 00001100  U.1.............
 0840 00030000 00000000 0000ca03 00000101  ................
 0850 55013100 0004cb02 00000d00 00000081  U.1.............
 0860 00000000 00000000 19010000 00000000  ................
 0870 019cfd08 00000a61 00811f55 08000000  .......a...U....
 0880 00000000 0000000a 62008126 55080000  ........b..&U...
 0890 00000000 00000000 0b000000 008133fd  ..............3.
 08a0 08000000 00000000 0000000b 00000000  ................
 08b0 81422e02 00000000 00000000 00003600  .B............6.
 08c0 000000d9 08000006 6900820e d8010000  ........i.......
 08d0 00000000 00000000 001b0000 00000000  ................
 08e0 00003400 00000000 00000669 008e0ed8  ..4........i....
 08f0 01000000 00000000 00000000 00040803  ................
 0900 00000d00 0000007b 00000000 00000000  .......{........
 0910 30000000 00000000 019c7209 00001061  0.........r....a
 0920 007b2072 09000001 55106200 7b287209  .{ r....U.b.{(r.
 0930 00000154 18000000 007b3577 09000001  ...T.....{5w....
 0940 51180000 00007b44 2e020000 01521b00  Q.....{D.....R..
 0950 00000000 0000002b 00000000 00000006  .......+........
 0960 69007c11 2e020000 00000000 00000000  i.|.............
 0970 000004fd 02000004 14030000 0d000000  ................
 0980 00760000 00000000 00003000 00000000  .v........0.....
 0990 0000019c ec090000 10610076 20ec0900  .........a.v ...
 09a0 00015510 62007628 ec090000 01541800  ..U.b.v(.....T..
 09b0 00000076 35770900 00015118 00000000  ...v5w....Q.....
 09c0 76442e02 00000152 1b000000 00000000  vD.....R........
 09d0 002b0000 00000000 00066900 77112e02  .+........i.w...
 09e0 00000000 00000000 00000000 04eb0200  ................
 09f0 000d0000 00007100 00000000 0000000a  ......q.........
 0a00 01000000 00000001 9c610a00 00106100  .........a....a.
 0a10 7120610a 00000155 10620071 28610a00  q a....U.b.q(a..
 0a20 0001540b 00000000 7135fd08 00000000  ..T.....q5......
 0a30 00000000 00000b00 00000071 442e0200  ...........qD...
 0a40 00000000 00000000 00130000 00000669  ...............i
 0a50 0072112e 02000000 00000000 00000000  .r..............
 0a60 0004e002 00000d00 0000006c 00000000  ...........l....
 0a70 00000000 ac010000 00000000 019cd60a  ................
 0a80 00001061 006c20d6 0a000001 55106200  ...a.l .....U.b.
 0a90 6c28d60a 00000154 0b000000 006c35fd  l(.....T.....l5.
 0aa0 08000000 00000000 0000000b 00000000  ................
 0ab0 6c442e02 00000000 00000000 00001300  lD..............
 0ac0 00000006 69006d11 2e020000 00000000  ....i.m.........
 0ad0 00000000 000004d5 02000037 00000000  ...........7....
 0ae0 01660601 1f0b0000 25610066 1e550800  .f......%a.f.U..
 0af0 00256200 66255508 00001100 00000001  .%b.f%U.........
 0b00 6632fd08 00001100 00000001 66412e02  f2..........fA..
 0b10 00003839 69000167 112e0200 0000000d  ..89i..g........
 0b20 00000000 5d000000 00000000 007b0000  ....]........{..
 0b30 00000000 00019c1f 0c00000a 6670005d  ............fp.]
 0b40 23a00200 00000000 00000000 000a7665  #.............ve
 0b50 63005d2c 72090000 00000000 00000000  c.],r...........
 0b60 0b000000 005d382e 02000000 00000000  .....]8.........
 0b70 00000013 00000000 0669005e 112e0200  .........i.^....
 0b80 00000000 00000000 000f7010 00000000  ..........p.....
 0b90 00000000 00000100 00000000 0000001d  ................
 0ba0 00000000 00000060 0de60b00 00058b10  .......`........
 0bb0 00000000 00000000 0000127f 10000003  ................
 0bc0 00000000 00000000 ee100000 01015509  ..............U.
 0bd0 03000000 00000000 00010154 01310101  ...........T.1..
 0be0 5102082d 00000900 00000000 000000dd  Q..-............
 0bf0 0300000a 0c000001 0155027c 00010154  .........U.|...T
 0c00 027e0001 01510273 00000300 00000000  .~...Q.s........
 0c10 000000ca 03000001 01550131 0000000d  .........U.1....
 0c20 00000000 54000000 00000000 007b0000  ....T........{..
 0c30 00000000 00019c1f 0d00000a 66700054  ............fp.T
 0c40 23a00200 00000000 00000000 000a7665  #.............ve
 0c50 6300542c ec090000 00000000 00000000  c.T,............
 0c60 0b000000 0054382e 02000000 00000000  .....T8.........
 0c70 00000013 00000000 06690055 112e0200  .........i.U....
 0c80 00000000 00000000 000f7010 00000000  ..........p.....
 0c90 00000000 00000100 00000000 0000001d  ................
 0ca0 00000000 00000057 0de60c00 00058b10  .......W........
 0cb0 00000000 00000000 0000127f 10000003  ................
 0cc0 00000000 00000000 ee100000 01015509  ..............U.
 0cd0 03000000 00000000 00010154 01310101  ...........T.1..
 0ce0 5102082d 00000900 00000000 000000dd  Q..-............
 0cf0 0300000a 0d000001 0155027c 00010154  .........U.|...T
 0d00 027e0001 01510273 00000300 00000000  .~...Q.s........
 0d10 000000ca 03000001 01550131 0000000d  .........U.1....
 0d20 00000000 4b000000 00000000 007b0000  ....K........{..
 0d30 00000000 00019c1f 0e00000a 6670004b  ............fp.K
 0d40 23a00200 00000000 00000000 000a7665  #.............ve
 0d50 63004b2c 610a0000 00000000 00000000  c.K,a...........
 0d60 0b000000 004b382e 02000000 00000000  .....K8.........
 0d70 00000013 00000000 0669004c 112e0200  .........i.L....
 0d80 00000000 00000000 000f7010 00000000  ..........p.....
 0d90 00000000 00000100 00000000 0000001d  ................
 0da0 00000000 0000004e 0de60d00 00058b10  .......N........
 0db0 00000000 00000000 0000127f 10000003  ................
 0dc0 00000000 00000000 ee100000 01015509  ..............U.
 0dd0 03000000 00000000 00010154 01310101  ...........T.1..
 0de0 5102082b 00000900 00000000 000000dd  Q..+............
 0df0 0300000a 0e000001 0155027c 00010154  .........U.|...T
 0e00 027e0001 01510273 00000300 00000000  .~...Q.s........
 0e10 000000ca 03000001 01550131 0000000d  .........U.1....
 0e20 00000000 42000000 00000000 007b0000  ....B........{..
 0e30 00000000 00019c1f 0f00000a 66700042  ............fp.B
 0e40 23a00200 00000000 00000000 000a7665  #.............ve
 0e50 6300422c d60a0000 00000000 00000000  c.B,............
 0e60 0b000000 0042382e 02000000 00000000  .....B8.........
 0e70 00000013 00000000 06690043 112e0200  .........i.C....
 0e80 00000000 00000000 000f7010 00000000  ..........p.....
 0e90 00000000 00000100 00000000 0000001d  ................
 0ea0 00000000 00000045 0de60e00 00058b10  .......E........
 0eb0 00000000 00000000 0000127f 10000003  ................
 0ec0 00000000 00000000 ee100000 01015509  ..............U.
 0ed0 03000000 00000000 00010154 01310101  ...........T.1..
 0ee0 5102082b 00000900 00000000 000000dd  Q..+............
 0ef0 0300000a 0f000001 0155027c 00010154  .........U.|...T
 0f00 027e0001 01510273 00000300 00000000  .~...Q.s........
 0f10 000000ca 03000001 01550131 0000000d  .........U.1....
 0f20 00000000 39000000 00000000 00790000  ....9........y..
 0f30 00000000 00019c1f 1000000a 66700039  ............fp.9
 0f40 22a00200 00000000 00000000 000a7665  ".............ve
 0f50 6300392a 55080000 00000000 00000000  c.9*U...........
 0f60 0b000000 0039362e 02000000 00000000  .....96.........
 0f70 00000013 00000000 0669003a 112e0200  .........i.:....
 0f80 00000000 00000000 000f7010 00000000  ..........p.....
 0f90 00000000 00000100 00000000 0000001d  ................
 0fa0 00000000 0000003c 0de60f00 00058b10  .......<........
 0fb0 00000000 00000000 0000127f 10000003  ................
 0fc0 00000000 00000000 ee100000 01015509  ..............U.
 0fd0 03000000 00000000 00010154 01310101  ...........T.1..
 0fe0 5102082a 00000900 00000000 000000dd  Q..*............
 0ff0 0300000a 10000001 0155027c 00010154  .........U.|...T
 1000 027d0001 01510273 00000300 00000000  .}...Q.s........
 1010 000000ca 03000001 01550131 0000001c  .........U.1....
 1020 00000000 0c390f02 00005310 00001100  .....9....S.....
 1030 0000000c 39010f02 00001100 0000000c  ....9...........
 1040 3901d801 00001100 0000000c 39012e02  9...........9...
 1050 0000001c 00000000 026ed801 00007010  .........n....p.
 1060 00001100 00000002 6e204b02 00001500  ........n K.....
 1070 1c000000 000267d8 01000099 10000011  ......g.........
 1080 00000000 02671ba5 02000011 00000000  .....g..........
 1090 02673c4b 02000015 003adb0a 00000000  .g<K.....:......
 10a0 00000000 00003800 00000000 0000019c  ......8.........
 10b0 ee100000 05e80a00 00000000 00000000  ................
 10c0 001df10a 00000154 1dfa0a00 0001511d  .......T......Q.
 10d0 060b0000 01522312 0b000000 00000024  .....R#........$
 10e0 130b0000 00000000 00000000 00002600  ..............&.
 10f0 00000000 00000026 00000000 00000000  .......&........
 1100 3b000000 00000000 0000               ;.........      
Contents of section .debug_abbrev:
 0000 01490002 187e1800 00020d00 030e3a21  .I...~........:!
 0010 033b0b39 0b491338 0b000003 48017d01  .;.9.I.8....H.}.
 0020 7f130000 040f000b 21084913 00000505  ........!.I.....
 0030 00311302 17b74217 00000634 0003083a  .1....B....4...:
 0040 21013b0b 390b4913 0217b742 17000007  !.;.9.I....B....
 0050 24000b0b 3e0b030e 00000805 00491300  $...>........I..
 0060 00094801 7d017f13 01130000 0a050003  ..H.}...........
 0070 083a2101 3b0b390b 49130217 b7421700  .:!.;.9.I....B..
 0080 000b0500 030e3a21 013b0b39 0b491302  ......:!.;.9.I..
 0090 17b74217 00000c16 00030e3a 0b3b0b39  ..B........:.;.9
 00a0 0b491300 000d2e01 3f19030e 3a21013b  .I......?...:!.;
 00b0 0b392106 27191101 12074018 7a190113  .9!.'.....@.z...
 00c0 00000e48 007d017f 1300000f 1d013113  ...H.}........1.
 00d0 5201b842 0b110112 07582101 590b570b  R..B.....X!.Y.W.
 00e0 01130000 10050003 083a2101 3b0b390b  .........:!.;.9.
 00f0 49130218 00001105 00030e3a 0b3b0b39  I..........:.;.9
 0100 0b491300 00120500 31130000 130b0155  .I......1......U
 0110 17000014 16000308 3a21013b 0b390b49  ........:!.;.9.I
 0120 13000015 18000000 16340003 0e3a2101  .........4...:!.
 0130 3b0b390b 49130217 b7421700 00171d01  ;.9.I....B......
 0140 31135201 b8420b55 17582101 590b5721  1.R..B.U.X!.Y.W!
 0150 05011300 00180500 030e3a21 013b0b39  ..........:!.;.9
 0160 0b491302 18000019 1300030e 3c190000  .I..........<...
 0170 1a2e013f 19030e3a 0b3b0b39 0b271949  ...?...:.;.9.'.I
 0180 133c1901 1300001b 0b011101 12070000  .<..............
 0190 1c2e013f 19030e3a 0b3b0b39 21012719  ...?...:.;.9!.'.
 01a0 49132021 03341901 1300001d 05003113  I. !.4........1.
 01b0 02180000 1e370049 1300001f 01014913  .....7.I......I.
 01c0 01130000 20210049 132f0b00 00212e01  .... !.I./...!..
 01d0 3f19030e 3a210a3b 0539210d 27193c19  ?...:!.;.9!.'.<.
 01e0 01130000 220b0111 01120701 13000023  ...."..........#
 01f0 0b013113 55170000 24340031 130217b7  ..1.U...$4.1....
 0200 42170000 25050003 083a2101 3b0b390b  B...%....:!.;.9.
 0210 49130000 262e003f 193c196e 0e030e3a  I...&..?.<.n...:
 0220 210d3b21 00000027 1101250e 130b031f  !.;!...'..%.....
 0230 1b1f5517 11011017 00002813 01030e0b  ..U.......(.....
 0240 0b3a0b3b 0b390b01 13000029 24000b0b  .:.;.9.....)$...
 0250 3e0b0308 00002a0f 000b0b00 002b2600  >.....*......+&.
 0260 49130000 2c160003 0e3a0b3b 0b390b00  I...,....:.;.9..
 0270 002d3400 030e3a0b 3b0b390b 49133f19  .-4...:.;.9.I.?.
 0280 3c190000 2e2e003f 19030e3a 0b3b0b39  <......?...:.;.9
 0290 0b271949 133c1900 002f2e00 3f19030e  .'.I.<.../..?...
 02a0 3a0b3b05 390b2719 49133c19 0000302e  :.;.9.'.I.<...0.
 02b0 013f1903 0e3a0b3b 05390b27 1949133c  .?...:.;.9.'.I.<
 02c0 19011300 00312e01 3f19030e 3a0b3b05  .....1..?...:.;.
 02d0 390b2719 8701193c 19011300 00322e01  9.'....<.....2..
 02e0 3f19030e 3a0b3b05 390b6e0e 27194913  ?...:.;.9.n.'.I.
 02f0 3c190113 0000332e 013f1903 0e3a0b3b  <.....3..?...:.;
 0300 0b390b49 13110112 0740187a 19011300  .9.I.....@.z....
 0310 00343400 030e3a0b 3b0b390b 49131c06  .44...:.;.9.I...
 0320 00003534 00030e3a 0b3b0b39 0b491302  ..54...:.;.9.I..
 0330 18000036 0b015517 01130000 372e013f  ...6..U.....7..?
 0340 19030e3a 0b3b0b39 0b271920 0b011300  ...:.;.9.'. ....
 0350 00380b01 00003934 0003083a 0b3b0b39  .8....94...:.;.9
 0360 0b491300 003a2e01 31131101 12074018  .I...:..1.....@.
 0370 7a190113 00003b2e 003f193c 196e0e03  z.....;..?.<.n..
 0380 0e000000                             ....            
Contents of section .debug_loclists:
 0000 45090000 05000800 00000000 00000000  E...............
 0010 00000000 06000000 00000000 00040016  ................
 0020 01500416 fc040156 0483059f 05015004  .P.....V......P.
 0030 aa05d605 01560000 00000000 00000000  .....V..........
 0040 00060000 00000000 00000400 13015004  ..............P.
 0050 13bf0401 5d04e904 ee04015d 04ee048a  ....]......]....
 0060 05015004 8a059505 015d0000 00000000  ..P......]......
 0070 00000000 00060000 00000000 00000400  ................
 0080 04015004 04590153 04595f01 50045fdd  ..P..Y.S.Y_.P._.
 0090 03015304 8c049104 01530000 00000006  ..S......S......
 00a0 00000000 00000000 04000f01 5004dd02  ............P...
 00b0 ec020150 00010001 00060000 00000000  ...P............
 00c0 00000400 0f167000 73001ca8 31a82aa4  ......p.s...1.*.
 00d0 2a080000 00008084 2e411b9f 04dd02ec  *........A......
 00e0 02167000 73001ca8 31a82aa4 2a080000  ..p.s...1.*.*...
 00f0 00008084 2e411b9f 00040000 00000106  .....A..........
 0100 00000000 00000000 04000a02 309f040a  ............0...
 0110 18067300 76001c9f 04181e07 76002073  ..s.v.......v. s
 0120 00229f00 04000000 00010600 00000000  ."..............
 0130 00000004 000a0230 9f040a1a 0673007d  .......0.....s.}
 0140 001c9f04 1a20077d 00207300 229f0002  ..... .}. s."...
 0150 00080000 00000000 0000260a 03000000  ..........&.....
 0160 00000000 009f0002 00080000 00000000  ................
 0170 0000140a 03000000 00000000 009f0001  ................
 0180 00080000 00000000 00008902 060c0012  ................
 0190 7a009f00 01000800 00000000 00000089  z...............
 01a0 02039140 9f000100 08000000 00000000  ...@............
 01b0 00890201 5d000100 08000000 00000000  ....]...........
 01c0 00890201 56000200 08000000 00000000  ....V...........
 01d0 00060230 9f000200 08000000 00000000  ...0............
 01e0 00260a03 00000000 00000000 9f000200  .&..............
 01f0 08000000 00000000 00290a03 00000000  .........)......
 0200 00000000 9f000100 08000000 00000000  ................
 0210 001d0a03 00000000 00000000 9f000100  ................
 0220 08000000 00000000 001d0a03 00000000  ................
 0230 00000000 9f000000 00000000 00000600  ................
 0240 00000000 00000004 00240155 04243001  .........$.U.$0.
 0250 51043091 02015804 91029902 01550000  Q.0...X......U..
 0260 00000000 00060000 00000000 00000400  ................
 0270 1a015404 1a910201 59049102 99020154  ..T.....Y......T
 0280 00000000 00000006 00000000 00000000  ................
 0290 04002001 51042091 02015404 91029902  .. .Q. ...T.....
 02a0 01510000 00000000 00060000 00000000  .Q..............
 02b0 00000400 2b015204 2b910201 5a049102  ....+.R.+...Z...
 02c0 99020152 00020000 00000006 00000000  ...R............
 02d0 00000000 04002c02 309f042c 36067100  ......,.0..,6.q.
 02e0 78001c9f 048d0295 0202309f 00020000  x.........0.....
 02f0 00060000 00000000 00000400 06067a00  ..............z.
 0300 09f81a9f 04062301 52000200 00000001  ......#.R.......
 0310 01000600 00000000 00000004 00090230  ...............0
 0320 9f04091a 0150041a 2403707f 9f04242b  .....P..$.p...$+
 0330 01500002 00000000 01010006 00000000  .P..............
 0340 00000000 04000902 309f0409 1a015004  ........0.....P.
 0350 1a240370 7f9f0424 2b015000 00000000  .$.p...$+.P.....
 0360 06000000 00000000 0004000a 0151040a  .............Q..
 0370 8a020159 00000000 00060000 00000000  ...Y............
 0380 00000400 28015204 288a0201 51000200  ....(.R.(...Q...
 0390 00010100 00000000 00010000 06000000  ................
 03a0 00000000 00040032 02309f04 b601cb01  .......2.0......
 03b0 015004cb 01cf0103 70019f04 cf01d901  .P......p.......
 03c0 015204d9 01e30103 70019f04 e301e901  .R......p.......
 03d0 03707f9f 04820286 0202309f 00000000  .p........0.....
 03e0 00060000 00000000 00000400 17015104  ..............Q.
 03f0 17ac0301 59000000 00000000 06000000  ....Y...........
 0400 00000000 00040099 03015204 9903a503  ..........R.....
 0410 04a30152 9f04a503 ac030152 00020000  ...R.......R....
 0420 01010000 00000101 00000000 01010000  ................
 0430 00000101 00000000 01010000 00000000  ................
 0440 01000006 00000000 00000000 04003202  ..............2.
 0450 309f04c5 01dd0101 5004dd01 e1010370  0.......P......p
 0460 019f04e1 01f00101 5a04f001 80020370  ........Z......p
 0470 019f0480 02840203 70029f04 84029302  ........p.......
 0480 015a0493 02a30203 70029f04 a302a702  .Z......p.......
 0490 0370039f 04a702b2 02015a04 b202c202  .p........Z.....
 04a0 0370039f 04c202c6 02037004 9f04c602  .p........p.....
 04b0 d102015a 04d102e1 02037004 9f04e102  ...Z......p.....
 04c0 e5020370 059f04e5 02f00201 5a04f002  ...p........Z...
 04d0 fa020370 059f04fa 02840303 707f9f04  ...p........p...
 04e0 a103a803 02309f00 00000000 00000000  .....0..........
 04f0 00000600 00000000 00000004 00230155  .............#.U
 0500 04234e01 5c044e53 04a30155 9f045354  .#N.\.NS...U..ST
 0510 01550454 7b015c00 00000000 00000000  .U.T{.\.........
 0520 06000000 00000000 00040023 01540423  ...........#.T.#
 0530 5304a301 549f0453 54015404 547b04a3  S...T..ST.T.T{..
 0540 01549f00 00000000 00000000 00000600  .T..............
 0550 00000000 00000004 00230151 04235001  .........#.Q.#P.
 0560 5d045053 04a30151 9f045354 01510454  ].PS...Q..ST.Q.T
 0570 7b015d00 02000000 00000000 06000000  {.].............
 0580 00000000 0004001f 02309f04 1f480156  .........0...H.V
 0590 044f5002 309f0450 77015600 01000800  .OP.0..Pw.V.....
 05a0 00000000 0000001d 0a030000 00000000  ................
 05b0 00009f00 00000000 00000000 00000600  ................
 05c0 00000000 00000004 00230155 04234e01  .........#.U.#N.
 05d0 5c044e53 04a30155 9f045354 01550454  \.NS...U..ST.U.T
 05e0 7b015c00 00000000 00000000 06000000  {.\.............
 05f0 00000000 00040023 01540423 5304a301  .......#.T.#S...
 0600 549f0453 54015404 547b04a3 01549f00  T..ST.T.T{...T..
 0610 00000000 00000000 00000600 00000000  ................
 0620 00000004 00230151 04235001 5d045053  .....#.Q.#P.].PS
 0630 04a30151 9f045354 01510454 7b015d00  ...Q..ST.Q.T{.].
 0640 02000000 00000000 06000000 00000000  ................
 0650 0004001f 02309f04 1f480156 044f5002  .....0...H.V.OP.
 0660 309f0450 77015600 01000800 00000000  0..Pw.V.........
 0670 0000001d 0a030000 00000000 00009f00  ................
 0680 00000000 00000000 00000600 00000000  ................
 0690 00000004 00230155 04234e01 5c044e53  .....#.U.#N.\.NS
 06a0 04a30155 9f045354 01550454 7b015c00  ...U..ST.U.T{.\.
 06b0 00000000 00000000 06000000 00000000  ................
 06c0 00040023 01540423 5304a301 549f0453  ...#.T.#S...T..S
 06d0 54015404 547b04a3 01549f00 00000000  T.T.T{...T......
 06e0 00000000 00000600 00000000 00000004  ................
 06f0 00230151 04235001 5d045053 04a30151  .#.Q.#P.].PS...Q
 0700 9f045354 01510454 7b015d00 02000000  ..ST.Q.T{.].....
 0710 00000000 06000000 00000000 0004001f  ................
 0720 02309f04 1f480156 044f5002 309f0450  .0...H.V.OP.0..P
 0730 77015600 01000800 00000000 0000001d  w.V.............
 0740 0a030000 00000000 00009f00 00000000  ................
 0750 00000000 00000600 00000000 00000004  ................
 0760 00230155 04234e01 5c044e53 04a30155  .#.U.#N.\.NS...U
 0770 9f045354 01550454 7b015c00 00000000  ..ST.U.T{.\.....
 0780 00000000 06000000 00000000 00040023  ...............#
 0790 01540423 5304a301 549f0453 54015404  .T.#S...T..ST.T.
 07a0 547b04a3 01549f00 00000000 00000000  T{...T..........
 07b0 00000600 00000000 00000004 00230151  .............#.Q
 07c0 04235001 5d045053 04a30151 9f045354  .#P.].PS...Q..ST
 07d0 01510454 7b015d00 02000000 00000000  .Q.T{.].........
 07e0 06000000 00000000 0004001f 02309f04  .............0..
 07f0 1f480156 044f5002 309f0450 77015600  .H.V.OP.0..Pw.V.
 0800 01000800 00000000 0000001d 0a030000  ................
 0810 00000000 00009f00 00000000 00000000  ................
 0820 00000600 00000000 00000004 00240155  .............$.U
 0830 04244e01 5c044e51 04a30155 9f045152  .$N.\.NQ...U..QR
 0840 01550452 79015c00 00000000 00000000  .U.Ry.\.........
 0850 06000000 00000000 00040024 01540424  ...........$.T.$
 0860 5104a301 549f0451 52015404 527904a3  Q...T..QR.T.Ry..
 0870 01549f00 00000000 00000000 06000000  .T..............
 0880 00000000 00040024 01510424 5104a301  .......$.Q.$Q...
 0890 519f0451 52015104 527904a3 01519f00  Q..QR.Q.Ry...Q..
 08a0 02000001 01000000 00000000 06000000  ................
 08b0 00000000 00040020 02309f04 20390773  ....... .0.. 9.s
 08c0 00a30154 1c9f0439 3d097300 a301541c  ...T...9=.s...T.
 08d0 23019f04 3d470773 00a30154 1c9f044d  #...=G.s...T...M
 08e0 4e02309f 044e7507 7300a301 541c9f00  N.0..Nu.s...T...
 08f0 01000800 00000000 0000001d 0a030000  ................
 0900 00000000 00009f00 00000000 06000000  ................
 0910 00000000 00040011 01550411 38015a00  .........U..8.Z.
 0920 02000000 00010100 06000000 00000000  ................
 0930 0004000d 02309f04 0d220155 04222e03  .....0...".U."..
 0940 757f9f04 2e330155 00                 u....3.U.       
Contents of section .debug_aranges:
 0000 3c000000 02000000 00000800 00000000  <...............
 0010 00000000 00000000 f9060000 00000000  ................
 0020 00000000 00000000 13030000 00000000  ................
 0030 00000000 00000000 00000000 00000000  ................
Contents of section .debug_rnglists:
 0000 27010000 05000800 00000000 05000000  '...............
 0010 00000000 00040005 04244204 4e750005  .........$B.Nu..
 0020 00000000 00000000 04000504 191b0424  ...............$
 0030 46045077 00050000 00000000 00000400  F.Pw............
 0040 0504191b 04244604 50770005 00000000  .....$F.Pw......
 0050 00000000 04000504 191b0424 46045077  ...........$F.Pw
 0060 00050000 00000000 00000400 0504191b  ................
 0070 04244604 50770005 00000000 00000000  .$F.Pw..........
 0080 04000004 03330005 00000000 00000000  .....3..........
 0090 04000004 03a00304 a103a803 00050000  ................
 00a0 00000000 00000400 00040681 02048202  ................
 00b0 86020005 00000000 00000000 04001204  ................
 00c0 16d70100 05000000 00000000 00040007  ................
 00d0 04303004 343c0444 49045156 00050000  .00.4<.DI.QV....
 00e0 00000000 00000400 07044f63 00050000  ..........Oc....
 00f0 00000000 00000400 04040c89 02000500  ................
 0100 00000000 00000004 00000404 0c041419  ................
 0110 04212600 07000000 00000000 00f90d07  .!&.............
 0120 00000000 00000000 930600             ...........     
Contents of section .debug_line:
 0000 43090000 05000800 7a000000 010101fb  C.......z.......
 0010 0e0d0001 01010100 00000100 00010101  ................
 0020 1f060000 00000000 00000000 00000000  ................
 0030 00000000 00000000 00000201 1f020f0e  ................
 0040 00000000 01000000 00010000 00000200  ................
 0050 00000003 00000000 03000000 00020000  ................
 0060 00000300 00000004 00000000 03000000  ................
 0070 00050000 00000500 00000005 00000000  ................
 0080 02000000 0000053c 00090200 00000000  .......<........
 0090 00000003 38010601 0505064b 050a0105  ....8......K....
 00a0 1a01053c 06570509 0608d805 0d060105  ...<.W..........
 00b0 0cf20523 00020402 0657051a 00020402  ...#.....W......
 00c0 01000204 02064a05 015e583c 3c050d06  ......J..^X<<...
 00d0 1c040205 01032b01 05031405 0a060108  ......+.........
 00e0 ba040105 0d060354 01053e08 17060105  .......T..>.....
 00f0 05064b05 0a01051a 01053e06 57051108  ..K.......>.W...
 0100 3d053e2d 05090692 050d0601 050cf205  =.>-............
 0110 23000204 02065705 1a000204 024a0501  #.....W......J..
 0120 06962e2e 2e3c050d 061c0402 05010322  .....<........."
 0130 01050314 050a0601 08ba0401 050d0603  ................
 0140 5d01053e e9060105 05064b05 0a01051a  ]..>......K.....
 0150 01053e06 57051108 3d053e2d 05090692  ..>.W...=.>-....
 0160 050d0601 050cf205 23000204 02065705  ........#.....W.
 0170 1a000204 024a0501 06962e2e 2e3c050d  .....J.......<..
 0180 061c0402 05010319 01050314 050a0601  ................
 0190 08ba0401 050d0603 6601053e e9060105  ........f..>....
 01a0 05064b05 0a01051a 01053e06 57051108  ..K.......>.W...
 01b0 3d053e2d 05090692 050d0601 050cf205  =.>-............
 01c0 23000204 02065705 1a000204 024a0501  #.....W......J..
 01d0 06962e2e 2e3c050d 061c0402 05010310  .....<..........
 01e0 01050314 050a0601 08ba0401 050d0603  ................
 01f0 6f01053e e9060105 05064b05 0a01051a  o..>......K.....
 0200 01053e06 57051108 3d053e2d 05090692  ..>.W...=.>-....
 0210 050d0601 050cf205 23000204 02065705  ........#.....W.
 0220 1a000204 024a0501 06962e2e 2e3c050d  .....J.......<..
 0230 061c0402 05011905 0314050a 060108ba  ................
 0240 0401050d 06037801 0547e906 01050506  ......x..G......
 0250 4b050a01 051a0105 47061105 1a3d0511  K.......G....=..
 0260 593b0509 00020403 06910515 00020403  Y;..............
 0270 0601051c 00020403 58052300 02040357  ........X.#....W
 0280 05190002 04034b05 11000204 03660523  ......K......f.#
 0290 00020403 0665051a 00020403 01000204  .....e..........
 02a0 03065805 0115054a 06920601 0505064b  ..X....J.......K
 02b0 050a0105 1a01054a 0611051a 3df20519  .......J....=...
 02c0 0813051a 49050900 02040306 083d0519  ....I........=..
 02d0 00020403 06022712 05110002 04030874  ......'........t
 02e0 05190002 04038205 11000204 03f20523  ...............#
 02f0 00020403 0681051a 00020403 01050902  ................
 0300 2a130515 0601051c 58051558 05194a05  *.......X..X..J.
 0310 11740523 063b051a 01052306 01051a4a  .t.#.;....#....J
 0320 05090691 05150601 051c6605 19660511  ..........f..f..
 0330 74052306 3b051a01 05230601 051a4a05  t.#.;....#....J.
 0340 09069105 15060105 1c660519 66051174  .........f..f..t
 0350 0523063b 051a0105 23060105 1a4a0509  .#.;....#....J..
 0360 06590515 0601051c 66051966 05117405  .Y......f..f..t.
 0370 23063b05 1a010523 0601051a 4a050906  #.;....#....J...
 0380 59051506 01051c66 05196605 11740523  Y......f..f..t.#
 0390 063b051a 01052306 01051a4a 05090659  .;....#....J...Y
 03a0 05150601 051c6605 23650519 4b051174  ......f.#e..K..t
 03b0 0523063b 051a0105 0959051c 06010515  .#.;.....Y......
 03c0 66051966 05115805 23063b05 1a010601  f..f..X.#.;.....
 03d0 3c050115 05111d05 4a06b006 01050506  <.......J.......
 03e0 4b050a01 051a0105 4a061105 1a6708c8  K.......J....g..
 03f0 05194b05 1a490509 00020403 06f30519  ..K..I..........
 0400 00020403 06010511 00020403 024c1205  .............L..
 0410 23000204 03068105 1a000204 03010509  #...............
 0420 02261305 19060105 15740519 8205113c  .&.......t.....<
 0430 0523063b 051a0105 23060105 1a4a0509  .#.;....#....J..
 0440 06590519 06015805 23650519 4b05113c  .Y....X.#e..K..<
 0450 0523063b 051a0105 09590519 06010511  .#.;.....Y......
 0460 c8052306 3b051a01 06013c05 01150511  ..#.;.....<.....
 0470 1d054a06 a2060105 05064b05 0a01051a  ..J.......K.....
 0480 01051106 74050900 02040306 59051900  ....t.......Y...
 0490 02040306 01052300 0204039d 05190002  ......#.........
 04a0 04034b05 11000204 03660523 00020403  ..K......f.#....
 04b0 0649051a 00020403 01000204 03067405  .I............t.
 04c0 0115054a 06210601 0505064b 050a0105  ...J.!.....K....
 04d0 1a010511 06740509 00020403 06590519  .....t.......Y..
 04e0 00020403 06010523 00020403 9d051900  .......#........
 04f0 0204034b 05110002 04036605 23000204  ...K......f.#...
 0500 03064905 1a000204 03010002 04030674  ..I............t
 0510 05011505 48062206 01050506 4b050a01  ....H.".....K...
 0520 05170105 4806081f 05114c66 4a740509  ....H.....LfJt..
 0530 00020403 0658051c 00020403 06010515  .....X..........
 0540 00020403 3c051700 0204033b 00020403  ....<......;....
 0550 4a051900 0204034b 05110002 04036605  J......K......f.
 0560 09000204 03066705 20000204 03060105  ......g. .......
 0570 15000204 034a051d 00020403 4a051100  .....J......J...
 0580 02040358 05090002 04030667 05200002  ...X.......g. ..
 0590 04030601 05150002 04034a05 1d000204  ..........J.....
 05a0 034a0511 00020403 66050900 02040306  .J......f.......
 05b0 67052000 02040306 01051500 0204034a  g. ............J
 05c0 051d0002 04034a05 11000204 03580509  ......J......X..
 05d0 00020403 06680520 00020403 06010515  .....h. ........
 05e0 00020403 4a051d00 0204034a 05110002  ....J......J....
 05f0 04036605 09000204 03066705 20000204  ..f.......g. ...
 0600 03060105 15000204 034a051d 00020403  .........J......
 0610 4a051100 02040358 05090002 04030667  J......X.......g
 0620 05200002 04030601 05150002 04034a05  . ............J.
 0630 1d000204 034a0511 00020403 66050900  .....J......f...
 0640 02040306 67051500 02040306 01052000  ....g......... .
 0650 0204034a 051d0002 04034a05 11000204  ...J......J.....
 0660 03580521 00020403 06037766 05170002  .X.!......wf....
 0670 04030105 05030c90 050a0105 3101050e  ............1...
 0680 06010531 663c0509 00020403 06bb0515  ...1f<..........
 0690 00020403 0601051c 00020403 58053100  ............X.1.
 06a0 02040357 05190002 04034b05 11000204  ...W......K.....
 06b0 0366053a 00020403 06650531 00020403  .f.:.....e.1....
 06c0 01000204 03065805 01159002 01000101  ......X.........
 06d0 05010009 02000000 00000000 00039301  ................
 06e0 01050b06 6705012d 9e050506 f3050b06  ....g..-........
 06f0 01050558 06751305 10060106 e4ba052b  ...X.u.........+
 0700 01050513 050a0105 1a010509 00020403  ................
 0710 e5051300 02040306 01051a00 02040357  ...............W
 0720 05200002 04034b05 24000204 03066505  . ....K.$.....e.
 0730 1a000204 03010505 5b051006 01060820  ........[...... 
 0740 90052b01 05051305 0a01051a 01050900  ..+.............
 0750 02040308 13051300 02040306 01051a00  ................
 0760 02040357 05200002 04034b05 24000204  ...W. ....K.$...
 0770 03066505 1a000204 03010505 5b050e06  ..e.........[...
 0780 01050506 91040205 0a060350 01040105  ...........P....
 0790 150330d6 05055905 15f10505 063d5905  ..0...Y......=Y.
 07a0 13060105 05065913 04020501 034a0105  ......Y......J..
 07b0 03140401 05190603 33010402 050a034d  ........3......M
 07c0 4a040105 26033382 05193c04 02050a03  J...&.3...<.....
 07d0 4d580401 050c0333 58040205 0a034d82  MX.....3X.....M.
 07e0 58040105 05060335 01040205 01034901  X......5......I.
 07f0 05031405 0a060108 3c040105 05060337  ........<......7
 0800 0113050d 06010505 06084b05 0603bd7f  ..........K.....
 0810 01051a13 05190613 050d03c0 004a0509  .............J..
 0820 06034082 05150601 051c6605 19023a12  ..@.......f...:.
 0830 05110244 12051958 05115805 194a0511  ...D...X..X..J..
 0840 08820519 90051182 05194a05 11ba0519  ..........J.....
 0850 4a0511f2 052306c7 051a0106 f2050506  J....#..........
 0860 03c30001 050b0601 05050659 13040205  ...........Y....
 0870 01034201 05031404 01051206 033b0104  ..B..........;..
 0880 02050a03 454a0401 051f033b 8205123c  ....EJ.....;...<
 0890 0402050a 03455804 01051003 3b580402  .....EX.....;X..
 08a0 050a0345 82580401 05050603 3d010402  ...E.X......=...
 08b0 05010341 01050314 050a0601 02291204  ...A.........)..
 08c0 01050506 033e0183 05010683 0866204a  .....>.......f J
 08d0 05100002 04010603 673c0402 05010002  ........g<......
 08e0 04010350 01050300 02040114 050a0002  ...P............
 08f0 04010601 00020401 08ba0401 05100002  ................
 0900 04010603 2e010501 0603199e 05100002  ................
 0910 04010603 6b580402 05010002 0401034c  ....kX.........L
 0920 01050300 02040114 050a0002 04010601  ................
 0930 00020401 08ba0401 05100002 04010603  ................
 0940 3201020a 000101                      2......         
Contents of section .debug_str:
 0000 7072696e 7466005f 5f6f6666 5f74005f  printf.__off_t._
 0010 494f5f72 6561645f 70747200 6d616c6c  IO_read_ptr.mall
 0020 6f63005f 63686169 6e00646f 7470726f  oc._chain.dotpro
 0030 64756374 5f706c61 696e5f66 33320073  duct_plain_f32.s
 0040 697a655f 74005f73 686f7274 62756600  ize_t._shortbuf.
 0050 5f5f6368 005f494f 5f627566 5f626173  __ch._IO_buf_bas
 0060 65006c6f 6e67206c 6f6e6720 756e7369  e.long long unsi
 0070 676e6564 20696e74 005f5f62 75696c74  gned int.__built
 0080 696e5f63 616c6c6f 63006672 6565005f  in_calloc.free._
 0090 636f6465 63767400 6c6f6e67 206c6f6e  codecvt.long lon
 00a0 6720696e 74007369 676e6564 20636861  g int.signed cha
 00b0 72005f5f 6275696c 74696e5f 66777269  r.__builtin_fwri
 00c0 7465005f 66696c65 6e6f005f 494f5f72  te._fileno._IO_r
 00d0 6561645f 656e6400 6c6f6e67 20696e74  ead_end.long int
 00e0 005f666c 61677300 5f494f5f 6275665f  ._flags._IO_buf_
 00f0 656e6400 5f637572 5f636f6c 756d6e00  end._cur_column.
 0100 646f7470 726f6475 63745f70 6c61696e  dotproduct_plain
 0110 5f693136 005f494f 5f636f64 65637674  _i16._IO_codecvt
 0120 00646f75 626c6500 5f5f7072 696e7466  .double.__printf
 0130 5f63686b 005f6f6c 645f6f66 66736574  _chk._old_offset
 0140 005f6f66 66736574 00636c6f 636b5f74  ._offset.clock_t
 0150 005f494f 5f6d6172 6b657200 756e7369  ._IO_marker.unsi
 0160 676e6564 20696e74 005f6672 65657265  gned int._freere
 0170 735f6275 66007665 635f6672 6f6d4669  s_buf.vec_fromFi
 0180 6c655374 7265616d 5f663332 00667072  leStream_f32.fpr
 0190 696e7466 005f5f73 74726561 6d006c6f  intf.__stream.lo
 01a0 6e672075 6e736967 6e656420 696e7400  ng unsigned int.
 01b0 72616e64 005f494f 5f777269 74655f70  rand._IO_write_p
 01c0 74720074 696d655f 7370656e 74007369  tr.time_spent.si
 01d0 7a650073 686f7274 20756e73 69676e65  ze.short unsigne
 01e0 6420696e 74007665 635f6672 6f6d4669  d int.vec_fromFi
 01f0 6c655374 7265616d 5f693800 5f494f5f  leStream_i8._IO_
 0200 73617665 5f626173 65005f5f 69736f63  save_base.__isoc
 0210 39395f66 7363616e 6600646f 7470726f  99_fscanf.dotpro
 0220 64756374 5f706c61 696e5f66 3634005f  duct_plain_f64._
 0230 5f636c6f 636b5f74 005f6c6f 636b005f  _clock_t._lock._
 0240 666c6167 7332005f 6d6f6465 00736361  flags2._mode.sca
 0250 6c61725f 66007363 616c6172 5f690064  lar_f.scalar_i.d
 0260 6f747072 6f647563 745f706c 61696e5f  otproduct_plain_
 0270 69333200 6c6f6e67 20646f75 626c6500  i32.long double.
 0280 5f494f5f 77726974 655f656e 64007665  _IO_write_end.ve
 0290 635f6672 6f6d4669 6c655374 7265616d  c_fromFileStream
 02a0 5f693136 005f5f64 65737400 5f494f5f  _i16.__dest._IO_
 02b0 6c6f636b 5f74005f 494f5f46 494c4500  lock_t._IO_FILE.
 02c0 74696d65 0074696d 655f7400 666c6f61  time.time_t.floa
 02d0 74005f6d 61726b65 72730073 72616e64  t._markers.srand
 02e0 00756e73 69676e65 64206368 61720076  .unsigned char.v
 02f0 65633100 76656332 0073686f 72742069  ec1.vec2.short i
 0300 6e74005f 494f5f77 6964655f 64617461  nt._IO_wide_data
 0310 005f5f6c 656e005f 76746162 6c655f6f  .__len._vtable_o
 0320 66667365 74004649 4c450065 78697400  ffset.FILE.exit.
 0330 5f5f6670 72696e74 665f6368 6b006361  __fprintf_chk.ca
 0340 6c6c6f63 005f5f73 7461636b 5f63686b  lloc.__stack_chk
 0350 5f666169 6c006673 63616e66 00766563  _fail.fscanf.vec
 0360 5f66726f 6d46696c 65537472 65616d5f  _fromFileStream_
 0370 66363400 63686172 00474e55 20433137  f64.char.GNU C17
 0380 2031312e 342e3020 2d6d7475 6e653d67   11.4.0 -mtune=g
 0390 656e6572 6963202d 6d617263 683d7838  eneric -march=x8
 03a0 362d3634 202d6720 2d4f3320 2d666173  6-64 -g -O3 -fas
 03b0 796e6368 726f6e6f 75732d75 6e77696e  ynchronous-unwin
 03c0 642d7461 626c6573 202d6673 7461636b  d-tables -fstack
 03d0 2d70726f 74656374 6f722d73 74726f6e  -protector-stron
 03e0 67202d66 73746163 6b2d636c 6173682d  g -fstack-clash-
 03f0 70726f74 65637469 6f6e202d 6663662d  protection -fcf-
 0400 70726f74 65637469 6f6e0076 65635f66  protection.vec_f
 0410 726f6d46 696c6553 74726561 6d5f6933  romFileStream_i3
 0420 32007369 7a653100 5f5f6f66 6636345f  2.size1.__off64_
 0430 74005f49 4f5f7265 61645f62 61736500  t._IO_read_base.
 0440 5f494f5f 73617665 5f656e64 005f5f66  _IO_save_end.__f
 0450 6d74005f 5f706164 35005f5f 74696d65  mt.__pad5.__time
 0460 5f74005f 756e7573 65643200 73746465  _t._unused2.stde
 0470 7272006d 656d7365 74005f49 4f5f6261  rr.memset._IO_ba
 0480 636b7570 5f626173 6500646f 7470726f  ckup_base.dotpro
 0490 64756374 5f756e77 696e645f 69380066  duct_unwind_i8.f
 04a0 77726974 65005f66 72656572 65735f6c  write._freeres_l
 04b0 69737400 5f776964 655f6461 74610063  ist._wide_data.c
 04c0 6c6f636b 00737461 7274006d 61696e00  lock.start.main.
 04d0 5f494f5f 77726974 655f6261 73650064  _IO_write_base.d
 04e0 6f747072 6f647563 745f706c 61696e5f  otproduct_plain_
 04f0 69380072 6573756c 7400               i8.result.      
Contents of section .debug_line_str:
 0000 2f686f6d 652f7a61 64646c65 2f636f64  /home/zaddle/cod
 0010 652f4350 502f7072 6f6a6563 7432002e  e/CPP/project2..
 0020 2f737263 2f646f74 70726f64 7563742e  /src/dotproduct.
 0030 63002f68 6f6d652f 7a616464 6c652f63  c./home/zaddle/c
 0040 6f64652f 4350502f 70726f6a 65637432  ode/CPP/project2
 0050 002e2f73 7263002f 7573722f 696e636c  ../src./usr/incl
 0060 7564652f 7838365f 36342d6c 696e7578  ude/x86_64-linux
 0070 2d676e75 2f626974 73002f75 73722f69  -gnu/bits./usr/i
 0080 6e636c75 64652f78 38365f36 342d6c69  nclude/x86_64-li
 0090 6e75782d 676e752f 62697473 2f747970  nux-gnu/bits/typ
 00a0 6573002f 7573722f 6c69622f 6763632f  es./usr/lib/gcc/
 00b0 7838365f 36342d6c 696e7578 2d676e75  x86_64-linux-gnu
 00c0 2f31312f 696e636c 75646500 2f757372  /11/include./usr
 00d0 2f696e63 6c756465 00646f74 70726f64  /include.dotprod
 00e0 7563742e 6300646f 7470726f 64756374  uct.c.dotproduct
 00f0 2e630073 7464696f 322e6800 73747275  .c.stdio2.h.stru
 0100 63745f46 494c452e 68004649 4c452e68  ct_FILE.h.FILE.h
 0110 00747970 65732e68 00636c6f 636b5f74  .types.h.clock_t
 0120 2e680073 74646465 662e6800 74696d65  .h.stddef.h.time
 0130 5f742e68 0074696d 652e6800 7374646c  _t.h.time.h.stdl
 0140 69622e68 00737464 696f2e68 00737472  ib.h.stdio.h.str
 0150 696e675f 666f7274 69666965 642e6800  ing_fortified.h.
 0160 3c627569 6c742d69 6e3e00             <built-in>.     
Contents of section .comment:
 0000 00474343 3a202855 62756e74 75203131  .GCC: (Ubuntu 11
 0010 2e342e30 2d317562 756e7475 317e3232  .4.0-1ubuntu1~22
 0020 2e303429 2031312e 342e3000           .04) 11.4.0.    
Contents of section .note.gnu.property:
 0000 04000000 10000000 05000000 474e5500  ............GNU.
 0010 020000c0 04000000 03000000 00000000  ................
Contents of section .eh_frame:
 0000 14000000 00000000 017a5200 01781001  .........zR..x..
 0010 1b0c0708 90010000 44000000 1c000000  ........D.......
 0020 00000000 79000000 004b0e10 8d02490e  ....y....K....I.
 0030 188c0344 0e208604 450e2883 05470e30  ...D. ..E.(..G.0
 0040 660e2841 0e20410e 18420e10 420e0841  f.(A. A..B..B..A
 0050 c3c6cccd 410e3083 0586048c 038d0200  ....A.0.........
 0060 48000000 64000000 00000000 7b000000  H...d.......{...
 0070 004b0e10 8e02490e 188d0345 0e208c04  .K....I....E. ..
 0080 440e2886 05430e30 83066b0e 28410e20  D.(..C.0..k.(A. 
 0090 420e1842 0e10420e 0841c3c6 cccdce41  B..B..B..A.....A
 00a0 0e308306 86058c04 8d038e02 48000000  .0..........H...
 00b0 b0000000 00000000 7b000000 004b0e10  ........{....K..
 00c0 8e02490e 188d0345 0e208c04 440e2886  ..I....E. ..D.(.
 00d0 05430e30 83066b0e 28410e20 420e1842  .C.0..k.(A. B..B
 00e0 0e10420e 0841c3c6 cccdce41 0e308306  ..B..A.....A.0..
 00f0 86058c04 8d038e02 48000000 fc000000  ........H.......
 0100 00000000 7b000000 004b0e10 8e02490e  ....{....K....I.
 0110 188d0345 0e208c04 440e2886 05430e30  ...E. ..D.(..C.0
 0120 83066b0e 28410e20 420e1842 0e10420e  ..k.(A. B..B..B.
 0130 0841c3c6 cccdce41 0e308306 86058c04  .A.....A.0......
 0140 8d038e02 48000000 48010000 00000000  ....H...H.......
 0150 7b000000 004b0e10 8e02490e 188d0345  {....K....I....E
 0160 0e208c04 440e2886 05430e30 83066b0e  . ..D.(..C.0..k.
 0170 28410e20 420e1842 0e10420e 0841c3c6  (A. B..B..B..A..
 0180 cccdce41 0e308306 86058c04 8d038e02  ...A.0..........
 0190 10000000 94010000 00000000 38000000  ............8...
 01a0 00000000 10000000 a8010000 00000000  ................
 01b0 ac010000 00000000 10000000 bc010000  ................
 01c0 00000000 0a010000 00000000 10000000  ................
 01d0 d0010000 00000000 30000000 00000000  ........0.......
 01e0 10000000 e4010000 00000000 30000000  ............0...
 01f0 00000000 18000000 f8010000 00000000  ................
 0200 19010000 00570e10 830202f9 0e0848c3  .....W........H.
 0210 44000000 14020000 00000000 13030000  D...............
 0220 00460e10 8e02440e 188d0342 0e208c04  .F....D....B. ..
 0230 410e2886 05410e30 8306440e 5003a302  A.(..A.0..D.P...
 0240 0a0e3043 0e28410e 20420e18 420e1042  ..0C.(A. B..B..B
 0250 0e08410b 00000000                    ..A.....        

Disassembly of section .text:

0000000000000000 <vec_fromFileStream_i8>:
   0:	f3 0f 1e fa          	endbr64 
   4:	48 85 d2             	test   %rdx,%rdx
   7:	74 48                	je     51 <vec_fromFileStream_i8+0x51>
   9:	41 55                	push   %r13
   b:	4c 8d 2d 00 00 00 00 	lea    0x0(%rip),%r13        # 12 <vec_fromFileStream_i8+0x12>
  12:	41 54                	push   %r12
  14:	49 89 fc             	mov    %rdi,%r12
  17:	55                   	push   %rbp
  18:	48 8d 2c 16          	lea    (%rsi,%rdx,1),%rbp
  1c:	53                   	push   %rbx
  1d:	48 89 f3             	mov    %rsi,%rbx
  20:	48 83 ec 08          	sub    $0x8,%rsp
  24:	0f 1f 40 00          	nopl   0x0(%rax)
  28:	31 c0                	xor    %eax,%eax
  2a:	48 89 da             	mov    %rbx,%rdx
  2d:	4c 89 ee             	mov    %r13,%rsi
  30:	4c 89 e7             	mov    %r12,%rdi
  33:	e8 00 00 00 00       	call   38 <vec_fromFileStream_i8+0x38>
  38:	83 f8 01             	cmp    $0x1,%eax
  3b:	75 15                	jne    52 <vec_fromFileStream_i8+0x52>
  3d:	48 83 c3 01          	add    $0x1,%rbx
  41:	48 39 eb             	cmp    %rbp,%rbx
  44:	75 e2                	jne    28 <vec_fromFileStream_i8+0x28>
  46:	48 83 c4 08          	add    $0x8,%rsp
  4a:	5b                   	pop    %rbx
  4b:	5d                   	pop    %rbp
  4c:	41 5c                	pop    %r12
  4e:	41 5d                	pop    %r13
  50:	c3                   	ret    
  51:	c3                   	ret    
  52:	48 8b 0d 00 00 00 00 	mov    0x0(%rip),%rcx        # 59 <vec_fromFileStream_i8+0x59>
  59:	ba 2a 00 00 00       	mov    $0x2a,%edx
  5e:	be 01 00 00 00       	mov    $0x1,%esi
  63:	48 8d 3d 00 00 00 00 	lea    0x0(%rip),%rdi        # 6a <vec_fromFileStream_i8+0x6a>
  6a:	e8 00 00 00 00       	call   6f <vec_fromFileStream_i8+0x6f>
  6f:	bf 01 00 00 00       	mov    $0x1,%edi
  74:	e8 00 00 00 00       	call   79 <vec_fromFileStream_i8+0x79>
  79:	0f 1f 80 00 00 00 00 	nopl   0x0(%rax)

0000000000000080 <vec_fromFileStream_i16>:
  80:	f3 0f 1e fa          	endbr64 
  84:	48 85 d2             	test   %rdx,%rdx
  87:	74 4a                	je     d3 <vec_fromFileStream_i16+0x53>
  89:	41 56                	push   %r14
  8b:	4c 8d 35 00 00 00 00 	lea    0x0(%rip),%r14        # 92 <vec_fromFileStream_i16+0x12>
  92:	41 55                	push   %r13
  94:	49 89 d5             	mov    %rdx,%r13
  97:	41 54                	push   %r12
  99:	49 89 fc             	mov    %rdi,%r12
  9c:	55                   	push   %rbp
  9d:	31 ed                	xor    %ebp,%ebp
  9f:	53                   	push   %rbx
  a0:	48 89 f3             	mov    %rsi,%rbx
  a3:	0f 1f 44 00 00       	nopl   0x0(%rax,%rax,1)
  a8:	31 c0                	xor    %eax,%eax
  aa:	48 89 da             	mov    %rbx,%rdx
  ad:	4c 89 f6             	mov    %r14,%rsi
  b0:	4c 89 e7             	mov    %r12,%rdi
  b3:	e8 00 00 00 00       	call   b8 <vec_fromFileStream_i16+0x38>
  b8:	83 f8 01             	cmp    $0x1,%eax
  bb:	75 17                	jne    d4 <vec_fromFileStream_i16+0x54>
  bd:	48 83 c5 01          	add    $0x1,%rbp
  c1:	48 83 c3 02          	add    $0x2,%rbx
  c5:	49 39 ed             	cmp    %rbp,%r13
  c8:	75 de                	jne    a8 <vec_fromFileStream_i16+0x28>
  ca:	5b                   	pop    %rbx
  cb:	5d                   	pop    %rbp
  cc:	41 5c                	pop    %r12
  ce:	41 5d                	pop    %r13
  d0:	41 5e                	pop    %r14
  d2:	c3                   	ret    
  d3:	c3                   	ret    
  d4:	48 8b 0d 00 00 00 00 	mov    0x0(%rip),%rcx        # db <vec_fromFileStream_i16+0x5b>
  db:	ba 2b 00 00 00       	mov    $0x2b,%edx
  e0:	be 01 00 00 00       	mov    $0x1,%esi
  e5:	48 8d 3d 00 00 00 00 	lea    0x0(%rip),%rdi        # ec <vec_fromFileStream_i16+0x6c>
  ec:	e8 00 00 00 00       	call   f1 <vec_fromFileStream_i16+0x71>
  f1:	bf 01 00 00 00       	mov    $0x1,%edi
  f6:	e8 00 00 00 00       	call   fb <vec_fromFileStream_i16+0x7b>
  fb:	0f 1f 44 00 00       	nopl   0x0(%rax,%rax,1)

0000000000000100 <vec_fromFileStream_i32>:
 100:	f3 0f 1e fa          	endbr64 
 104:	48 85 d2             	test   %rdx,%rdx
 107:	74 4a                	je     153 <vec_fromFileStream_i32+0x53>
 109:	41 56                	push   %r14
 10b:	4c 8d 35 00 00 00 00 	lea    0x0(%rip),%r14        # 112 <vec_fromFileStream_i32+0x12>
 112:	41 55                	push   %r13
 114:	49 89 d5             	mov    %rdx,%r13
 117:	41 54                	push   %r12
 119:	49 89 fc             	mov    %rdi,%r12
 11c:	55                   	push   %rbp
 11d:	31 ed                	xor    %ebp,%ebp
 11f:	53                   	push   %rbx
 120:	48 89 f3             	mov    %rsi,%rbx
 123:	0f 1f 44 00 00       	nopl   0x0(%rax,%rax,1)
 128:	31 c0                	xor    %eax,%eax
 12a:	48 89 da             	mov    %rbx,%rdx
 12d:	4c 89 f6             	mov    %r14,%rsi
 130:	4c 89 e7             	mov    %r12,%rdi
 133:	e8 00 00 00 00       	call   138 <vec_fromFileStream_i32+0x38>
 138:	83 f8 01             	cmp    $0x1,%eax
 13b:	75 17                	jne    154 <vec_fromFileStream_i32+0x54>
 13d:	48 83 c5 01          	add    $0x1,%rbp
 141:	48 83 c3 04          	add    $0x4,%rbx
 145:	49 39 ed             	cmp    %rbp,%r13
 148:	75 de                	jne    128 <vec_fromFileStream_i32+0x28>
 14a:	5b                   	pop    %rbx
 14b:	5d                   	pop    %rbp
 14c:	41 5c                	pop    %r12
 14e:	41 5d                	pop    %r13
 150:	41 5e                	pop    %r14
 152:	c3                   	ret    
 153:	c3                   	ret    
 154:	48 8b 0d 00 00 00 00 	mov    0x0(%rip),%rcx        # 15b <vec_fromFileStream_i32+0x5b>
 15b:	ba 2b 00 00 00       	mov    $0x2b,%edx
 160:	be 01 00 00 00       	mov    $0x1,%esi
 165:	48 8d 3d 00 00 00 00 	lea    0x0(%rip),%rdi        # 16c <vec_fromFileStream_i32+0x6c>
 16c:	e8 00 00 00 00       	call   171 <vec_fromFileStream_i32+0x71>
 171:	bf 01 00 00 00       	mov    $0x1,%edi
 176:	e8 00 00 00 00       	call   17b <vec_fromFileStream_i32+0x7b>
 17b:	0f 1f 44 00 00       	nopl   0x0(%rax,%rax,1)

0000000000000180 <vec_fromFileStream_f32>:
 180:	f3 0f 1e fa          	endbr64 
 184:	48 85 d2             	test   %rdx,%rdx
 187:	74 4a                	je     1d3 <vec_fromFileStream_f32+0x53>
 189:	41 56                	push   %r14
 18b:	4c 8d 35 00 00 00 00 	lea    0x0(%rip),%r14        # 192 <vec_fromFileStream_f32+0x12>
 192:	41 55                	push   %r13
 194:	49 89 d5             	mov    %rdx,%r13
 197:	41 54                	push   %r12
 199:	49 89 fc             	mov    %rdi,%r12
 19c:	55                   	push   %rbp
 19d:	31 ed                	xor    %ebp,%ebp
 19f:	53                   	push   %rbx
 1a0:	48 89 f3             	mov    %rsi,%rbx
 1a3:	0f 1f 44 00 00       	nopl   0x0(%rax,%rax,1)
 1a8:	31 c0                	xor    %eax,%eax
 1aa:	48 89 da             	mov    %rbx,%rdx
 1ad:	4c 89 f6             	mov    %r14,%rsi
 1b0:	4c 89 e7             	mov    %r12,%rdi
 1b3:	e8 00 00 00 00       	call   1b8 <vec_fromFileStream_f32+0x38>
 1b8:	83 f8 01             	cmp    $0x1,%eax
 1bb:	75 17                	jne    1d4 <vec_fromFileStream_f32+0x54>
 1bd:	48 83 c5 01          	add    $0x1,%rbp
 1c1:	48 83 c3 04          	add    $0x4,%rbx
 1c5:	49 39 ed             	cmp    %rbp,%r13
 1c8:	75 de                	jne    1a8 <vec_fromFileStream_f32+0x28>
 1ca:	5b                   	pop    %rbx
 1cb:	5d                   	pop    %rbp
 1cc:	41 5c                	pop    %r12
 1ce:	41 5d                	pop    %r13
 1d0:	41 5e                	pop    %r14
 1d2:	c3                   	ret    
 1d3:	c3                   	ret    
 1d4:	48 8b 0d 00 00 00 00 	mov    0x0(%rip),%rcx        # 1db <vec_fromFileStream_f32+0x5b>
 1db:	ba 2d 00 00 00       	mov    $0x2d,%edx
 1e0:	be 01 00 00 00       	mov    $0x1,%esi
 1e5:	48 8d 3d 00 00 00 00 	lea    0x0(%rip),%rdi        # 1ec <vec_fromFileStream_f32+0x6c>
 1ec:	e8 00 00 00 00       	call   1f1 <vec_fromFileStream_f32+0x71>
 1f1:	bf 01 00 00 00       	mov    $0x1,%edi
 1f6:	e8 00 00 00 00       	call   1fb <vec_fromFileStream_f32+0x7b>
 1fb:	0f 1f 44 00 00       	nopl   0x0(%rax,%rax,1)

0000000000000200 <vec_fromFileStream_f64>:
 200:	f3 0f 1e fa          	endbr64 
 204:	48 85 d2             	test   %rdx,%rdx
 207:	74 4a                	je     253 <vec_fromFileStream_f64+0x53>
 209:	41 56                	push   %r14
 20b:	4c 8d 35 00 00 00 00 	lea    0x0(%rip),%r14        # 212 <vec_fromFileStream_f64+0x12>
 212:	41 55                	push   %r13
 214:	49 89 d5             	mov    %rdx,%r13
 217:	41 54                	push   %r12
 219:	49 89 fc             	mov    %rdi,%r12
 21c:	55                   	push   %rbp
 21d:	31 ed                	xor    %ebp,%ebp
 21f:	53                   	push   %rbx
 220:	48 89 f3             	mov    %rsi,%rbx
 223:	0f 1f 44 00 00       	nopl   0x0(%rax,%rax,1)
 228:	31 c0                	xor    %eax,%eax
 22a:	48 89 da             	mov    %rbx,%rdx
 22d:	4c 89 f6             	mov    %r14,%rsi
 230:	4c 89 e7             	mov    %r12,%rdi
 233:	e8 00 00 00 00       	call   238 <vec_fromFileStream_f64+0x38>
 238:	83 f8 01             	cmp    $0x1,%eax
 23b:	75 17                	jne    254 <vec_fromFileStream_f64+0x54>
 23d:	48 83 c5 01          	add    $0x1,%rbp
 241:	48 83 c3 08          	add    $0x8,%rbx
 245:	49 39 ed             	cmp    %rbp,%r13
 248:	75 de                	jne    228 <vec_fromFileStream_f64+0x28>
 24a:	5b                   	pop    %rbx
 24b:	5d                   	pop    %rbp
 24c:	41 5c                	pop    %r12
 24e:	41 5d                	pop    %r13
 250:	41 5e                	pop    %r14
 252:	c3                   	ret    
 253:	c3                   	ret    
 254:	48 8b 0d 00 00 00 00 	mov    0x0(%rip),%rcx        # 25b <vec_fromFileStream_f64+0x5b>
 25b:	ba 2d 00 00 00       	mov    $0x2d,%edx
 260:	be 01 00 00 00       	mov    $0x1,%esi
 265:	48 8d 3d 00 00 00 00 	lea    0x0(%rip),%rdi        # 26c <vec_fromFileStream_f64+0x6c>
 26c:	e8 00 00 00 00       	call   271 <vec_fromFileStream_f64+0x71>
 271:	bf 01 00 00 00       	mov    $0x1,%edi
 276:	e8 00 00 00 00       	call   27b <vec_fromFileStream_f64+0x7b>
 27b:	0f 1f 44 00 00       	nopl   0x0(%rax,%rax,1)

0000000000000280 <dotproduct_plain_i8>:
 280:	f3 0f 1e fa          	endbr64 
 284:	49 89 fa             	mov    %rdi,%r10
 287:	48 85 c9             	test   %rcx,%rcx
 28a:	74 2b                	je     2b7 <dotproduct_plain_i8+0x37>
 28c:	4c 8b 02             	mov    (%rdx),%r8
 28f:	31 ff                	xor    %edi,%edi
 291:	0f 1f 80 00 00 00 00 	nopl   0x0(%rax)
 298:	41 0f be 04 3a       	movsbl (%r10,%rdi,1),%eax
 29d:	44 0f be 0c 3e       	movsbl (%rsi,%rdi,1),%r9d
 2a2:	48 83 c7 01          	add    $0x1,%rdi
 2a6:	41 0f af c1          	imul   %r9d,%eax
 2aa:	48 98                	cltq   
 2ac:	49 01 c0             	add    %rax,%r8
 2af:	4c 89 02             	mov    %r8,(%rdx)
 2b2:	48 39 f9             	cmp    %rdi,%rcx
 2b5:	75 e1                	jne    298 <dotproduct_plain_i8+0x18>
 2b7:	c3                   	ret    
 2b8:	0f 1f 84 00 00 00 00 	nopl   0x0(%rax,%rax,1)
 2bf:	00 

00000000000002c0 <dotproduct_plain_i16>:
 2c0:	f3 0f 1e fa          	endbr64 
 2c4:	49 89 d1             	mov    %rdx,%r9
 2c7:	48 85 c9             	test   %rcx,%rcx
 2ca:	0f 84 94 01 00 00    	je     464 <dotproduct_plain_i16+0x1a4>
 2d0:	48 8d 41 ff          	lea    -0x1(%rcx),%rax
 2d4:	48 8b 12             	mov    (%rdx),%rdx
 2d7:	48 83 f8 06          	cmp    $0x6,%rax
 2db:	0f 86 84 01 00 00    	jbe    465 <dotproduct_plain_i16+0x1a5>
 2e1:	49 89 c8             	mov    %rcx,%r8
 2e4:	66 0f ef c0          	pxor   %xmm0,%xmm0
 2e8:	66 0f ef e4          	pxor   %xmm4,%xmm4
 2ec:	31 c0                	xor    %eax,%eax
 2ee:	49 c1 e8 03          	shr    $0x3,%r8
 2f2:	49 c1 e0 04          	shl    $0x4,%r8
 2f6:	66 2e 0f 1f 84 00 00 	cs nopw 0x0(%rax,%rax,1)
 2fd:	00 00 00 
 300:	f3 0f 6f 34 06       	movdqu (%rsi,%rax,1),%xmm6
 305:	f3 0f 6f 0c 07       	movdqu (%rdi,%rax,1),%xmm1
 30a:	f3 0f 6f 1c 07       	movdqu (%rdi,%rax,1),%xmm3
 30f:	48 83 c0 10          	add    $0x10,%rax
 313:	66 0f d5 ce          	pmullw %xmm6,%xmm1
 317:	66 0f e5 de          	pmulhw %xmm6,%xmm3
 31b:	66 0f 6f d1          	movdqa %xmm1,%xmm2
 31f:	66 0f 61 d3          	punpcklwd %xmm3,%xmm2
 323:	66 0f 69 cb          	punpckhwd %xmm3,%xmm1
 327:	66 0f 6f dc          	movdqa %xmm4,%xmm3
 32b:	66 0f 66 da          	pcmpgtd %xmm2,%xmm3
 32f:	66 0f 6f ea          	movdqa %xmm2,%xmm5
 333:	66 0f 62 eb          	punpckldq %xmm3,%xmm5
 337:	66 0f 6a d3          	punpckhdq %xmm3,%xmm2
 33b:	66 0f 6f d9          	movdqa %xmm1,%xmm3
 33f:	66 0f d4 c5          	paddq  %xmm5,%xmm0
 343:	66 0f d4 c2          	paddq  %xmm2,%xmm0
 347:	66 0f 6f d4          	movdqa %xmm4,%xmm2
 34b:	66 0f 66 d1          	pcmpgtd %xmm1,%xmm2
 34f:	66 0f 62 da          	punpckldq %xmm2,%xmm3
 353:	66 0f 6a ca          	punpckhdq %xmm2,%xmm1
 357:	66 0f d4 c3          	paddq  %xmm3,%xmm0
 35b:	66 0f d4 c1          	paddq  %xmm1,%xmm0
 35f:	4c 39 c0             	cmp    %r8,%rax
 362:	75 9c                	jne    300 <dotproduct_plain_i16+0x40>
 364:	66 0f 6f c8          	movdqa %xmm0,%xmm1
 368:	66 0f 73 d9 08       	psrldq $0x8,%xmm1
 36d:	66 0f d4 c1          	paddq  %xmm1,%xmm0
 371:	66 48 0f 7e c0       	movq   %xmm0,%rax
 376:	48 01 c2             	add    %rax,%rdx
 379:	48 89 c8             	mov    %rcx,%rax
 37c:	48 83 e0 f8          	and    $0xfffffffffffffff8,%rax
 380:	f6 c1 07             	test   $0x7,%cl
 383:	0f 84 d8 00 00 00    	je     461 <dotproduct_plain_i16+0x1a1>
 389:	44 0f bf 14 47       	movswl (%rdi,%rax,2),%r10d
 38e:	44 0f bf 1c 46       	movswl (%rsi,%rax,2),%r11d
 393:	4c 8d 04 00          	lea    (%rax,%rax,1),%r8
 397:	45 0f af d3          	imul   %r11d,%r10d
 39b:	4d 63 d2             	movslq %r10d,%r10
 39e:	4c 01 d2             	add    %r10,%rdx
 3a1:	4c 8d 50 01          	lea    0x1(%rax),%r10
 3a5:	4c 39 d1             	cmp    %r10,%rcx
 3a8:	0f 86 b3 00 00 00    	jbe    461 <dotproduct_plain_i16+0x1a1>
 3ae:	46 0f bf 54 07 02    	movswl 0x2(%rdi,%r8,1),%r10d
 3b4:	46 0f bf 5c 06 02    	movswl 0x2(%rsi,%r8,1),%r11d
 3ba:	45 0f af d3          	imul   %r11d,%r10d
 3be:	4d 63 d2             	movslq %r10d,%r10
 3c1:	4c 01 d2             	add    %r10,%rdx
 3c4:	4c 8d 50 02          	lea    0x2(%rax),%r10
 3c8:	4c 39 d1             	cmp    %r10,%rcx
 3cb:	0f 86 90 00 00 00    	jbe    461 <dotproduct_plain_i16+0x1a1>
 3d1:	46 0f bf 54 07 04    	movswl 0x4(%rdi,%r8,1),%r10d
 3d7:	46 0f bf 5c 06 04    	movswl 0x4(%rsi,%r8,1),%r11d
 3dd:	45 0f af d3          	imul   %r11d,%r10d
 3e1:	4d 63 d2             	movslq %r10d,%r10
 3e4:	4c 01 d2             	add    %r10,%rdx
 3e7:	4c 8d 50 03          	lea    0x3(%rax),%r10
 3eb:	4c 39 d1             	cmp    %r10,%rcx
 3ee:	76 71                	jbe    461 <dotproduct_plain_i16+0x1a1>
 3f0:	46 0f bf 54 07 06    	movswl 0x6(%rdi,%r8,1),%r10d
 3f6:	46 0f bf 5c 06 06    	movswl 0x6(%rsi,%r8,1),%r11d
 3fc:	45 0f af d3          	imul   %r11d,%r10d
 400:	4d 63 d2             	movslq %r10d,%r10
 403:	4c 01 d2             	add    %r10,%rdx
 406:	4c 8d 50 04          	lea    0x4(%rax),%r10
 40a:	4c 39 d1             	cmp    %r10,%rcx
 40d:	76 52                	jbe    461 <dotproduct_plain_i16+0x1a1>
 40f:	46 0f bf 54 07 08    	movswl 0x8(%rdi,%r8,1),%r10d
 415:	46 0f bf 5c 06 08    	movswl 0x8(%rsi,%r8,1),%r11d
 41b:	45 0f af d3          	imul   %r11d,%r10d
 41f:	4d 63 d2             	movslq %r10d,%r10
 422:	4c 01 d2             	add    %r10,%rdx
 425:	4c 8d 50 05          	lea    0x5(%rax),%r10
 429:	4c 39 d1             	cmp    %r10,%rcx
 42c:	76 33                	jbe    461 <dotproduct_plain_i16+0x1a1>
 42e:	46 0f bf 54 07 0a    	movswl 0xa(%rdi,%r8,1),%r10d
 434:	46 0f bf 5c 06 0a    	movswl 0xa(%rsi,%r8,1),%r11d
 43a:	48 83 c0 06          	add    $0x6,%rax
 43e:	45 0f af d3          	imul   %r11d,%r10d
 442:	4d 63 d2             	movslq %r10d,%r10
 445:	4c 01 d2             	add    %r10,%rdx
 448:	48 39 c1             	cmp    %rax,%rcx
 44b:	76 14                	jbe    461 <dotproduct_plain_i16+0x1a1>
 44d:	42 0f bf 44 06 0c    	movswl 0xc(%rsi,%r8,1),%eax
 453:	42 0f bf 4c 07 0c    	movswl 0xc(%rdi,%r8,1),%ecx
 459:	0f af c1             	imul   %ecx,%eax
 45c:	48 98                	cltq   
 45e:	48 01 c2             	add    %rax,%rdx
 461:	49 89 11             	mov    %rdx,(%r9)
 464:	c3                   	ret    
 465:	31 c0                	xor    %eax,%eax
 467:	e9 1d ff ff ff       	jmp    389 <dotproduct_plain_i16+0xc9>
 46c:	0f 1f 40 00          	nopl   0x0(%rax)

0000000000000470 <dotproduct_plain_i32>:
 470:	f3 0f 1e fa          	endbr64 
 474:	49 89 d1             	mov    %rdx,%r9
 477:	48 89 ca             	mov    %rcx,%rdx
 47a:	48 85 c9             	test   %rcx,%rcx
 47d:	0f 84 f2 00 00 00    	je     575 <dotproduct_plain_i32+0x105>
 483:	48 8d 41 ff          	lea    -0x1(%rcx),%rax
 487:	4d 8b 01             	mov    (%r9),%r8
 48a:	48 83 f8 02          	cmp    $0x2,%rax
 48e:	0f 86 e2 00 00 00    	jbe    576 <dotproduct_plain_i32+0x106>
 494:	48 c1 e9 02          	shr    $0x2,%rcx
 498:	66 0f ef d2          	pxor   %xmm2,%xmm2
 49c:	66 0f ef e4          	pxor   %xmm4,%xmm4
 4a0:	31 c0                	xor    %eax,%eax
 4a2:	48 c1 e1 04          	shl    $0x4,%rcx
 4a6:	66 2e 0f 1f 84 00 00 	cs nopw 0x0(%rax,%rax,1)
 4ad:	00 00 00 
 4b0:	f3 0f 6f 0c 07       	movdqu (%rdi,%rax,1),%xmm1
 4b5:	f3 0f 6f 1c 06       	movdqu (%rsi,%rax,1),%xmm3
 4ba:	f3 0f 6f 04 07       	movdqu (%rdi,%rax,1),%xmm0
 4bf:	f3 0f 6f 2c 06       	movdqu (%rsi,%rax,1),%xmm5
 4c4:	48 83 c0 10          	add    $0x10,%rax
 4c8:	66 0f 73 d3 20       	psrlq  $0x20,%xmm3
 4cd:	66 0f 73 d1 20       	psrlq  $0x20,%xmm1
 4d2:	66 0f f4 cb          	pmuludq %xmm3,%xmm1
 4d6:	66 0f f4 c5          	pmuludq %xmm5,%xmm0
 4da:	66 0f 70 c9 08       	pshufd $0x8,%xmm1,%xmm1
 4df:	66 0f 70 c0 08       	pshufd $0x8,%xmm0,%xmm0
 4e4:	66 0f 62 c1          	punpckldq %xmm1,%xmm0
 4e8:	66 0f 6f cc          	movdqa %xmm4,%xmm1
 4ec:	66 0f 66 c8          	pcmpgtd %xmm0,%xmm1
 4f0:	66 0f 6f d8          	movdqa %xmm0,%xmm3
 4f4:	66 0f 62 d9          	punpckldq %xmm1,%xmm3
 4f8:	66 0f 6a c1          	punpckhdq %xmm1,%xmm0
 4fc:	66 0f d4 d3          	paddq  %xmm3,%xmm2
 500:	66 0f d4 d0          	paddq  %xmm0,%xmm2
 504:	48 39 c1             	cmp    %rax,%rcx
 507:	75 a7                	jne    4b0 <dotproduct_plain_i32+0x40>
 509:	66 0f 6f c2          	movdqa %xmm2,%xmm0
 50d:	66 0f 73 d8 08       	psrldq $0x8,%xmm0
 512:	66 0f d4 d0          	paddq  %xmm0,%xmm2
 516:	66 48 0f 7e d0       	movq   %xmm2,%rax
 51b:	49 01 c0             	add    %rax,%r8
 51e:	48 89 d0             	mov    %rdx,%rax
 521:	48 83 e0 fc          	and    $0xfffffffffffffffc,%rax
 525:	f6 c2 03             	test   $0x3,%dl
 528:	74 48                	je     572 <dotproduct_plain_i32+0x102>
 52a:	8b 0c 87             	mov    (%rdi,%rax,4),%ecx
 52d:	0f af 0c 86          	imul   (%rsi,%rax,4),%ecx
 531:	4c 8d 14 85 00 00 00 	lea    0x0(,%rax,4),%r10
 538:	00 
 539:	48 63 c9             	movslq %ecx,%rcx
 53c:	49 01 c8             	add    %rcx,%r8
 53f:	48 8d 48 01          	lea    0x1(%rax),%rcx
 543:	48 39 ca             	cmp    %rcx,%rdx
 546:	76 2a                	jbe    572 <dotproduct_plain_i32+0x102>
 548:	42 8b 4c 17 04       	mov    0x4(%rdi,%r10,1),%ecx
 54d:	42 0f af 4c 16 04    	imul   0x4(%rsi,%r10,1),%ecx
 553:	48 83 c0 02          	add    $0x2,%rax
 557:	48 63 c9             	movslq %ecx,%rcx
 55a:	49 01 c8             	add    %rcx,%r8
 55d:	48 39 c2             	cmp    %rax,%rdx
 560:	76 10                	jbe    572 <dotproduct_plain_i32+0x102>
 562:	42 8b 44 16 08       	mov    0x8(%rsi,%r10,1),%eax
 567:	42 0f af 44 17 08    	imul   0x8(%rdi,%r10,1),%eax
 56d:	48 98                	cltq   
 56f:	49 01 c0             	add    %rax,%r8
 572:	4d 89 01             	mov    %r8,(%r9)
 575:	c3                   	ret    
 576:	31 c0                	xor    %eax,%eax
 578:	eb b0                	jmp    52a <dotproduct_plain_i32+0xba>
 57a:	66 0f 1f 44 00 00    	nopw   0x0(%rax,%rax,1)

0000000000000580 <dotproduct_plain_f32>:
 580:	f3 0f 1e fa          	endbr64 
 584:	48 85 c9             	test   %rcx,%rcx
 587:	74 26                	je     5af <dotproduct_plain_f32+0x2f>
 589:	db 2a                	fldt   (%rdx)
 58b:	31 c0                	xor    %eax,%eax
 58d:	0f 1f 00             	nopl   (%rax)
 590:	f3 0f 10 04 87       	movss  (%rdi,%rax,4),%xmm0
 595:	f3 0f 59 04 86       	mulss  (%rsi,%rax,4),%xmm0
 59a:	48 83 c0 01          	add    $0x1,%rax
 59e:	f3 0f 11 44 24 f4    	movss  %xmm0,-0xc(%rsp)
 5a4:	d8 44 24 f4          	fadds  -0xc(%rsp)
 5a8:	48 39 c1             	cmp    %rax,%rcx
 5ab:	75 e3                	jne    590 <dotproduct_plain_f32+0x10>
 5ad:	db 3a                	fstpt  (%rdx)
 5af:	c3                   	ret    

00000000000005b0 <dotproduct_plain_f64>:
 5b0:	f3 0f 1e fa          	endbr64 
 5b4:	48 85 c9             	test   %rcx,%rcx
 5b7:	74 26                	je     5df <dotproduct_plain_f64+0x2f>
 5b9:	db 2a                	fldt   (%rdx)
 5bb:	31 c0                	xor    %eax,%eax
 5bd:	0f 1f 00             	nopl   (%rax)
 5c0:	f2 0f 10 04 c7       	movsd  (%rdi,%rax,8),%xmm0
 5c5:	f2 0f 59 04 c6       	mulsd  (%rsi,%rax,8),%xmm0
 5ca:	48 83 c0 01          	add    $0x1,%rax
 5ce:	f2 0f 11 44 24 f0    	movsd  %xmm0,-0x10(%rsp)
 5d4:	dc 44 24 f0          	faddl  -0x10(%rsp)
 5d8:	48 39 c1             	cmp    %rax,%rcx
 5db:	75 e3                	jne    5c0 <dotproduct_plain_f64+0x10>
 5dd:	db 3a                	fstpt  (%rdx)
 5df:	c3                   	ret    

00000000000005e0 <dotproduct_unwind_i8>:
 5e0:	f3 0f 1e fa          	endbr64 
 5e4:	48 85 c9             	test   %rcx,%rcx
 5e7:	0f 84 0b 01 00 00    	je     6f8 <dotproduct_unwind_i8+0x118>
 5ed:	49 89 ca             	mov    %rcx,%r10
 5f0:	49 89 f8             	mov    %rdi,%r8
 5f3:	49 89 f1             	mov    %rsi,%r9
 5f6:	53                   	push   %rbx
 5f7:	48 89 d6             	mov    %rdx,%rsi
 5fa:	48 8b 02             	mov    (%rdx),%rax
 5fd:	48 89 fa             	mov    %rdi,%rdx
 600:	49 8d 7a ff          	lea    -0x1(%r10),%rdi
 604:	48 83 e7 f8          	and    $0xfffffffffffffff8,%rdi
 608:	4c 89 c9             	mov    %r9,%rcx
 60b:	4d 8d 5c 38 08       	lea    0x8(%r8,%rdi,1),%r11
 610:	0f be 19             	movsbl (%rcx),%ebx
 613:	0f be 3a             	movsbl (%rdx),%edi
 616:	48 83 c2 08          	add    $0x8,%rdx
 61a:	48 83 c1 08          	add    $0x8,%rcx
 61e:	0f af fb             	imul   %ebx,%edi
 621:	48 63 ff             	movslq %edi,%rdi
 624:	48 01 c7             	add    %rax,%rdi
 627:	48 89 3e             	mov    %rdi,(%rsi)
 62a:	0f be 59 f9          	movsbl -0x7(%rcx),%ebx
 62e:	0f be 42 f9          	movsbl -0x7(%rdx),%eax
 632:	0f af c3             	imul   %ebx,%eax
 635:	48 98                	cltq   
 637:	48 01 f8             	add    %rdi,%rax
 63a:	48 89 06             	mov    %rax,(%rsi)
 63d:	0f be 59 fa          	movsbl -0x6(%rcx),%ebx
 641:	0f be 7a fa          	movsbl -0x6(%rdx),%edi
 645:	0f af fb             	imul   %ebx,%edi
 648:	48 63 ff             	movslq %edi,%rdi
 64b:	48 01 c7             	add    %rax,%rdi
 64e:	48 89 3e             	mov    %rdi,(%rsi)
 651:	0f be 59 fb          	movsbl -0x5(%rcx),%ebx
 655:	0f be 42 fb          	movsbl -0x5(%rdx),%eax
 659:	0f af c3             	imul   %ebx,%eax
 65c:	48 98                	cltq   
 65e:	48 01 f8             	add    %rdi,%rax
 661:	48 89 06             	mov    %rax,(%rsi)
 664:	0f be 59 fc          	movsbl -0x4(%rcx),%ebx
 668:	0f be 7a fc          	movsbl -0x4(%rdx),%edi
 66c:	0f af fb             	imul   %ebx,%edi
 66f:	48 63 ff             	movslq %edi,%rdi
 672:	48 01 c7             	add    %rax,%rdi
 675:	48 89 3e             	mov    %rdi,(%rsi)
 678:	0f be 59 fd          	movsbl -0x3(%rcx),%ebx
 67c:	0f be 42 fd          	movsbl -0x3(%rdx),%eax
 680:	0f af c3             	imul   %ebx,%eax
 683:	48 98                	cltq   
 685:	48 01 f8             	add    %rdi,%rax
 688:	48 89 06             	mov    %rax,(%rsi)
 68b:	0f be 59 fe          	movsbl -0x2(%rcx),%ebx
 68f:	0f be 7a fe          	movsbl -0x2(%rdx),%edi
 693:	0f af fb             	imul   %ebx,%edi
 696:	48 63 ff             	movslq %edi,%rdi
 699:	48 01 c7             	add    %rax,%rdi
 69c:	48 89 3e             	mov    %rdi,(%rsi)
 69f:	0f be 42 ff          	movsbl -0x1(%rdx),%eax
 6a3:	0f be 59 ff          	movsbl -0x1(%rcx),%ebx
 6a7:	0f af c3             	imul   %ebx,%eax
 6aa:	48 98                	cltq   
 6ac:	48 01 f8             	add    %rdi,%rax
 6af:	48 89 06             	mov    %rax,(%rsi)
 6b2:	49 39 d3             	cmp    %rdx,%r11
 6b5:	0f 85 55 ff ff ff    	jne    610 <dotproduct_unwind_i8+0x30>
 6bb:	44 89 d1             	mov    %r10d,%ecx
 6be:	83 e1 f8             	and    $0xfffffff8,%ecx
 6c1:	48 63 c9             	movslq %ecx,%rcx
 6c4:	49 39 ca             	cmp    %rcx,%r10
 6c7:	76 26                	jbe    6ef <dotproduct_unwind_i8+0x10f>
 6c9:	0f 1f 80 00 00 00 00 	nopl   0x0(%rax)
 6d0:	41 0f be 14 08       	movsbl (%r8,%rcx,1),%edx
 6d5:	41 0f be 3c 09       	movsbl (%r9,%rcx,1),%edi
 6da:	48 83 c1 01          	add    $0x1,%rcx
 6de:	0f af d7             	imul   %edi,%edx
 6e1:	48 63 d2             	movslq %edx,%rdx
 6e4:	48 01 d0             	add    %rdx,%rax
 6e7:	48 89 06             	mov    %rax,(%rsi)
 6ea:	49 39 ca             	cmp    %rcx,%r10
 6ed:	75 e1                	jne    6d0 <dotproduct_unwind_i8+0xf0>
 6ef:	5b                   	pop    %rbx
 6f0:	c3                   	ret    
 6f1:	0f 1f 80 00 00 00 00 	nopl   0x0(%rax)
 6f8:	c3                   	ret    

Disassembly of section .text.startup:

0000000000000000 <main>:
   0:	f3 0f 1e fa          	endbr64 
   4:	41 56                	push   %r14
   6:	31 ff                	xor    %edi,%edi
   8:	41 55                	push   %r13
   a:	41 54                	push   %r12
   c:	55                   	push   %rbp
   d:	53                   	push   %rbx
   e:	48 83 ec 20          	sub    $0x20,%rsp
  12:	64 48 8b 04 25 28 00 	mov    %fs:0x28,%rax
  19:	00 00 
  1b:	48 89 44 24 18       	mov    %rax,0x18(%rsp)
  20:	31 c0                	xor    %eax,%eax
  22:	e8 00 00 00 00       	call   27 <main+0x27>
  27:	89 c7                	mov    %eax,%edi
  29:	e8 00 00 00 00       	call   2e <main+0x2e>
  2e:	be 01 00 00 00       	mov    $0x1,%esi
  33:	bf 00 12 7a 00       	mov    $0x7a1200,%edi
  38:	e8 00 00 00 00       	call   3d <main+0x3d>
  3d:	48 85 c0             	test   %rax,%rax
  40:	0f 84 7a 02 00 00    	je     2c0 <main+0x2c0>
  46:	48 89 c5             	mov    %rax,%rbp
  49:	48 89 c3             	mov    %rax,%rbx
  4c:	4c 8d a0 00 12 7a 00 	lea    0x7a1200(%rax),%r12
  53:	0f 1f 44 00 00       	nopl   0x0(%rax,%rax,1)
  58:	e8 00 00 00 00       	call   5d <main+0x5d>
  5d:	48 83 c3 01          	add    $0x1,%rbx
  61:	83 c0 80             	add    $0xffffff80,%eax
  64:	88 43 ff             	mov    %al,-0x1(%rbx)
  67:	4c 39 e3             	cmp    %r12,%rbx
  6a:	75 ec                	jne    58 <main+0x58>
  6c:	be 01 00 00 00       	mov    $0x1,%esi
  71:	bf 00 12 7a 00       	mov    $0x7a1200,%edi
  76:	e8 00 00 00 00       	call   7b <main+0x7b>
  7b:	49 89 c5             	mov    %rax,%r13
  7e:	48 85 c0             	test   %rax,%rax
  81:	0f 84 65 02 00 00    	je     2ec <main+0x2ec>
  87:	48 89 c3             	mov    %rax,%rbx
  8a:	4c 8d a0 00 12 7a 00 	lea    0x7a1200(%rax),%r12
  91:	0f 1f 80 00 00 00 00 	nopl   0x0(%rax)
  98:	e8 00 00 00 00       	call   9d <main+0x9d>
  9d:	48 83 c3 01          	add    $0x1,%rbx
  a1:	83 c0 80             	add    $0xffffff80,%eax
  a4:	88 43 ff             	mov    %al,-0x1(%rbx)
  a7:	4c 39 e3             	cmp    %r12,%rbx
  aa:	75 ec                	jne    98 <main+0x98>
  ac:	48 c7 44 24 10 00 00 	movq   $0x0,0x10(%rsp)
  b3:	00 00 
  b5:	4c 8d 35 00 00 00 00 	lea    0x0(%rip),%r14        # bc <main+0xbc>
  bc:	4c 8d 25 00 00 00 00 	lea    0x0(%rip),%r12        # c3 <main+0xc3>
  c3:	e8 00 00 00 00       	call   c8 <main+0xc8>
  c8:	b9 00 12 7a 00       	mov    $0x7a1200,%ecx
  cd:	4c 89 ee             	mov    %r13,%rsi
  d0:	48 89 ef             	mov    %rbp,%rdi
  d3:	48 8d 54 24 10       	lea    0x10(%rsp),%rdx
  d8:	48 89 c3             	mov    %rax,%rbx
  db:	e8 00 00 00 00       	call   e0 <main+0xe0>
  e0:	e8 00 00 00 00       	call   e5 <main+0xe5>
  e5:	66 0f ef c0          	pxor   %xmm0,%xmm0
  e9:	4c 89 f6             	mov    %r14,%rsi
  ec:	bf 01 00 00 00       	mov    $0x1,%edi
  f1:	48 29 d8             	sub    %rbx,%rax
  f4:	f2 48 0f 2a c0       	cvtsi2sd %rax,%xmm0
  f9:	b8 01 00 00 00       	mov    $0x1,%eax
  fe:	f2 0f 5e 05 00 00 00 	divsd  0x0(%rip),%xmm0        # 106 <main+0x106>
 105:	00 
 106:	e8 00 00 00 00       	call   10b <main+0x10b>
 10b:	48 8b 54 24 10       	mov    0x10(%rsp),%rdx
 110:	4c 89 e6             	mov    %r12,%rsi
 113:	31 c0                	xor    %eax,%eax
 115:	bf 01 00 00 00       	mov    $0x1,%edi
 11a:	e8 00 00 00 00       	call   11f <main+0x11f>
 11f:	e8 00 00 00 00       	call   124 <main+0x124>
 124:	66 45 0f ef c0       	pxor   %xmm8,%xmm8
 129:	66 0f ef ed          	pxor   %xmm5,%xmm5
 12d:	66 0f ef e4          	pxor   %xmm4,%xmm4
 131:	48 89 c3             	mov    %rax,%rbx
 134:	66 0f ef db          	pxor   %xmm3,%xmm3
 138:	31 c0                	xor    %eax,%eax
 13a:	66 0f 1f 44 00 00    	nopw   0x0(%rax,%rax,1)
 140:	f3 0f 6f 44 05 00    	movdqu 0x0(%rbp,%rax,1),%xmm0
 146:	f3 41 0f 6f 4c 05 00 	movdqu 0x0(%r13,%rax,1),%xmm1
 14d:	66 0f 6f fd          	movdqa %xmm5,%xmm7
 151:	66 0f 6f f5          	movdqa %xmm5,%xmm6
 155:	48 83 c0 10          	add    $0x10,%rax
 159:	66 0f 64 f9          	pcmpgtb %xmm1,%xmm7
 15d:	66 0f 64 f0          	pcmpgtb %xmm0,%xmm6
 161:	66 44 0f 6f c9       	movdqa %xmm1,%xmm9
 166:	66 0f 6f d0          	movdqa %xmm0,%xmm2
 16a:	66 44 0f 60 cf       	punpcklbw %xmm7,%xmm9
 16f:	66 0f 60 d6          	punpcklbw %xmm6,%xmm2
 173:	66 0f 68 cf          	punpckhbw %xmm7,%xmm1
 177:	66 41 0f d5 d1       	pmullw %xmm9,%xmm2
 17c:	66 0f 68 c6          	punpckhbw %xmm6,%xmm0
 180:	66 44 0f 6f cb       	movdqa %xmm3,%xmm9
 185:	66 0f d5 c1          	pmullw %xmm1,%xmm0
 189:	66 0f 6f cc          	movdqa %xmm4,%xmm1
 18d:	66 0f 65 ca          	pcmpgtw %xmm2,%xmm1
 191:	66 0f 6f f2          	movdqa %xmm2,%xmm6
 195:	66 0f 6f f8          	movdqa %xmm0,%xmm7
 199:	66 0f 61 f1          	punpcklwd %xmm1,%xmm6
 19d:	66 0f 69 d1          	punpckhwd %xmm1,%xmm2
 1a1:	66 0f 6f cc          	movdqa %xmm4,%xmm1
 1a5:	66 0f 65 c8          	pcmpgtw %xmm0,%xmm1
 1a9:	66 44 0f 66 ce       	pcmpgtd %xmm6,%xmm9
 1ae:	66 0f 61 f9          	punpcklwd %xmm1,%xmm7
 1b2:	66 0f 69 c1          	punpckhwd %xmm1,%xmm0
 1b6:	66 0f 6f ce          	movdqa %xmm6,%xmm1
 1ba:	66 41 0f 62 c9       	punpckldq %xmm9,%xmm1
 1bf:	66 41 0f 6a f1       	punpckhdq %xmm9,%xmm6
 1c4:	66 41 0f d4 c8       	paddq  %xmm8,%xmm1
 1c9:	66 44 0f 6f c2       	movdqa %xmm2,%xmm8
 1ce:	66 0f d4 ce          	paddq  %xmm6,%xmm1
 1d2:	66 0f 6f f3          	movdqa %xmm3,%xmm6
 1d6:	66 0f 66 f2          	pcmpgtd %xmm2,%xmm6
 1da:	66 44 0f 62 c6       	punpckldq %xmm6,%xmm8
 1df:	66 0f 6a d6          	punpckhdq %xmm6,%xmm2
 1e3:	66 0f 6f f3          	movdqa %xmm3,%xmm6
 1e7:	66 0f 66 f7          	pcmpgtd %xmm7,%xmm6
 1eb:	66 41 0f d4 c8       	paddq  %xmm8,%xmm1
 1f0:	66 0f d4 ca          	paddq  %xmm2,%xmm1
 1f4:	66 0f 6f d7          	movdqa %xmm7,%xmm2
 1f8:	66 0f 62 d6          	punpckldq %xmm6,%xmm2
 1fc:	66 0f d4 ca          	paddq  %xmm2,%xmm1
 200:	66 0f 6f d7          	movdqa %xmm7,%xmm2
 204:	66 0f 6a d6          	punpckhdq %xmm6,%xmm2
 208:	66 0f 6f f0          	movdqa %xmm0,%xmm6
 20c:	66 0f d4 ca          	paddq  %xmm2,%xmm1
 210:	66 0f 6f d3          	movdqa %xmm3,%xmm2
 214:	66 0f 66 d0          	pcmpgtd %xmm0,%xmm2
 218:	66 0f 62 f2          	punpckldq %xmm2,%xmm6
 21c:	66 0f 6a c2          	punpckhdq %xmm2,%xmm0
 220:	66 0f d4 ce          	paddq  %xmm6,%xmm1
 224:	66 0f d4 c8          	paddq  %xmm0,%xmm1
 228:	66 44 0f 6f c1       	movdqa %xmm1,%xmm8
 22d:	48 3d 00 12 7a 00    	cmp    $0x7a1200,%rax
 233:	0f 85 07 ff ff ff    	jne    140 <main+0x140>
 239:	0f 29 0c 24          	movaps %xmm1,(%rsp)
 23d:	e8 00 00 00 00       	call   242 <main+0x242>
 242:	66 0f ef c0          	pxor   %xmm0,%xmm0
 246:	4c 89 f6             	mov    %r14,%rsi
 249:	bf 01 00 00 00       	mov    $0x1,%edi
 24e:	48 29 d8             	sub    %rbx,%rax
 251:	f2 48 0f 2a c0       	cvtsi2sd %rax,%xmm0
 256:	b8 01 00 00 00       	mov    $0x1,%eax
 25b:	f2 0f 5e 05 00 00 00 	divsd  0x0(%rip),%xmm0        # 263 <main+0x263>
 262:	00 
 263:	e8 00 00 00 00       	call   268 <main+0x268>
 268:	66 44 0f 6f 04 24    	movdqa (%rsp),%xmm8
 26e:	4c 89 e6             	mov    %r12,%rsi
 271:	31 c0                	xor    %eax,%eax
 273:	bf 01 00 00 00       	mov    $0x1,%edi
 278:	66 41 0f 6f c0       	movdqa %xmm8,%xmm0
 27d:	66 0f 73 d8 08       	psrldq $0x8,%xmm0
 282:	66 44 0f d4 c0       	paddq  %xmm0,%xmm8
 287:	66 4c 0f 7e c2       	movq   %xmm8,%rdx
 28c:	e8 00 00 00 00       	call   291 <main+0x291>
 291:	48 89 ef             	mov    %rbp,%rdi
 294:	e8 00 00 00 00       	call   299 <main+0x299>
 299:	4c 89 ef             	mov    %r13,%rdi
 29c:	e8 00 00 00 00       	call   2a1 <main+0x2a1>
 2a1:	48 8b 44 24 18       	mov    0x18(%rsp),%rax
 2a6:	64 48 2b 04 25 28 00 	sub    %fs:0x28,%rax
 2ad:	00 00 
 2af:	75 36                	jne    2e7 <main+0x2e7>
 2b1:	48 83 c4 20          	add    $0x20,%rsp
 2b5:	31 c0                	xor    %eax,%eax
 2b7:	5b                   	pop    %rbx
 2b8:	5d                   	pop    %rbp
 2b9:	41 5c                	pop    %r12
 2bb:	41 5d                	pop    %r13
 2bd:	41 5e                	pop    %r14
 2bf:	c3                   	ret    
 2c0:	48 8b 0d 00 00 00 00 	mov    0x0(%rip),%rcx        # 2c7 <main+0x2c7>
 2c7:	ba 23 00 00 00       	mov    $0x23,%edx
 2cc:	be 01 00 00 00       	mov    $0x1,%esi
 2d1:	48 8d 3d 00 00 00 00 	lea    0x0(%rip),%rdi        # 2d8 <main+0x2d8>
 2d8:	e8 00 00 00 00       	call   2dd <main+0x2dd>
 2dd:	bf 01 00 00 00       	mov    $0x1,%edi
 2e2:	e8 00 00 00 00       	call   2e7 <main+0x2e7>
 2e7:	e8 00 00 00 00       	call   2ec <main+0x2ec>
 2ec:	48 8b 0d 00 00 00 00 	mov    0x0(%rip),%rcx        # 2f3 <main+0x2f3>
 2f3:	ba 23 00 00 00       	mov    $0x23,%edx
 2f8:	be 01 00 00 00       	mov    $0x1,%esi
 2fd:	48 8d 3d 00 00 00 00 	lea    0x0(%rip),%rdi        # 304 <main+0x304>
 304:	e8 00 00 00 00       	call   309 <main+0x309>
 309:	bf 01 00 00 00       	mov    $0x1,%edi
 30e:	e8 00 00 00 00       	call   313 <dotproduct_plain_i16+0x53>
