
./build/dummy.o:     file format elf64-x86-64

Contents of section .text:
 0000 f30f1efa 4885d274 4f415541 54554989  ....H..tOAUATUI.
 0010 fc53488d 2c164889 f34c8d2d 00000000  .SH.,.H..L.-....
 0020 4883ec08 66662e0f 1f840000 00000090  H...ff..........
 0030 31c04889 da4c89ee 4c89e7e8 00000000  1.H..L..L.......
 0040 83f80175 1448ffc3 4839eb75 e34883c4  ...u.H..H9.u.H..
 0050 085b5d41 5c415dc3 c3488b0d 00000000  .[]A\A]..H......
 0060 488d3d00 000000ba 2a000000 be010000  H.=.....*.......
 0070 00e80000 0000bf01 000000e8 00000000  ................
 0080 f30f1efa 4885d274 5141564c 8d350000  ....H..tQAVL.5..
 0090 00004155 4989d541 544989fc 5531ed53  ..AUI..ATI..U1.S
 00a0 4889f366 662e0f1f 84000000 00006690  H..ff.........f.
 00b0 31c04889 da4c89f6 4c89e7e8 00000000  1.H..L..L.......
 00c0 83f80175 1648ffc5 4883c302 4939ed75  ...u.H..H...I9.u
 00d0 df5b5d41 5c415d41 5ec3c348 8b0d0000  .[]A\A]A^..H....
 00e0 0000488d 3d000000 00ba2b00 0000be01  ..H.=.....+.....
 00f0 000000e8 00000000 bf010000 00e80000  ................
 0100 00006666 2e0f1f84 00000000 000f1f00  ..ff............
 0110 f30f1efa 4885d274 5141564c 8d350000  ....H..tQAVL.5..
 0120 00004155 4989d541 544989fc 5531ed53  ..AUI..ATI..U1.S
 0130 4889f366 662e0f1f 84000000 00006690  H..ff.........f.
 0140 31c04889 da4c89f6 4c89e7e8 00000000  1.H..L..L.......
 0150 83f80175 1648ffc5 4883c304 4939ed75  ...u.H..H...I9.u
 0160 df5b5d41 5c415d41 5ec3c348 8b0d0000  .[]A\A]A^..H....
 0170 0000488d 3d000000 00ba2b00 0000be01  ..H.=.....+.....
 0180 000000e8 00000000 bf010000 00e80000  ................
 0190 00006666 2e0f1f84 00000000 000f1f00  ..ff............
 01a0 f30f1efa 4885d274 5141564c 8d350000  ....H..tQAVL.5..
 01b0 00004155 4989d541 544989fc 5531ed53  ..AUI..ATI..U1.S
 01c0 4889f366 662e0f1f 84000000 00006690  H..ff.........f.
 01d0 31c04889 da4c89f6 4c89e7e8 00000000  1.H..L..L.......
 01e0 83f80175 1648ffc5 4883c304 4939ed75  ...u.H..H...I9.u
 01f0 df5b5d41 5c415d41 5ec3c348 8b0d0000  .[]A\A]A^..H....
 0200 0000488d 3d000000 00ba2d00 0000be01  ..H.=.....-.....
 0210 000000e8 00000000 bf010000 00e80000  ................
 0220 00006666 2e0f1f84 00000000 000f1f00  ..ff............
 0230 f30f1efa 4885d274 5141564c 8d350000  ....H..tQAVL.5..
 0240 00004155 4989d541 544989fc 5531ed53  ..AUI..ATI..U1.S
 0250 4889f366 662e0f1f 84000000 00006690  H..ff.........f.
 0260 31c04889 da4c89f6 4c89e7e8 00000000  1.H..L..L.......
 0270 83f80175 1648ffc5 4883c308 4939ed75  ...u.H..H...I9.u
 0280 df5b5d41 5c415d41 5ec3c348 8b0d0000  .[]A\A]A^..H....
 0290 0000488d 3d000000 00ba2d00 0000be01  ..H.=.....-.....
 02a0 000000e8 00000000 bf010000 00e80000  ................
 02b0 00006666 2e0f1f84 00000000 000f1f00  ..ff............
 02c0 f30f1efa 4989fa48 85c97432 4c8b0231  ....I..H..t2L..1
 02d0 ff66662e 0f1f8400 00000000 0f1f4000  .ff...........@.
 02e0 410fbe04 3a440fbe 0c3e48ff c7410faf  A...:D...>H..A..
 02f0 c1489849 01c04c89 024839f9 75e2c390  .H.I..L..H9.u...
 0300 f30f1efa 4989fa48 85c97432 4c8b0231  ....I..H..t2L..1
 0310 ff66662e 0f1f8400 00000000 0f1f4000  .ff...........@.
 0320 410fbf04 7a440fbf 0c7e48ff c7410faf  A...zD...~H..A..
 0330 c1489849 01c04839 f975e54c 8902c390  .H.I..H9.u.L....
 0340 f30f1efa 4885c974 204c8b0a 4531c090  ....H..t L..E1..
 0350 428b0487 420faf04 8649ffc0 48984901  B...B....I..H.I.
 0360 c14c39c1 75ea4c89 0ac3660f 1f440000  .L9.u.L...f..D..
 0370 f30f1efa 4885c974 25db2a31 c00f1f00  ....H..t%.*1....
 0380 c5fa1004 87c5fa59 0c8648ff c0c5fa11  .......Y..H.....
 0390 4c24f4d8 4424f448 39c175e4 db3ac390  L$..D$.H9.u..:..
 03a0 f30f1efa 4885c974 25db2a31 c00f1f00  ....H..t%.*1....
 03b0 c5fb1004 c7c5fb59 0cc648ff c0c5fb11  .......Y..H.....
 03c0 4c24f0dc 4424f048 39c175e4 db3ac390  L$..D$.H9.u..:..
 03d0 f30f1efa 4885c90f 84030100 004989ca  ....H........I..
 03e0 4989f849 89f15348 89d6488b 024889fa  I..I..SH..H..H..
 03f0 498d7aff 4883e7f8 4c89c94d 8d5c3808  I.z.H...L..M.\8.
 0400 0fbe190f be3a4883 c2084883 c1080faf  .....:H...H.....
 0410 fb4863ff 4801c748 893e0fbe 59f90fbe  .Hc.H..H.>..Y...
 0420 42f90faf c3489848 01f84889 060fbe59  B....H.H..H....Y
 0430 fa0fbe7a fa0faffb 4863ff48 01c74889  ...z....Hc.H..H.
 0440 3e0fbe59 fb0fbe42 fb0fafc3 48984801  >..Y...B....H.H.
 0450 f8488906 0fbe59fc 0fbe7afc 0faffb48  .H....Y...z....H
 0460 63ff4801 c748893e 0fbe59fd 0fbe42fd  c.H..H.>..Y...B.
 0470 0fafc348 984801f8 4889060f be59fe0f  ...H.H..H....Y..
 0480 be7afe0f affb4863 ff4801c7 48893e0f  .z....Hc.H..H.>.
 0490 be42ff0f be59ff0f afc34898 4801f848  .B...Y....H.H..H
 04a0 89064939 d30f8555 ffffff44 89d183e1  ..I9...U...D....
 04b0 f84863c9 4939ca76 250f1f80 00000000  .Hc.I9.v%.......
 04c0 410fbe14 08410fbe 3c0948ff c10fafd7  A....A..<.H.....
 04d0 4863d248 01d04889 064939ca 75e25bc3  Hc.H..H..I9.u.[.
 04e0 c366662e 0f1f8400 00000000 0f1f4000  .ff...........@.
 04f0 f30f1efa 4885c90f 84030100 004989f0  ....H........I..
 0500 4889ce53 4989d148 8d4436fe 4c8b1a4c  H..SI..H.D6.L..L
 0510 89c14889 fa4883e0 f04c8d54 07106690  ..H..H...L.T..f.
 0520 0fbf190f bf024883 c2104883 c1100faf  ......H...H.....
 0530 c30fbf59 f248984c 01d8440f bf5af244  ...Y.H.L..D..Z.D
 0540 0fafdb0f bf59f44d 63db4c01 d8440fbf  .....Y.Mc.L..D..
 0550 5af4440f afdb0fbf 59f64d63 db4c01d8  Z.D.....Y.Mc.L..
 0560 440fbf5a f6440faf db0fbf59 f84d63db  D..Z.D.....Y.Mc.
 0570 4c01d844 0fbf5af8 440fafdb 0fbf59fa  L..D..Z.D.....Y.
 0580 4d63db4c 01d8440f bf5afa44 0fafdb0f  Mc.L..D..Z.D....
 0590 bf59fc4d 63db4c01 d8440fbf 5afc440f  .Y.Mc.L..D..Z.D.
 05a0 afdb0fbf 59fe4d63 db4c01d8 440fbf5a  ....Y.Mc.L..D..Z
 05b0 fe440faf db4d63db 4901c349 39d20f85  .D...Mc.I..I9...
 05c0 5cffffff 89f24d89 1983e2f8 4863d248  \.....M.....Hc.H
 05d0 39d67629 4801d248 01f6660f 1f440000  9.v)H..H..f..D..
 05e0 0fbf0417 410fbf0c 104883c2 020fafc1  ....A....H......
 05f0 48984901 c34839d6 75e64d89 195bc390  H.I..H9.u.M..[..
 0600 c366662e 0f1f8400 00000000 0f1f4000  .ff...........@.
 0610 f30f1efa 4989f049 89d14889 ce4885c9  ....I..I..H..H..
 0620 0f84d300 0000488d 04b5fcff ffff4c8b  ......H.......L.
 0630 1a4c89c1 4889fa48 83e0e04c 8d540720  .L..H..H...L.T. 
 0640 8b020faf 014883c2 204883c1 2048984c  .....H.. H.. H.L
 0650 01d8448b 5ae4440f af59e44d 63db4c01  ..D.Z.D..Y.Mc.L.
 0660 d8448b5a e8440faf 59e84d63 db4c01d8  .D.Z.D..Y.Mc.L..
 0670 448b5aec 440faf59 ec4d63db 4c01d844  D.Z.D..Y.Mc.L..D
 0680 8b5af044 0faf59f0 4d63db4c 01d8448b  .Z.D..Y.Mc.L..D.
 0690 5af4440f af59f44d 63db4c01 d8448b5a  Z.D..Y.Mc.L..D.Z
 06a0 f8440faf 59f84d63 db4c01d8 448b5afc  .D..Y.Mc.L..D.Z.
 06b0 440faf59 fc4d63db 4901c349 39d27580  D..Y.Mc.I..I9.u.
 06c0 89f24d89 1983e2f8 4863d248 39d67629  ..M.....Hc.H9.v)
 06d0 48c1e202 48c1e602 0f1f8400 00000000  H...H...........
 06e0 8b041741 0faf0410 4883c204 48984901  ...A....H...H.I.
 06f0 c34839d6 75ea4d89 19c3660f 1f440000  .H9.u.M...f..D..
 0700 f30f1efa 4989f048 85c90f84 14010000  ....I..H........
 0710 db2a4c8d 0c8dfcff ffff4889 f84983e1  .*L.......H..I..
 0720 e04e8d4c 0f20662e 0f1f8400 00000000  .N.L. f.........
 0730 c5fa1000 4883c020 4883c620 c5fa594e  ....H.. H.. ..YN
 0740 e0c5fa10 40e4c5fa 5956e4c5 fa1040e8  ....@...YV....@.
 0750 c5fa595e e8c5fa10 40ecc5fa 5966ecc5  ..Y^....@...Yf..
 0760 fa1040f0 c5fa596e f0c5fa10 40f4c5fa  ..@...Yn....@...
 0770 5976f4c5 fa1040f8 c5fa597e f8c5fa10  Yv....@...Y~....
 0780 40fcc5fa 114c24f4 c5fa594e fcd84424  @....L$...YN..D$
 0790 f4c5fa11 5424f4d8 4424f4c5 fa115c24  ....T$..D$....\$
 07a0 f4d84424 f4c5fa11 6424f4d8 4424f4c5  ..D$....d$..D$..
 07b0 fa116c24 f4d84424 f4c5fa11 7424f4d8  ..l$..D$....t$..
 07c0 4424f4c5 fa117c24 f4d84424 f4c5fa11  D$....|$..D$....
 07d0 4c24f4d8 4424f449 39c10f85 50ffffff  L$..D$.I9...P...
 07e0 89c8d9c0 db3a83e0 f8489848 39c17632  .....:...H.H9.v2
 07f0 48c1e002 48c1e102 0f1f8400 00000000  H...H...........
 0800 c5fa1004 07c4c17a 59140048 83c004c5  .......zY..H....
 0810 fa115424 f4d84424 f44839c1 75e2db3a  ..T$..D$.H9.u..:
 0820 eb02dfc0 c366662e 0f1f8400 00000000  .....ff.........
 0830 f30f1efa 4989f048 85c90f84 14010000  ....I..H........
 0840 db2a4c8d 0ccdf8ff ffff4889 f84983e1  .*L.......H..I..
 0850 c04e8d4c 0f40662e 0f1f8400 00000000  .N.L.@f.........
 0860 c5fb1000 4883c040 4883c640 c5fb594e  ....H..@H..@..YN
 0870 c0c5fb10 40c8c5fb 5956c8c5 fb1040d0  ....@...YV....@.
 0880 c5fb595e d0c5fb10 40d8c5fb 5966d8c5  ..Y^....@...Yf..
 0890 fb1040e0 c5fb596e e0c5fb10 40e8c5fb  ..@...Yn....@...
 08a0 5976e8c5 fb1040f0 c5fb597e f0c5fb10  Yv....@...Y~....
 08b0 40f8c5fb 114c24f0 c5fb594e f8dc4424  @....L$...YN..D$
 08c0 f0c5fb11 5424f0dc 4424f0c5 fb115c24  ....T$..D$....\$
 08d0 f0dc4424 f0c5fb11 6424f0dc 4424f0c5  ..D$....d$..D$..
 08e0 fb116c24 f0dc4424 f0c5fb11 7424f0dc  ..l$..D$....t$..
 08f0 4424f0c5 fb117c24 f0dc4424 f0c5fb11  D$....|$..D$....
 0900 4c24f0dc 4424f049 39c10f85 50ffffff  L$..D$.I9...P...
 0910 89c8d9c0 db3a83e0 f8489848 39c17632  .....:...H.H9.v2
 0920 48c1e003 48c1e103 0f1f8400 00000000  H...H...........
 0930 c5fb1004 07c4c17b 59140048 83c008c5  .......{Y..H....
 0940 fb115424 f0dc4424 f04839c1 75e2db3a  ..T$..D$.H9.u..:
 0950 eb02dfc0 c366662e 0f1f8400 00000000  .....ff.........
 0960 f30f1efa 4989d249 89c94883 f9020f86  ....I..I..H.....
 0970 ac000000 488d41fd c5f1efc9 4889c2c5  ....H.A.....H...
 0980 f96fd948 c1ea0248 8d0c9504 00000031  .o.H...H.......1
 0990 d266662e 0f1f8400 00000000 0f1f4000  .ff...........@.
 09a0 c5fa6f2c 97c5fa6f 3497c4e2 51282496  ..o,...o4...Q($.
 09b0 c5fa6f3c 964883c2 04c5f973 d620c5e9  ..o<.H.....s. ..
 09c0 73d720c4 e27928c2 c5d9d4db c5f9d4c9  s. ..y(.........
 09d0 4839ca75 cb4883e0 fcc5f1d4 cb4883c0  H9.u.H.......H..
 09e0 04c4e1f9 7ec9c4e3 f916ca01 4801ca49  ....~.......H..I
 09f0 03124989 124939c1 7620660f 1f440000  ..I..I9.v f..D..
 0a00 48630c87 4c630486 48ffc049 0fafc848  Hc..Lc..H..I...H
 0a10 01ca4939 c175e949 8912c30f 1f440000  ..I9.u.I.....D..
 0a20 c5f1efc9 31c0ebb9                    ....1...        
Contents of section .rodata.str1.1:
 0000 25686864 00256864 00256400 25660025  %hhd.%hd.%d.%f.%
 0010 6c660044 6f742070 726f6475 63742074  lf.Dot product t
 0020 696d653a 20256620 7365636f 6e64730a  ime: %f seconds.
 0030 00446f74 2070726f 64756374 20726573  .Dot product res
 0040 756c743a 20256c6c 640a00             ult: %lld..     
Contents of section .rodata.str1.8:
 0000 4661696c 65642074 6f207265 61642069  Failed to read i
 0010 6e743820 74797065 2066726f 6d206669  nt8 type from fi
 0020 6c657374 7265616d 2e0a0000 00000000  lestream........
 0030 4661696c 65642074 6f207265 61642069  Failed to read i
 0040 6e743136 20747970 65206672 6f6d2066  nt16 type from f
 0050 696c6573 74726561 6d2e0a00 00000000  ilestream.......
 0060 4661696c 65642074 6f207265 61642069  Failed to read i
 0070 6e743332 20747970 65206672 6f6d2066  nt32 type from f
 0080 696c6573 74726561 6d2e0a00 00000000  ilestream.......
 0090 4661696c 65642074 6f207265 61642066  Failed to read f
 00a0 6c6f6174 33322074 79706520 66726f6d  loat32 type from
 00b0 2066696c 65737472 65616d2e 0a000000   filestream.....
 00c0 4661696c 65642074 6f207265 61642066  Failed to read f
 00d0 6c6f6174 36342074 79706520 66726f6d  loat64 type from
 00e0 2066696c 65737472 65616d2e 0a000000   filestream.....
 00f0 4661696c 65642074 6f20616c 6c6f6361  Failed to alloca
 0100 7465206d 656d6f72 7920666f 72207665  te memory for ve
 0110 63310a00 00000000 4661696c 65642074  c1......Failed t
 0120 6f20616c 6c6f6361 7465206d 656d6f72  o allocate memor
 0130 7920666f 72207665 63320a00 00000000  y for vec2......
 0140 53494d44 20446f74 2070726f 64756374  SIMD Dot product
 0150 2074696d 653a2025 66207365 636f6e64   time: %f second
 0160 730a0000 00000000 53494d44 20446f74  s.......SIMD Dot
 0170 2070726f 64756374 20726573 756c743a   product result:
 0180 20256c6c 640a00                       %lld..         
Contents of section .text.startup:
 0000 f30f1efa 41574156 415531ff 41545553  ....AWAVAU1.ATUS
 0010 4883ec18 64488b04 25280000 00488944  H...dH..%(...H.D
 0020 240831c0 e8000000 0089c7e8 00000000  $.1.............
 0030 be010000 00bf0084 d717e800 00000048  ...............H
 0040 85c00f84 00020000 4889c549 89c4488d  ........H..I..H.
 0050 980084d7 1766662e 0f1f8400 00000000  .....ff.........
 0060 e8000000 004983c4 0499c1ea 1e01d083  .....I..........
 0070 e00329d0 ffc84189 4424fc49 39dc75e0  ..)...A.D$.I9.u.
 0080 be010000 00bf0084 d717e800 00000049  ...............I
 0090 89c44885 c00f84d9 01000049 89c5488d  ..H........I..H.
 00a0 980084d7 1766662e 0f1f8400 00000000  .....ff.........
 00b0 e8000000 004983c5 0499c1ea 1e01d083  .....I..........
 00c0 e00329d0 ffc84189 45fc4c39 eb75e149  ..)...A.E.L9.u.I
 00d0 89e548c7 04240000 0000e800 000000b9  ..H..$..........
 00e0 00e1f505 4c89ea4c 89e64889 ef4889c3  ....L..L..H..H..
 00f0 e8000000 00e80000 0000c5f1 57c94829  ............W.H)
 0100 d84c8d3d 00000000 c4e1f32a c0c5fb5e  .L.=.......*...^
 0110 05000000 004c89fe bf010000 00b80100  .....L..........
 0120 00004c8d 35000000 00e80000 0000488b  ..L.5.........H.
 0130 14244c89 f6bf0100 000031c0 e8000000  .$L.......1.....
 0140 0048c704 24000000 00e80000 0000b900  .H..$...........
 0150 e1f5054c 89ea4c89 e64889ef 4889c345  ...L..L..H..H..E
 0160 31ede800 000000e8 00000000 c5f157c9  1.............W.
 0170 488d3500 00000048 29d8bf01 000000c4  H.5....H).......
 0180 e1f32ac0 c5fb5e05 00000000 b8010000  ..*...^.........
 0190 00e80000 0000488b 1424488d 35000000  ......H..$H.5...
 01a0 00bf0100 000031c0 e8000000 00e80000  ......1.........
 01b0 000031d2 4889c366 0f1f8400 00000000  ..1.H..f........
 01c0 8b449500 410faf04 9448ffc2 48984901  .D..A....H..H.I.
 01d0 c54881fa 00e1f505 75e6e800 000000c5  .H......u.......
 01e0 e957d24c 89febf01 00000048 29d8c4e1  .W.L.......H)...
 01f0 eb2ac0c5 fb5e0500 000000b8 01000000  .*...^..........
 0200 e8000000 004c89ea 4c89f6bf 01000000  .....L..L.......
 0210 31c0e800 00000048 89efe800 0000004c  1......H.......L
 0220 89e7e800 00000048 8b442408 64482b04  .......H.D$.dH+.
 0230 25280000 00753848 83c41831 c05b5d41  %(...u8H...1.[]A
 0240 5c415d41 5e415fc3 488b0d00 00000048  \A]A^A_.H......H
 0250 8d3d0000 0000ba23 000000be 01000000  .=.....#........
 0260 e8000000 00bf0100 0000e800 000000e8  ................
 0270 00000000 488b0d00 00000048 8d3d0000  ....H......H.=..
 0280 0000ba23 000000be 01000000 e8000000  ...#............
 0290 00bf0100 0000e800 000000             ...........     
Contents of section .rodata.cst8:
 0000 00000000 80842e41                    .......A        
Contents of section .debug_info:
 0000 f2180000 05000108 00000000 2f000000  ............/...
 0010 001d0000 00000000 00000000 00000000  ................
 0020 00000000 00000000 00000b08 04000000  ................
 0030 000b0805 00000000 08000000 00060719  ................
 0040 44000000 30000000 00d80531 08ae0100  D...0......1....
 0050 00030000 00003307 d8010000 00030000  ......3.........
 0060 00003609 22020000 08030000 00003709  ..6.".........7.
 0070 22020000 10030000 00003809 22020000  ".........8."...
 0080 18030000 00003909 22020000 20030000  ......9."... ...
 0090 00003a09 22020000 28030000 00003b09  ..:."...(.....;.
 00a0 22020000 30030000 00003c09 22020000  "...0.....<."...
 00b0 38030000 00003d09 22020000 40030000  8.....=."...@...
 00c0 00004009 22020000 48030000 00004109  ..@."...H.....A.
 00d0 22020000 50030000 00004209 22020000  "...P.....B."...
 00e0 58030000 00004416 6e020000 60030000  X.....D.n...`...
 00f0 00004614 73020000 68030000 00004807  ..F.s...h.....H.
 0100 d8010000 70030000 00004907 d8010000  ....p.....I.....
 0110 74030000 00004a0b f0010000 78030000  t.....J.....x...
 0120 00004d12 b5010000 80030000 00004e0f  ..M...........N.
 0130 ca010000 82030000 00004f08 78020000  ..........O.x...
 0140 83030000 0000510f 88020000 88030000  ......Q.........
 0150 0000590d fc010000 90030000 00005b17  ..Y...........[.
 0160 92020000 98030000 00005c19 9c020000  ..........\.....
 0170 a0030000 00005d14 73020000 a8030000  ......].s.......
 0180 00005e09 20020000 b0030000 00005f0a  ..^. ........._.
 0190 3f020000 b8030000 00006007 d8010000  ?.........`.....
 01a0 c0030000 00006208 a1020000 c4000b01  ......b.........
 01b0 08000000 000b0207 00000000 0b040700  ................
 01c0 0000000b 08070000 00000b01 06000000  ................
 01d0 000b0205 00000000 31040569 6e740020  ........1..int. 
 01e0 d8010000 08000000 00072c19 31000000  ..........,.1...
 01f0 08000000 00079819 31000000 08000000  ........1.......
 0200 0007991b 31000000 08000000 00079c1b  ....1...........
 0210 31000000 08000000 0007a01a 31000000  1...........1...
 0220 32080727 0200000b 01060000 00002027  2..'.......... '
 0230 02000008 00000000 08071308 02000008  ................
 0240 00000000 09d117c3 01000008 00000000  ................
 0250 0a0a1214 02000007 2e020000 26570200  ............&W..
 0260 00330000 0000052b 0e210000 00000769  .3.....+.!.....i
 0270 02000007 44000000 27270200 00880200  ....D...''......
 0280 0028c301 00000000 07610200 00210000  .(.......a...!..
 0290 0000078d 02000021 00000000 07970200  .......!........
 02a0 00272702 0000b102 000028c3 01000013  .''.......(.....
 02b0 00073800 000026b1 02000034 00000000  ..8...&....4....
 02c0 0e910eb1 0200000b 08050000 00000800  ................
 02d0 0000000b 1b13e401 00000b08 07000000  ................
 02e0 000b1004 00000000 0b040400 00000008  ................
 02f0 00000000 032913fb 0200001d c7020000  .....)..........
 0300 07030000 1e010008 00000000 032a1c13  .............*..
 0310 0300001d da020000 1f030000 1e010008  ................
 0320 00000000 032b0d2b 0300001d d8010000  .....+.+........
 0330 37030000 1e030008 00000000 03351343  7............5.C
 0340 0300001d c7020000 4f030000 1e010035  ........O......5
 0350 00000000 03391343 03000001 204f0300  .....9.C.... O..
 0360 001a6938 001e0e27 0200001a 69313600  ..i8...'....i16.
 0370 1f0fd101 00001a69 33320020 0dd80100  .......i32. ....
 0380 001a6633 3200210f e8020000 1a663634  ..f32.!......f64
 0390 0022102a 00000008 00000000 012313c7  .".*.........#..
 03a0 02000008 00000000 012415e1 02000022  .........$....."
 03b0 00000000 025f0cd8 010000cb 0300000d  ....._..........
 03c0 d8010000 0d570200 001b0029 00000000  .....W.....)....
 03d0 2b02dc03 00000d20 02000000 36000000  +...... ....6...
 03e0 000c4810 33020000 37000000 000dc601  ..H.3...7.......
 03f0 0cd80100 00380000 00000d1c 020e2002  .....8........ .
 0400 00000c04 00000d3f 02000000 29000000  .......?....)...
 0410 00c8011d 0400000d bc010000 00220000  ............."..
 0420 00000c4c 0f4b0200 00330400 000d3304  ...L.K...3....3.
 0430 00000007 4b020000 22000000 00025d0c  ....K...".....].
 0440 d8010000 59040000 0db60200 000dd801  ....Y...........
 0450 00000d5c 0200001b 00390000 00000d70  ...\.....9.....p
 0460 020d6c04 00000dd8 01000000 3a000000  ..l.........:...
 0470 000eb201 0c000000 00d80100 008d0400  ................
 0480 000db602 00000d5c 0200001b 003b0000  .......\.....;..
 0490 0000013b 0105d801 00000000 00000000  ...;............
 04a0 00009b02 00000000 0000019c e2090000  ................
 04b0 3c000000 00013e01 0c3f0200 0000e1f5  <.....>..?......
 04c0 05160000 00003f01 0ae20900 00000000  ......?.........
 04d0 00000000 00160000 00004301 0ae20900  ..........C.....
 04e0 00000000 00000000 003d0000 00000147  .........=.....G
 04f0 010e9703 00000391 b07f1600 00000048  ...............H
 0500 010d3302 00000000 00000000 00002365  ..3...........#e
 0510 6e64004a 010d3302 00000000 00000000  nd.J..3.........
 0520 00001600 0000004b 010c2a00 00000000  .......K..*.....
 0530 00000000 00002a00 00000000 00000035  ......*........5
 0540 00000000 0000006b 05000023 69004001  .......k...#i.@.
 0550 113f0200 00000000 00000000 00110000  .?..............
 0560 00000000 0000e803 0000002a 00000000  ...........*....
 0570 00000000 34000000 00000000 a0050000  ....4...........
 0580 23690044 01113f02 00000000 00000000  #i.D..?.........
 0590 00001100 00000000 000000e8 03000000  ................
 05a0 14391800 00000000 00000000 00020000  .9..............
 05b0 00004c01 05e00500 00024818 00000000  ..L.......H.....
 05c0 00000000 00000500 00000000 000000af  ................
 05d0 03000001 01550131 01015402 7f000000  .....U.1..T.....
 05e0 14391800 00000000 00000000 00020000  .9..............
 05f0 00004d01 05200600 00024818 00000000  ..M.. ....H.....
 0600 00000000 00000500 00000000 000000af  ................
 0610 03000001 01550131 01015402 7e000000  .....U.1..T.~...
 0620 14391800 00000000 00000000 00020000  .9..............
 0630 00005401 05670600 00024818 00000000  ..T..g....H.....
 0640 00000000 00000500 00000000 000000af  ................
 0650 03000001 01550131 01015409 03000000  .....U.1..T.....
 0660 00000000 00000017 39180000 00000000  ........9.......
 0670 00000000 02000000 00000000 00170000  ................
 0680 00000000 00550105 ba060000 02481800  .....U.......H..
 0690 00000000 00000000 00050000 00000000  ................
 06a0 0000af03 00000101 55013101 01540903  ........U.1..T..
 06b0 00000000 00000000 00001410 11000000  ................
 06c0 00000000 00000001 00000000 5901051f  ............Y...
 06d0 07000002 3b110000 00000000 00000000  ....;...........
 06e0 022f1100 00000000 00000000 00022611  ./............&.
 06f0 00000000 00000000 0000021d 11000000  ................
 0700 00000000 0000003e 47110000 00000000  .......>G.......
 0710 2b481100 00000000 00000000 00000014  +H..............
 0720 39180000 00000000 00000000 02000000  9...............
 0730 005c0105 5f070000 02481800 00000000  .\.._....H......
 0740 00000000 00050000 00000000 0000af03  ................
 0750 00000101 55013101 0154027f 00000017  ....U.1..T......
 0760 39180000 00000000 00000000 02000000  9...............
 0770 00000000 00120000 00000000 005d0105  .............]..
 0780 b1070000 02481800 00000000 00000000  .....H..........
 0790 00050000 00000000 0000af03 00000101  ................
 07a0 55013101 0154027e 00010151 027d0000  U.1..T.~...Q.}..
 07b0 00175618 00000000 00000000 00000100  ..V.............
 07c0 00000000 0000001d 00000000 0000003f  ...............?
 07d0 01110f08 00000271 18000000 00000000  .......q........
 07e0 0000000e 65180000 05000000 00000000  ....e...........
 07f0 00da1800 00010155 09030000 00000000  .......U........
 0800 00000101 54013101 01510208 23000017  ....T.1..Q..#...
 0810 56180000 00000000 00000000 01000000  V...............
 0820 00000000 001d0000 00000000 00430111  .............C..
 0830 6d080000 02711800 00000000 00000000  m....q..........
 0840 000e6518 00000500 00000000 000000da  ..e.............
 0850 18000001 01550903 00000000 00000000  .....U..........
 0860 01015401 31010151 02082300 000c0000  ..T.1..Q..#.....
 0870 00000000 00001d04 00008408 00000101  ................
 0880 55013000 11000000 00000000 000c0400  U.0.............
 0890 000c0000 00000000 0000e318 0000b108  ................
 08a0 00000101 55050c00 84d71701 01540131  ....U........T.1
 08b0 000c0000 00000000 0000e318 0000d108  ................
 08c0 00000101 55050c00 84d71701 01540131  ....U........T.1
 08d0 00110000 00000000 0000dc03 00000c00  ................
 08e0 00000000 00000061 0e00000b 09000001  .......a........
 08f0 01550275 00010154 027c0001 0151027d  .U.u...T.|...Q.}
 0900 00010152 050c00e1 f5050011 00000000  ...R............
 0910 00000000 dc030000 11000000 00000000  ................
 0920 00dc0300 000c0000 00000000 0000e709  ................
 0930 00005309 00000101 55027500 01015402  ..S.....U.u...T.
 0940 7c000101 510391b0 7f010152 050c00e1  |...Q......R....
 0950 f5050011 00000000 00000000 dc030000  ................
 0960 11000000 00000000 00dc0300 00110000  ................
 0970 00000000 0000dc03 00000c00 00000000  ................
 0980 000000cb 03000092 09000001 01550276  .............U.v
 0990 00000c00 00000000 000000cb 030000aa  ................
 09a0 09000001 0155027c 00000c00 00000000  .....U.|........
 09b0 00000059 040000c1 09000001 01550131  ...Y.........U.1
 09c0 00110000 00000000 0000ec18 00000500  ................
 09d0 00000000 00000059 04000001 01550131  .......Y.....U.1
 09e0 00000776 03000009 00000000 ec000000  ...v............
 09f0 00000000 00c80000 00000000 00019c37  ...............7
 0a00 0d00000f 6100ec1c e2090000 01550f62  ....a........U.b
 0a10 00ec24e2 09000001 540a0000 0000ec31  ..$.....T......1
 0a20 370d0000 00000000 00000000 0a000000  7...............
 0a30 00ec403f 02000000 00000000 00000004  ..@?............
 0a40 6c6f00ef 11370300 00000000 00000000  lo...7..........
 0a50 00046869 00f01137 03000000 00000000  ..hi...7........
 0a60 00000004 6900f310 3f020000 00000000  ....i...?.......
 0a70 00000000 19000000 00a60c00 00047661  ..............va
 0a80 00f61537 03000000 00000000 00000004  ...7............
 0a90 766200f7 15370300 00000000 00000000  vb...7..........
 0aa0 003f0000 000001fd 15370300 00000000  .?.......7......
 0ab0 00000000 00160000 00000001 15370300  .............7..
 0ac0 00000000 00000000 00160000 00000101  ................
 0ad0 15370300 00000000 00000000 00160000  .7..............
 0ae0 00000401 15370300 00000000 00000000  .....7..........
 0af0 0018e217 00000000 00000000 00000100  ................
 0b00 00000000 00000000 00000000 000000f6  ................
 0b10 1a230b00 0002f217 00000000 00000000  .#..............
 0b20 00000018 e2170000 00000000 00000000  ................
 0b30 05000000 00000000 00000000 00000000  ................
 0b40 00f71a55 0b000002 f2170000 00000000  ...U............
 0b50 00000000 00405317 00000000 00000000  .....@S.........
 0b60 00000900 00000001 fd1f890b 00000270  ...............p
 0b70 17000000 00000000 00000002 63170000  ............c...
 0b80 00000000 00000000 00147e17 00000000  ..........~.....
 0b90 00000000 00000200 00000000 011fbd0b  ................
 0ba0 0000029b 17000000 00000000 00000002  ................
 0bb0 8e170000 00000000 00000000 00147e17  ..............~.
 0bc0 00000000 00000000 00000200 00000001  ................
 0bd0 011fe90b 0000029b 17000000 00000000  ................
 0be0 0000000e 8e170000 00175317 00000000  ..........S.....
 0bf0 00000000 00000200 00000000 00000005  ................
 0c00 00000000 00000004 0120290c 00000270  ......... )....p
 0c10 17000000 00000000 00000002 63170000  ............c...
 0c20 00000000 00000000 0017a917 00000000  ................
 0c30 00000000 00000200 00000000 00000004  ................
 0c40 00000000 00000006 0112690c 000002c6  ..........i.....
 0c50 17000000 00000000 00000002 b9170000  ................
 0c60 00000000 00000000 002ca917 00000000  .........,......
 0c70 00000000 00000200 00000000 00000004  ................
 0c80 00000000 00000007 011202c6 17000000  ................
 0c90 00000000 00000002 b9170000 00000000  ................
 0ca0 00000000 000014a9 17000000 00000000  ................
 0cb0 00000001 00000000 0a010eca 0c00000e  ................
 0cc0 c6170000 0eb91700 00001728 17000000  ...........(....
 0cd0 00000000 00000005 00000000 00000000  ................
 0ce0 05000000 00000000 0d011402 0d000002  ................
 0cf0 45170000 00000000 00000000 0e381700  E............8..
 0d00 00002c28 17000000 00000000 00000001  ..,(............
 0d10 00000000 00000000 06000000 00000000  ................
 0d20 0d012f02 45170000 00000000 00000000  ../.E...........
 0d30 0e381700 00000007 97030000 09000000  .8..............
 0d40 00da0000 00000000 00002501 00000000  ..........%.....
 0d50 0000019c c70d0000 0f6100da 21c70d00  .........a..!...
 0d60 00015506 6200da29 c70d0000 00000000  ..U.b..)........
 0d70 00000000 12000000 00da36cc 0d000001  ..........6.....
 0d80 510a0000 0000da45 3f020000 00000000  Q......E?.......
 0d90 00000000 19000000 00af0d00 00046900  ..............i.
 0da0 db0ed801 00000000 00000000 00000010  ................
 0db0 00000000 046900e7 0ed80100 00000000  .....i..........
 0dc0 00000000 00000007 8c030000 07a30300  ................
 0dd0 00090000 0000c800 00000000 00000025  ...............%
 0de0 01000000 00000001 9c5c0e00 000f6100  .........\....a.
 0df0 c8215c0e 00000155 066200c8 295c0e00  .!\....U.b..)\..
 0e00 00000000 00000000 00120000 0000c836  ...............6
 0e10 cc0d0000 01510a00 000000c8 453f0200  .....Q......E?..
 0e20 00000000 00000000 00190000 0000440e  ..............D.
 0e30 00000469 00c90ed8 01000000 00000000  ...i............
 0e40 00000000 10000000 00046900 d50ed801  ..........i.....
 0e50 00000000 00000000 00000000 07810300  ................
 0e60 00090000 0000b600 00000000 000000ea  ................
 0e70 00000000 00000001 9cf20e00 000f6100  ..............a.
 0e80 b621e209 00000155 066200b6 29e20900  .!.....U.b..)...
 0e90 00000000 00000000 000a0000 0000b636  ...............6
 0ea0 370d0000 00000000 00000000 0a000000  7...............
 0eb0 00b6453f 02000000 00000000 00000019  ..E?............
 0ec0 00000000 da0e0000 046900b7 0ed80100  .........i......
 0ed0 00000000 00000000 00001000 00000004  ................
 0ee0 6900c30e d8010000 00000000 00000000  i...............
 0ef0 00000900 000000a4 00000000 00000000  ................
 0f00 11010000 00000000 019c830f 00000f61  ...............a
 0f10 00a42183 0f000001 55066200 a429830f  ..!.....U.b..)..
 0f20 00000000 00000000 00000a00 000000a4  ................
 0f30 36370d00 00000000 00000000 000a0000  67..............
 0f40 0000a445 3f020000 00000000 00000000  ...E?...........
 0f50 19000000 006b0f00 00046900 a50ed801  .....k....i.....
 0f60 00000000 00000000 00000010 00000000  ................
 0f70 046900b1 0ed80100 00000000 00000000  .i..............
 0f80 00000007 6b030000 09000000 00920000  ....k...........
 0f90 00000000 00001101 00000000 0000019c  ................
 0fa0 2b100000 06610092 1f2b1000 00000000  +....a...+......
 0fb0 00000000 00066200 92262b10 00000000  ......b..&+.....
 0fc0 00000000 00000a00 00000092 33370d00  ............37..
 0fd0 00000000 00000000 000a0000 00009242  ...............B
 0fe0 3f020000 00000000 00000000 19000000  ?...............
 0ff0 00071000 00046900 930ed801 00000000  ......i.........
 1000 00000000 00000024 00000000 00000000  .......$........
 1010 33000000 00000000 0469009f 0ed80100  3........i......
 1020 00000000 00000000 00000007 61030000  ............a...
 1030 09000000 008c0000 00000000 00002f00  ............../.
 1040 00000000 0000019c a0100000 0f61008c  .............a..
 1050 20c70d00 0001550f 62008c28 c70d0000   .....U.b..(....
 1060 01541200 0000008c 35cc0d00 00015112  .T......5.....Q.
 1070 00000000 8c443f02 00000152 24000000  .....D?....R$...
 1080 00000000 002a0000 00000000 00046900  .....*........i.
 1090 8d113f02 00000000 00000000 00000000  ..?.............
 10a0 09000000 00870000 00000000 00002f00  ............../.
 10b0 00000000 0000019c 10110000 0f610087  .............a..
 10c0 205c0e00 0001550f 62008728 5c0e0000   \....U.b..(\...
 10d0 01541200 00000087 35cc0d00 00015112  .T......5.....Q.
 10e0 00000000 87443f02 00000152 24000000  .....D?....R$...
 10f0 00000000 002a0000 00000000 00046900  .....*........i.
 1100 88113f02 00000000 00000000 00000000  ..?.............
 1110 41000000 00018206 01541100 002d6100  A........T...-a.
 1120 8220e209 00002d62 008228e2 09000015  . ....-b..(.....
 1130 00000000 01823537 0d000015 00000000  ......57........
 1140 0182443f 02000042 43690001 83113f02  ..D?...BCi....?.
 1150 00000000 09000000 007d0000 00000000  .........}......
 1160 00003f00 00000000 0000019c be110000  ..?.............
 1170 0661007d 20830f00 00000000 00000000  .a.} ...........
 1180 000f6200 7d28830f 00000154 12000000  ..b.}(.....T....
 1190 007d3537 0d000001 51120000 00007d44  .}57....Q.....}D
 11a0 3f020000 01521000 00000004 69007e11  ?....R......i.~.
 11b0 3f020000 00000000 00000000 00000900  ?...............
 11c0 00000077 00000000 00000000 3f000000  ...w........?...
 11d0 00000000 019c2812 00000661 00771e2b  ......(....a.w.+
 11e0 10000000 00000000 0000000f 62007725  ............b.w%
 11f0 2b100000 01541200 00000077 32370d00  +....T.....w27..
 1200 00015112 00000000 77413f02 00000152  ..Q.....wA?....R
 1210 10000000 00046900 78113f02 00000000  ......i.x.?.....
 1220 00000000 00000000 09000000 006e0000  .............n..
 1230 00000000 00008200 00000000 0000019c  ................
 1240 28130000 06667000 6e23b102 00000000  (....fp.n#......
 1250 00000000 00000676 6563006e 2cc70d00  .......vec.n,...
 1260 00000000 00000000 000a0000 00006e38  ..............n8
 1270 3f020000 00000000 00000000 10000000  ?...............
 1280 00046900 6f113f02 00000000 00000000  ..i.o.?.........
 1290 00001856 18000000 00000000 00000001  ...V............
 12a0 00000000 00000000 1d000000 00000000  ................
 12b0 710def12 00000271 18000000 00000000  q......q........
 12c0 0000000e 65180000 05000000 00000000  ....e...........
 12d0 00da1800 00010155 09030000 00000000  .......U........
 12e0 00000101 54013101 01510208 2d00000c  ....T.1..Q..-...
 12f0 00000000 00000000 6c040000 13130000  ........l.......
 1300 01015502 7c000101 54027e00 01015102  ..U.|...T.~...Q.
 1310 73000005 00000000 00000000 59040000  s...........Y...
 1320 01015501 31000000 09000000 00650000  ..U.1........e..
 1330 00000000 00008200 00000000 0000019c  ................
 1340 28140000 06667000 6523b102 00000000  (....fp.e#......
 1350 00000000 00000676 65630065 2c5c0e00  .......vec.e,\..
 1360 00000000 00000000 000a0000 00006538  ..............e8
 1370 3f020000 00000000 00000000 10000000  ?...............
 1380 00046900 66113f02 00000000 00000000  ..i.f.?.........
 1390 00001856 18000000 00000000 00000001  ...V............
 13a0 00000000 00000000 1d000000 00000000  ................
 13b0 680def13 00000271 18000000 00000000  h......q........
 13c0 0000000e 65180000 05000000 00000000  ....e...........
 13d0 00da1800 00010155 09030000 00000000  .......U........
 13e0 00000101 54013101 01510208 2d00000c  ....T.1..Q..-...
 13f0 00000000 00000000 6c040000 13140000  ........l.......
 1400 01015502 7c000101 54027e00 01015102  ..U.|...T.~...Q.
 1410 73000005 00000000 00000000 59040000  s...........Y...
 1420 01015501 31000000 09000000 005c0000  ..U.1........\..
 1430 00000000 00008200 00000000 0000019c  ................
 1440 28150000 06667000 5c23b102 00000000  (....fp.\#......
 1450 00000000 00000676 6563005c 2ce20900  .......vec.\,...
 1460 00000000 00000000 000a0000 00005c38  ..............\8
 1470 3f020000 00000000 00000000 10000000  ?...............
 1480 00046900 5d113f02 00000000 00000000  ..i.].?.........
 1490 00001856 18000000 00000000 00000001  ...V............
 14a0 00000000 00000000 1d000000 00000000  ................
 14b0 5f0def14 00000271 18000000 00000000  _......q........
 14c0 0000000e 65180000 05000000 00000000  ....e...........
 14d0 00da1800 00010155 09030000 00000000  .......U........
 14e0 00000101 54013101 01510208 2b00000c  ....T.1..Q..+...
 14f0 00000000 00000000 6c040000 13150000  ........l.......
 1500 01015502 7c000101 54027e00 01015102  ..U.|...T.~...Q.
 1510 73000005 00000000 00000000 59040000  s...........Y...
 1520 01015501 31000000 09000000 00530000  ..U.1........S..
 1530 00000000 00008200 00000000 0000019c  ................
 1540 28160000 06667000 5323b102 00000000  (....fp.S#......
 1550 00000000 00000676 65630053 2c830f00  .......vec.S,...
 1560 00000000 00000000 000a0000 00005338  ..............S8
 1570 3f020000 00000000 00000000 10000000  ?...............
 1580 00046900 54113f02 00000000 00000000  ..i.T.?.........
 1590 00001856 18000000 00000000 00000001  ...V............
 15a0 00000000 00000000 1d000000 00000000  ................
 15b0 560def15 00000271 18000000 00000000  V......q........
 15c0 0000000e 65180000 05000000 00000000  ....e...........
 15d0 00da1800 00010155 09030000 00000000  .......U........
 15e0 00000101 54013101 01510208 2b00000c  ....T.1..Q..+...
 15f0 00000000 00000000 6c040000 13160000  ........l.......
 1600 01015502 7c000101 54027e00 01015102  ..U.|...T.~...Q.
 1610 73000005 00000000 00000000 59040000  s...........Y...
 1620 01015501 31000000 09000000 004a0000  ..U.1........J..
 1630 00000000 00008000 00000000 0000019c  ................
 1640 28170000 06667000 4a22b102 00000000  (....fp.J"......
 1650 00000000 00000676 6563004a 2a2b1000  .......vec.J*+..
 1660 00000000 00000000 000a0000 00004a36  ..............J6
 1670 3f020000 00000000 00000000 10000000  ?...............
 1680 00046900 4b113f02 00000000 00000000  ..i.K.?.........
 1690 00001856 18000000 00000000 00000001  ...V............
 16a0 00000000 00000000 1d000000 00000000  ................
 16b0 4d0def16 00000271 18000000 00000000  M......q........
 16c0 0000000e 65180000 05000000 00000000  ....e...........
 16d0 00da1800 00010155 09030000 00000000  .......U........
 16e0 00000101 54013101 01510208 2a00000c  ....T.1..Q..*...
 16f0 00000000 00000000 6c040000 13170000  ........l.......
 1700 01015502 7c000101 54027d00 01015102  ..U.|...T.}...Q.
 1710 73000005 00000000 00000000 59040000  s...........Y...
 1720 01015501 31000000 1c000000 0004c701  ..U.1...........
 1730 c7020000 53170000 135f5f58 0004c701  ....S....__X....
 1740 1c370300 00135f5f 4e0004c7 012bdf01  .7....__N....+..
 1750 0000001c 00000000 044e0137 0300007e  .........N.7...~
 1760 17000013 5f5f5800 044e0118 37030000  ....__X..N..7...
 1770 135f5f59 00044e01 25370300 00001c00  .__Y..N.%7......
 1780 00000003 e7043703 0000a917 0000135f  ......7........_
 1790 5f410003 e7041937 03000013 5f5f4200  _A.....7....__B.
 17a0 03e70422 d8010000 001c0000 0000032e  ..."............
 17b0 04370300 00d41700 00135f5f 4100032e  .7........__A...
 17c0 04183703 0000135f 5f420003 2e042537  ..7....__B....%7
 17d0 03000000 44000000 00031a03 01370300  ....D........7..
 17e0 00031c00 00000003 bd023703 00000018  ..........7.....
 17f0 0000135f 5f500003 bd022300 18000000  ...__P....#.....
 1800 075c0300 00250000 00000f39 20020000  .\...%.....9 ...
 1810 39180000 15000000 000f3901 20020000  9.........9. ...
 1820 15000000 000f3901 d8010000 15000000  ......9.........
 1830 000f3901 3f020000 00250000 0000026e  ..9.?....%.....n
 1840 d8010000 56180000 15000000 00026e20  ....V.........n 
 1850 5c020000 1b002500 00000002 67d80100  \.....%.....g...
 1860 007f1800 00150000 00000267 1bb60200  ...........g....
 1870 00150000 00000267 3c5c0200 001b0045  .......g<\.....E
 1880 10110000 00000000 00000000 2a000000  ............*...
 1890 00000000 019cda18 00001f1d 11000001  ................
 18a0 551f2611 00000154 1f2f1100 0001511f  U.&....T./....Q.
 18b0 3b110000 01524647 11000000 00000000  ;....RFG........
 18c0 00000025 00000000 0000002b 48110000  ...%.......+H...
 18d0 00000000 00000000 00002e00 00000000  ................
 18e0 0000002e 00000000 00000000 47000000  ............G...
 18f0 00000000 0000                        ......          
Contents of section .debug_abbrev:
 0000 01490002 187e1800 00020500 31130217  .I...~......1...
 0010 b7421700 00030d00 030e3a21 053b0b39  .B........:!.;.9
 0020 0b491338 0b000004 34000308 3a21013b  .I.8....4...:!.;
 0030 0b390b49 130217b7 42170000 0548017d  .9.I....B....H.}
 0040 017f1300 00060500 03083a21 013b0b39  ..........:!.;.9
 0050 0b491302 17b74217 0000070f 000b2108  .I....B.......!.
 0060 49130000 08160003 0e3a0b3b 0b390b49  I........:.;.9.I
 0070 13000009 2e013f19 030e3a21 013b0b39  ......?...:!.;.9
 0080 21062719 11011207 40187a19 01130000  !.'.....@.z.....
 0090 0a050003 0e3a2101 3b0b390b 49130217  .....:!.;.9.I...
 00a0 b7421700 000b2400 0b0b3e0b 030e0000  .B....$...>.....
 00b0 0c48017d 017f1301 1300000d 05004913  .H.}..........I.
 00c0 00000e05 00311300 000f0500 03083a21  .....1........:!
 00d0 013b0b39 0b491302 18000010 0b015517  .;.9.I........U.
 00e0 00001148 007d017f 13000012 0500030e  ...H.}..........
 00f0 3a21013b 0b390b49 13021800 00130500  :!.;.9.I........
 0100 03083a0b 3b05390b 49130000 141d0131  ..:.;.9.I......1
 0110 135201b8 420b5517 58210159 05570b01  .R..B.U.X!.Y.W..
 0120 13000015 0500030e 3a0b3b0b 390b4913  ........:.;.9.I.
 0130 00001634 00030e3a 21013b05 390b4913  ...4...:!.;.9.I.
 0140 0217b742 17000017 1d013113 5201b842  ...B......1.R..B
 0150 0b110112 07582101 5905570b 01130000  .....X!.Y.W.....
 0160 181d0131 135201b8 420b1101 12075821  ...1.R..B.....X!
 0170 01590b57 0b011300 00190b01 55170113  .Y.W........U...
 0180 00001a16 0003083a 21013b0b 390b4913  .......:!.;.9.I.
 0190 00001b18 0000001c 2e013f19 030e3a0b  ..........?...:.
 01a0 3b053921 01271949 13202103 34190113  ;.9!.'.I. !.4...
 01b0 00001d01 01874219 49130113 00001e21  ......B.I......!
 01c0 002f0b00 001f0500 31130218 00002026  ./......1..... &
 01d0 00491300 00211300 030e3c19 0000222e  .I...!....<...".
 01e0 013f1903 0e3a0b3b 0b390b27 1949133c  .?...:.;.9.'.I.<
 01f0 19011300 00233400 03083a21 013b0539  .....#4...:!.;.9
 0200 0b491302 17b74217 0000240b 01110112  .I....B...$.....
 0210 07000025 2e013f19 030e3a0b 3b0b3921  ...%..?...:.;.9!
 0220 01271949 13202103 34190113 00002637  .'.I. !.4.....&7
 0230 00491300 00270101 49130113 00002821  .I...'..I.....(!
 0240 0049132f 0b000029 2e013f19 030e3a21  .I./...)..?...:!
 0250 0d3b0539 210d2719 3c190113 00002a0b  .;.9!.'.<.....*.
 0260 01110112 07011300 002b3400 31130217  .........+4.1...
 0270 b7421700 002c1d01 31135201 b8420b11  .B...,..1.R..B..
 0280 01120758 21015905 570b0000 2d050003  ...X!.Y.W...-...
 0290 083a2101 3b0b390b 49130000 2e2e003f  .:!.;.9.I......?
 02a0 193c196e 0e030e3a 21103b21 0000002f  .<.n...:!.;!.../
 02b0 1101250e 130b031f 1b1f5517 11011017  ..%.......U.....
 02c0 00003013 01030e0b 0b3a0b3b 0b390b01  ..0......:.;.9..
 02d0 13000031 24000b0b 3e0b0308 0000320f  ...1$...>.....2.
 02e0 000b0b00 00331600 030e3a0b 3b0b390b  .....3....:.;.9.
 02f0 00003434 00030e3a 0b3b0b39 0b49133f  ..44...:.;.9.I.?
 0300 193c1900 00351600 030e3a0b 3b0b390b  .<...5....:.;.9.
 0310 49138801 0b000036 2e003f19 030e3a0b  I......6..?...:.
 0320 3b0b390b 27194913 3c190000 372e003f  ;.9.'.I.<...7..?
 0330 19030e3a 0b3b0539 0b271949 133c1900  ...:.;.9.'.I.<..
 0340 00382e01 3f19030e 3a0b3b05 390b2719  .8..?...:.;.9.'.
 0350 49133c19 01130000 392e013f 19030e3a  I.<.....9..?...:
 0360 0b3b0539 0b271987 01193c19 01130000  .;.9.'....<.....
 0370 3a2e013f 19030e3a 0b3b0539 0b6e0e27  :..?...:.;.9.n.'
 0380 1949133c 19011300 003b2e01 3f19030e  .I.<.....;..?...
 0390 3a0b3b05 390b4913 11011207 40187a19  :.;.9.I.....@.z.
 03a0 01130000 3c340003 0e3a0b3b 05390b49  ....<4...:.;.9.I
 03b0 131c0600 003d3400 030e3a0b 3b05390b  .....=4...:.;.9.
 03c0 49130218 00003e0b 01311355 1700003f  I.....>..1.U...?
 03d0 3400030e 3a0b3b0b 390b4913 0217b742  4...:.;.9.I....B
 03e0 17000040 1d013113 5201b842 0b551758  ...@..1.R..B.U.X
 03f0 0b590b57 0b011300 00412e01 3f19030e  .Y.W.....A..?...
 0400 3a0b3b0b 390b2719 200b0113 0000420b  :.;.9.'. .....B.
 0410 01000043 34000308 3a0b3b0b 390b4913  ...C4...:.;.9.I.
 0420 0000442e 003f1903 0e3a0b3b 05390b27  ..D..?...:.;.9.'
 0430 19491320 0b341900 00452e01 31131101  .I. .4...E..1...
 0440 12074018 7a190113 0000460b 01311311  ..@.z.....F..1..
 0450 01120700 00472e00 3f193c19 6e0e030e  .....G..?.<.n...
 0460 000000                               ...             
Contents of section .debug_loclists:
 0000 970d0000 05000800 00000000 00000000  ................
 0010 00000000 06000000 00000000 00040016  ................
 0020 01500416 80040156 048904a5 04015004  .P.....V......P.
 0030 b004dc04 01560000 00000000 00000000  .....V..........
 0040 00060000 00000000 00000400 13015004  ..............P.
 0050 13af0301 5c04dd03 e203015c 04e203fe  ....\......\....
 0060 03015004 fe038904 015c0000 00000000  ..P......\......
 0070 00000000 00000000 00060000 00000000  ................
 0080 00000400 04015004 046f0153 046f7601  ......P..o.S.ov.
 0090 500476c7 01015304 c701c701 015004c7  P.v...S......P..
 00a0 01ce0201 5304ff02 84030153 00000000  ....S......S....
 00b0 00000006 00000000 00000000 04000701  ................
 00c0 50047280 01015004 e501f401 01500001  P.r...P......P..
 00d0 00010001 00060000 00000000 00000400  ................
 00e0 07167000 73001ca8 31a82aa4 2a080000  ..p.s...1.*.*...
 00f0 00008084 2e411b9f 04728001 16700073  .....A...r...p.s
 0100 001ca831 a82aa42a 08000000 0080842e  ...1.*.*........
 0110 411b9f04 e501f401 16700073 001ca831  A........p.s...1
 0120 a82aa42a 08000000 0080842e 411b9f00  .*.*........A...
 0130 04000800 00000000 0000000a 02309f00  .............0..
 0140 04000800 00000000 0000000a 02309f00  .............0..
 0150 02000800 00000000 00000034 0a030000  ...........4....
 0160 00000000 00009f00 02000800 00000000  ................
 0170 00000013 0a030000 00000000 00009f00  ................
 0180 02000800 00000000 0000002a 0a030000  ...........*....
 0190 00000000 00009f00 02000800 00000000  ................
 01a0 00000017 0a030000 00000000 00009f00  ................
 01b0 01000800 00000000 00000023 060c00e1  ...........#....
 01c0 f5059f00 01000800 00000000 00000023  ...............#
 01d0 0491b07f 9f000100 08000000 00000000  ................
 01e0 0023015c 00010008 00000000 00000000  .#.\............
 01f0 23015600 02000000 00010100 06000000  #.V.............
 0200 00000000 00040000 02309f04 00150151  .........0.....Q
 0210 04151a03 717f9f04 1a230151 00020008  ....q....#.Q....
 0220 00000000 00000000 260a0300 00000000  ........&.......
 0230 0000009f 00020008 00000000 00000000  ................
 0240 120a0300 00000000 0000009f 00010008  ................
 0250 00000000 00000000 1d0a0300 00000000  ................
 0260 0000009f 00010008 00000000 00000000  ................
 0270 1d0a0300 00000000 0000009f 00000000  ................
 0280 00000006 00000000 00000000 04001f01  ................
 0290 51041fbb 01015a04 bb01c801 01510000  Q.....Z......Q..
 02a0 00000000 00060000 00000000 00000400  ................
 02b0 2f015204 2fbb0101 5904bb01 c8010152  /.R./...Y......R
 02c0 00000008 00000000 00000000 50016400  ............P.d.
 02d0 00000800 00000000 0000004c 01620003  ...........L.b..
 02e0 00000000 02020001 00000101 00000006  ................
 02f0 00000000 00000000 04002d02 309f042d  ..........-.0..-
 0300 55015104 556c0371 7c9f046c 7d015104  U.Q.Ul.q|..l}.Q.
 0310 9101a701 015004a7 01ae0103 707f9f04  .....P......p...
 0320 ae01b701 015004b7 01c40102 309f0003  .....P......0...
 0330 00000006 00000000 00000000 04002807  ..............(.
 0340 71003224 75002204 28500167 00070000  q.2$u.".(P.g....
 0350 00060000 00000000 00000400 28077100  ............(.q.
 0360 32247400 22042850 01680000 00080000  2$t.".(P.h......
 0370 00000000 00003101 65000000 08000000  ......1.e.......
 0380 00000000 000a0161 00000008 00000000  .......a........
 0390 00000000 1e016300 00000800 00000000  ......c.........
 03a0 00000019 01610001 03080000 00000000  .....a..........
 03b0 00000008 71003224 7500229f 00050708  ....q.2$u.".....
 03c0 00000000 00000000 00087100 32247400  ..........q.2$t.
 03d0 229f0009 00080000 00000000 00001f07  "...............
 03e0 71003224 74002200 09000800 00000000  q.2$t.".........
 03f0 0000001f 07710032 24750022 00020008  .....q.2$u."....
 0400 00000000 00000000 0e030820 9f000200  ........... ....
 0410 00000600 00000000 00000004 00090771  ...............q
 0420 00322475 00220409 0e016700 02000800  .2$u."....g.....
 0430 00000000 00000005 0308209f 00020008  .......... .....
 0440 00000000 00000000 05016300 02000800  ..........c.....
 0450 00000000 00000005 01610002 00080000  .........a......
 0460 00000000 00000401 65000200 08000000  ........e.......
 0470 00000000 00040164 00020008 00000000  .......d........
 0480 00000000 04016100 02000800 00000000  ......a.........
 0490 00000004 01620005 00080000 00000000  .....b..........
 04a0 00000502 309f0000 00080000 00000000  ....0...........
 04b0 00000602 319f0000 00000006 00000000  ....1...........
 04c0 00000000 04002601 540426a5 02015800  ......&.T.&...X.
 04d0 00000000 00000000 06000000 00000000  ................
 04e0 000400f8 01015204 f801a202 04a30152  ......R........R
 04f0 9f04a202 a4020152 04a402a5 0204a301  .......R........
 0500 529f0002 00000000 01060000 00000000  R...............
 0510 00000400 2202309f 04223408 70007500  ....".0.."4.p.u.
 0520 1c33259f 0434d301 0b700075 001c0840  .3%..4...p.u...@
 0530 1c33259f 00020000 00000000 00060000  .3%.............
 0540 00000000 00000400 03067000 09f81a9f  ..........p.....
 0550 04030e01 50040e12 06720009 f81a9f04  ....P....r......
 0560 3c3e0150 00000000 00060000 00000000  <>.P............
 0570 00000400 26015404 26a50201 58000000  ....&.T.&...X...
 0580 00000000 00000600 00000000 00000004  ................
 0590 00f80101 5204f801 a20204a3 01529f04  ....R........R..
 05a0 a202a402 015204a4 02a50204 a301529f  .....R........R.
 05b0 00020000 00000106 00000000 00000000  ................
 05c0 04002202 309f0422 34087000 75001c32  ..".0.."4.p.u..2
 05d0 259f0434 d3010b70 0075001c 08201c32  %..4...p.u... .2
 05e0 259f0002 00000000 00000006 00000000  %...............
 05f0 00000000 04000306 700009f8 1a9f0403  ........p.......
 0600 0e015004 0e120672 0009f81a 9f043c3e  ..P....r......<>
 0610 01500000 00000006 00000000 00000000  .P..............
 0620 04000d01 54040dea 01015800 00000000  ....T.....X.....
 0630 06000000 00000000 00040027 01510427  ...........'.Q.'
 0640 ea010159 00000000 00000006 00000000  ...Y............
 0650 00000000 04002401 520424c8 01015404  ......$.R.$...T.
 0660 c801ea01 04a30152 9f000200 00000001  .......R........
 0670 06000000 00000000 0004002c 02309f04  ...........,.0..
 0680 2c350871 0075001c 32259f04 35a7010b  ,5.q.u..2%..5...
 0690 71007500 1c08201c 32259f00 02000000  q.u... .2%......
 06a0 00000600 00000000 00000004 00030671  ...............q
 06b0 0009f81a 9f04030f 0151040f 13067400  .........Q....t.
 06c0 09f81a9f 00000000 00000006 00000000  ................
 06d0 00000000 04001301 5404138f 02015804  ........T.....X.
 06e0 8f029102 01540000 00000000 00060000  .....T..........
 06f0 00000000 00000400 25015104 258f0201  ........%.Q.%...
 0700 59048f02 91020151 00000000 00000000  Y......Q........
 0710 00060000 00000000 00000400 22015204  ............".R.
 0720 22ea0101 5404ea01 8f0204a3 01529f04  "...T........R..
 0730 8f029102 01520002 00000000 01000006  .....R..........
 0740 00000000 00000000 04002a02 309f042a  ..........*.0..*
 0750 36087100 75001c31 259f0436 c7010a71  6.q.u..1%..6...q
 0760 0075001c 401c3125 9f048b02 8d020230  .u..@.1%.......0
 0770 9f000200 00000000 06000000 00000000  ................
 0780 00040003 06710009 f81a9f04 030e0151  .....q.........Q
 0790 040e1106 740009f8 1a9f0000 00000000  ....t...........
 07a0 00000006 00000000 00000000 04002401  ..............$.
 07b0 55042430 01510430 90020158 04900291  U.$0.Q.0...X....
 07c0 02015500 00000000 00000600 00000000  ..U.............
 07d0 00000004 001a0154 041a9002 01590490  .......T.....Y..
 07e0 02910201 54000000 00000000 06000000  ....T...........
 07f0 00000000 00040020 01510420 90020154  ....... .Q. ...T
 0800 04900291 02015100 00000000 00000600  ......Q.........
 0810 00000000 00000004 002b0152 042b9002  .........+.R.+..
 0820 015a0490 02910201 52000200 00000000  .Z......R.......
 0830 06000000 00000000 0004002c 02309f04  ...........,.0..
 0840 2c360671 0078001c 9f048c02 8d020230  ,6.q.x.........0
 0850 9f000200 00000600 00000000 00000004  ................
 0860 0006067a 0009f81a 9f040622 01520002  ...z.......".R..
 0870 00000000 01010006 00000000 00000000  ................
 0880 04000902 309f0409 19015004 19230370  ....0.....P..#.p
 0890 7f9f0423 2a015000 02000000 00010100  ...#*.P.........
 08a0 06000000 00000000 00040009 02309f04  .............0..
 08b0 09190150 04192303 707f9f04 232a0150  ...P..#.p...#*.P
 08c0 00000000 00060000 00000000 00000400  ................
 08d0 11015504 113f015a 00020000 00000101  ..U..?.Z........
 08e0 00060000 00000000 00000400 0d02309f  ..............0.
 08f0 040d2901 55042932 03757f9f 04323a01  ..).U.)2.u...2:.
 0900 55000000 00000600 00000000 00000004  U...............
 0910 00110155 04113f01 5a000200 00000001  ...U..?.Z.......
 0920 01000600 00000000 00000004 000d0230  ...............0
 0930 9f040d29 01550429 3503757f 9f04353a  ...).U.)5.u...5:
 0940 01550000 00000000 00000000 00060000  .U..............
 0950 00000000 00000400 23015504 2355015c  ........#.U.#U.\
 0960 04555a04 a301559f 045a5b01 55045b82  .UZ...U..Z[.U.[.
 0970 01015c00 00000000 00000000 06000000  ..\.............
 0980 00000000 00040023 01540423 5a04a301  .......#.T.#Z...
 0990 549f045a 5b015404 5b820104 a301549f  T..Z[.T.[.....T.
 09a0 00000000 00000000 00000006 00000000  ................
 09b0 00000000 04002301 51042357 015d0457  ......#.Q.#W.].W
 09c0 5a04a301 519f045a 5b015104 5b820101  Z...Q..Z[.Q.[...
 09d0 5d000200 00000000 00000600 00000000  ]...............
 09e0 00000004 001f0230 9f041f4f 01560456  .......0...O.V.V
 09f0 5702309f 04577e01 56000100 08000000  W.0..W~.V.......
 0a00 00000000 001d0a03 00000000 00000000  ................
 0a10 9f000000 00000000 00000000 06000000  ................
 0a20 00000000 00040023 01550423 55015c04  .......#.U.#U.\.
 0a30 555a04a3 01559f04 5a5b0155 045b8201  UZ...U..Z[.U.[..
 0a40 015c0000 00000000 00000006 00000000  .\..............
 0a50 00000000 04002301 5404235a 04a30154  ......#.T.#Z...T
 0a60 9f045a5b 0154045b 820104a3 01549f00  ..Z[.T.[.....T..
 0a70 00000000 00000000 00000600 00000000  ................
 0a80 00000004 00230151 04235701 5d04575a  .....#.Q.#W.].WZ
 0a90 04a30151 9f045a5b 0151045b 8201015d  ...Q..Z[.Q.[...]
 0aa0 00020000 00000000 00060000 00000000  ................
 0ab0 00000400 1f02309f 041f4f01 56045657  ......0...O.V.VW
 0ac0 02309f04 577e0156 00010008 00000000  .0..W~.V........
 0ad0 00000000 1d0a0300 00000000 0000009f  ................
 0ae0 00000000 00000000 00000006 00000000  ................
 0af0 00000000 04002301 55042355 015c0455  ......#.U.#U.\.U
 0b00 5a04a301 559f045a 5b015504 5b820101  Z...U..Z[.U.[...
 0b10 5c000000 00000000 00000600 00000000  \...............
 0b20 00000004 00230154 04235a04 a301549f  .....#.T.#Z...T.
 0b30 045a5b01 54045b82 0104a301 549f0000  .Z[.T.[.....T...
 0b40 00000000 00000000 00060000 00000000  ................
 0b50 00000400 23015104 2357015d 04575a04  ....#.Q.#W.].WZ.
 0b60 a301519f 045a5b01 51045b82 01015d00  ..Q..Z[.Q.[...].
 0b70 02000000 00000000 06000000 00000000  ................
 0b80 0004001f 02309f04 1f4f0156 04565702  .....0...O.V.VW.
 0b90 309f0457 7e015600 01000800 00000000  0..W~.V.........
 0ba0 0000001d 0a030000 00000000 00009f00  ................
 0bb0 00000000 00000000 00000600 00000000  ................
 0bc0 00000004 00230155 04235501 5c04555a  .....#.U.#U.\.UZ
 0bd0 04a30155 9f045a5b 0155045b 8201015c  ...U..Z[.U.[...\
 0be0 00000000 00000000 00060000 00000000  ................
 0bf0 00000400 23015404 235a04a3 01549f04  ....#.T.#Z...T..
 0c00 5a5b0154 045b8201 04a30154 9f000000  Z[.T.[.....T....
 0c10 00000000 00000000 06000000 00000000  ................
 0c20 00040023 01510423 57015d04 575a04a3  ...#.Q.#W.].WZ..
 0c30 01519f04 5a5b0151 045b8201 015d0002  .Q..Z[.Q.[...]..
 0c40 00000000 00000006 00000000 00000000  ................
 0c50 04001f02 309f041f 4f015604 56570230  ....0...O.V.VW.0
 0c60 9f04577e 01560001 00080000 00000000  ..W~.V..........
 0c70 00001d0a 03000000 00000000 009f0000  ................
 0c80 00000000 00000000 00060000 00000000  ................
 0c90 00000400 24015504 2455015c 04555804  ....$.U.$U.\.UX.
 0ca0 a301559f 04585901 55045980 01015c00  ..U..XY.U.Y...\.
 0cb0 00000000 00000000 06000000 00000000  ................
 0cc0 00040024 01540424 5804a301 549f0458  ...$.T.$X...T..X
 0cd0 59015404 59800104 a301549f 00000000  Y.T.Y.....T.....
 0ce0 00000000 00060000 00000000 00000400  ................
 0cf0 24015104 245804a3 01519f04 58590151  $.Q.$X...Q..XY.Q
 0d00 04598001 04a30151 9f000200 00010100  .Y.....Q........
 0d10 00000000 00000600 00000000 00000004  ................
 0d20 00200230 9f042041 077300a3 01541c9f  . .0.. A.s...T..
 0d30 04414409 7300a301 541c2301 9f04444e  .AD.s...T.#...DN
 0d40 077300a3 01541c9f 04545502 309f0455  .s...T...TU.0..U
 0d50 7c077300 a301541c 9f000100 08000000  |.s...T.........
 0d60 00000000 001d0a03 00000000 00000000  ................
 0d70 9f000200 00000001 01000600 00000000  ................
 0d80 00000004 000b0230 9f040b18 01580418  .......0.....X..
 0d90 1d03787f 9f041d25 015800             ..x....%.X.     
Contents of section .debug_aranges:
 0000 3c000000 02000000 00000800 00000000  <...............
 0010 00000000 00000000 280a0000 00000000  ........(.......
 0020 00000000 00000000 9b020000 00000000  ................
 0030 00000000 00000000 00000000 00000000  ................
Contents of section .debug_rnglists:
 0000 f1010000 05000800 00000000 05000000  ................
 0010 00000000 00040005 042c4904 557c0005  .........,I.U|..
 0020 00000000 00000000 04000504 191b042c  ...............,
 0030 4d04577e 00050000 00000000 00000400  M.W~............
 0040 0504191b 042c4d04 577e0005 00000000  .....,M.W~......
 0050 00000000 04000504 191b042c 4d04577e  ...........,M.W~
 0060 00050000 00000000 00000400 0504191b  ................
 0070 042c4d04 577e0005 00000000 00000000  .,M.W~..........
 0080 04000004 033a0005 00000000 00000000  .....:..........
 0090 04000004 033a0005 00000000 00000000  .....:..........
 00a0 04001204 16d70100 05000000 00000000  ................
 00b0 0004000f 042cd001 00050000 00000000  .....,..........
 00c0 00000400 05040539 00050000 00000000  .......9........
 00d0 00000400 000409ac 01000500 00000000  ................
 00e0 00000004 00050405 39000500 00000000  ........9.......
 00f0 00000004 00000403 dc010005 00000000  ................
 0100 00000000 04000604 06400005 00000000  .........@......
 0110 00000000 04000004 03dc0100 05000000  ................
 0120 00000000 00040006 04064000 05000000  ..........@.....
 0130 00000000 00040015 04193000 05000000  ..........0.....
 0140 00000000 00040005 040a1000 05000000  ................
 0150 00000000 00040005 040b0b04 14190005  ................
 0160 00000000 00000000 04000504 0e130005  ................
 0170 00000000 00000000 04000404 08080005  ................
 0180 00000000 00000000 04000004 070e041b  ................
 0190 28042f34 00050000 00000000 00000400  (./4............
 01a0 07040c1f 00050000 00000000 00000400  ................
 01b0 0004040b 040e1304 202a0005 00000000  ........ *......
 01c0 00000000 04000204 05280005 00000000  .........(......
 01d0 00000000 04000004 040c041c 26000700  ............&...
 01e0 00000000 000000a8 14070000 00000000  ................
 01f0 00009b05 00                          .....           
Contents of section .debug_line:
 0000 fd100000 05000800 89000000 010101fb  ................
 0010 0e0d0001 01010100 00000100 00010101  ................
 0020 1f060000 00000000 00000000 00000000  ................
 0030 00000000 00000000 00000201 1f020f11  ................
 0040 00000000 01000000 00010000 00000200  ................
 0050 00000003 00000000 03000000 00040000  ................
 0060 00000400 00000002 00000000 04000000  ................
 0070 00030000 00000400 00000002 00000000  ................
 0080 05000000 00050000 00000500 00000002  ................
 0090 00000000 00053c00 09020000 00000000  ......<.........
 00a0 000003c9 00010601 0505064b 050a0105  ...........K....
 00b0 1a01053c 06570509 06022714 050d0601  ...<.W....'.....
 00c0 050cf205 23000204 02065705 1a000204  ....#.....W.....
 00d0 02010002 0402063c 05015e58 3c3c050d  .......<..^X<<..
 00e0 061c0402 0501031a 01050314 050a0601  ................
 00f0 08ba0401 050d0603 6501053e a3060105  ........e..>....
 0100 05064b05 0a01051a 01053e06 57051108  ..K.......>.W...
 0110 3d053e2d 05090608 14050d06 01050cf2  =.>-............
 0120 05230002 04020657 051a0002 04023c05  .#.....W......<.
 0130 0106962e 2e2e3c05 0d061c04 02050103  ......<.........
 0140 11010503 14050a06 0108ba04 01050d06  ................
 0150 036e0105 3e087906 01050506 4b050a01  .n..>.y.....K...
 0160 051a0105 3e065705 11083d05 3e2d0509  ....>.W...=.>-..
 0170 06081405 0d060105 0cf20523 00020402  ...........#....
 0180 0657051a 00020402 3c050106 962e2e2e  .W......<.......
 0190 3c050d06 1c040205 011a0503 14050a06  <...............
 01a0 0108ba04 01050d06 03770105 3e087906  .........w..>.y.
 01b0 01050506 4b050a01 051a0105 3e065705  ....K.......>.W.
 01c0 11083d05 3e2d0509 06081405 0d060105  ..=.>-..........
 01d0 0cf20523 00020402 0657051a 00020402  ...#.....W......
 01e0 3c050106 962e2e2e 3c050d06 1c040205  <.......<.......
 01f0 01110503 14050a06 0108ba04 01050d06  ................
 0200 01053e08 79060105 05064b05 0a01051a  ..>.y.....K.....
 0210 01053e06 57051108 3d053e2d 05090608  ..>.W...=.>-....
 0220 14050d06 01050cf2 05230002 04020657  .........#.....W
 0230 051a0002 04023c05 0106962e 2e2e3c05  ......<.......<.
 0240 0d061c04 02050103 76010503 14050a06  ........v.......
 0250 0108ba04 01050d06 03090105 47087906  ............G.y.
 0260 01050506 4b050a01 051a0105 47061105  ....K.......G...
 0270 1a3d0511 593b0509 00020403 06081305  .=..Y;..........
 0280 15000204 03060105 1c000204 03580523  .............X.#
 0290 00020403 57051900 0204033d 05110002  ....W......=....
 02a0 04036605 23000204 03066505 1a000204  ..f.#.....e.....
 02b0 03010002 04030658 05011505 4a063006  .......X....J.0.
 02c0 01050506 4b050a01 051a0105 4a061105  ....K.......J...
 02d0 1a3d0511 82050900 02040306 08130515  .=..............
 02e0 00020403 0601051c 00020403 58052300  ............X.#.
 02f0 02040357 05190002 04033d05 11000204  ...W......=.....
 0300 03660523 00020403 063b051a 00020403  .f.#.....;......
 0310 01000204 03068205 0115054a 062f0601  ...........J./..
 0320 0505064b 050a0105 1a010511 06820509  ...K............
 0330 00020403 064b0519 00020403 06010523  .....K.........#
 0340 00020403 8f051900 0204033d 05110002  ...........=....
 0350 04032e05 23000204 03063b05 1a000204  ....#.....;.....
 0360 03010002 04030682 05011505 4a067506  ............J.u.
 0370 01050506 4b050a01 051a0105 11067405  ....K.........t.
 0380 09000204 03065905 19000204 03060105  ......Y.........
 0390 23000204 039d0519 00020403 3d051100  #...........=...
 03a0 02040366 05230002 04030649 051a0002  ...f.#.....I....
 03b0 04030100 02040306 74050115 054a062f  ........t....J./
 03c0 06010505 064b050a 01051a01 05110674  .....K.........t
 03d0 05090002 04030659 05190002 04030601  .......Y........
 03e0 05230002 04039d05 19000204 033d0511  .#...........=..
 03f0 00020403 66052300 02040306 49051a00  ....f.#.....I...
 0400 02040301 00020403 06740501 15054806  .........t....H.
 0410 30060105 05064b05 0a010517 01054806  0.....K.......H.
 0420 081f0511 4c664a74 05090002 04030658  ....LfJt.......X
 0430 051c0002 04030601 05150002 04033c05  ..............<.
 0440 17000204 033b0002 04034a05 19000204  .....;....J.....
 0450 034b0511 00020403 66050900 02040306  .K......f.......
 0460 67052000 02040306 01051500 0204034a  g. ............J
 0470 051d0002 04034a05 11000204 03580509  ......J......X..
 0480 00020403 06670520 00020403 06010515  .....g. ........
 0490 00020403 4a051d00 0204034a 05110002  ....J......J....
 04a0 04036605 09000204 03066705 20000204  ..f.......g. ...
 04b0 03060105 15000204 034a051d 00020403  .........J......
 04c0 4a051100 02040358 05090002 04030668  J......X.......h
 04d0 05200002 04030601 05150002 04034a05  . ............J.
 04e0 1d000204 034a0511 00020403 66050900  .....J......f...
 04f0 02040306 67052000 02040306 01051500  ....g. .........
 0500 0204034a 051d0002 04034a05 11000204  ...J......J.....
 0510 03580509 00020403 06670520 00020403  .X.......g. ....
 0520 06010515 00020403 4a051d00 0204034a  ........J......J
 0530 05110002 04036605 09000204 03066705  ......f.......g.
 0540 15000204 03060105 20000204 034a051d  ........ ....J..
 0550 00020403 4a051100 02040358 05210002  ....J......X.!..
 0560 04030603 77660517 00020403 01050503  ....wf..........
 0570 0c90050a 01053101 050e0601 0531663c  ......1......1f<
 0580 05090002 040306bb 05150002 04030601  ................
 0590 051c0002 04035805 31000204 03570519  ......X.1....W..
 05a0 00020403 3d051100 02040366 053a0002  ....=......f.:..
 05b0 04030665 05310002 04030100 02040306  ...e.1..........
 05c0 58050115 2e054b06 f4060105 05064b05  X.....K.......K.
 05d0 0a010517 0106e405 4b11e43c 05090002  ........K..<....
 05e0 040306ae 00020403 13000204 03130002  ................
 05f0 04031300 02040314 00020403 13000204  ................
 0600 03130002 04031305 1c000204 03060378  ...............x
 0610 01051500 0204033c 05170002 04033b00  .......<......;.
 0620 0204034a 05190002 04034b05 20000204  ...J......K. ...
 0630 033d0519 00020403 49051100 0204032e  .=......I.......
 0640 05150002 04033d05 1d000204 03580520  ......=......X. 
 0650 00020403 4b051d00 02040349 05110002  ....K......I....
 0660 04033c05 15000204 033d051d 00020403  ..<......=......
 0670 58052000 0204034b 051d0002 04034905  X. ....K......I.
 0680 11000204 033c0515 00020403 3d051d00  .....<......=...
 0690 02040358 05200002 04034c05 1d000204  ...X. ....L.....
 06a0 03480511 00020403 3c051500 0204033e  .H......<......>
 06b0 051d0002 04035805 20000204 034b051d  ......X. ....K..
 06c0 00020403 49051100 0204033c 05150002  ....I......<....
 06d0 04033d05 1d000204 03580520 00020403  ..=......X. ....
 06e0 4b051d00 02040349 05110002 04033c05  K......I......<.
 06f0 15000204 033d051d 00020403 58052000  .....=......X. .
 0700 0204034b 051d0002 04034905 11000204  ...K......I.....
 0710 033c0515 00020403 3d051d00 02040358  .<......=......X
 0720 05110002 04037405 21000204 03060377  ......t.!......w
 0730 3c051700 02040301 050e0603 0c900505  <...............
 0740 0658050a 01053101 050e0601 05313c3c  .X....1......1<<
 0750 82050900 02040306 91051500 02040306  ................
 0760 01051c00 0204034a 05310002 04035705  .......J.1....W.
 0770 19000204 034b0511 00020403 58053a00  .....K......X.:.
 0780 02040306 3b053100 02040301 00020403  ....;.1.........
 0790 06820501 153c054b 06f40601 0505064b  .....<.K.......K
 07a0 050a0105 1701054b 06110517 9108663c  .......K......f<
 07b0 05090002 04030691 00020403 13000204  ................
 07c0 03130002 04031300 02040314 00020403  ................
 07d0 13000204 03130002 04031305 19000204  ................
 07e0 03060378 01051700 02040357 00020403  ...x.......W....
 07f0 4a051900 0204034b 05110002 04032e05  J......K........
 0800 1d000204 033d0511 00020403 ba051d00  .....=..........
 0810 0204033d 05110002 0403ba05 1d000204  ...=............
 0820 033d0511 00020403 ba051d00 0204033e  .=.............>
 0830 05110002 0403ba05 1d000204 033d0511  .............=..
 0840 00020403 ba051d00 0204033d 05110002  ...........=....
 0850 0403ba05 1d000204 033d0511 00020403  .........=......
 0860 ba052100 02040306 03773c05 17000204  ..!......w<.....
 0870 0301050e 06030c58 05050658 050a0105  .......X...X....
 0880 3101050e 06010531 3c3c9005 09000204  1......1<<......
 0890 0306bb05 19000204 03060105 31000204  ............1...
 08a0 03810519 00020403 4b051100 0204032e  ........K.......
 08b0 053a0002 0403063b 05310002 04030100  .:.....;.1......
 08c0 02040306 82050115 054b0676 06010505  .........K.v....
 08d0 064b050a 01051701 054b0611 05173d05  .K.......K....=.
 08e0 09000204 03060229 13000204 03130002  .......)........
 08f0 04031300 02040313 00020403 14000204  ................
 0900 03130002 04031300 02040313 05190002  ................
 0910 04030603 78010517 00020403 49000204  ....x.......I...
 0920 034a0519 00020403 4b051d00 02040359  .J......K......Y
 0930 00020403 9f000204 039f0002 0403a000  ................
 0940 0204039f 00020403 9f000204 039f0519  ................
 0950 00020403 03785805 1d000204 036e0511  .....xX......n..
 0960 00020403 03785805 1d000204 034b0511  .....xX......K..
 0970 00020403 66051d00 0204034b 05110002  ....f......K....
 0980 04036605 1d000204 034b0511 00020403  ..f......K......
 0990 66051d00 0204034c 05110002 04036605  f......L......f.
 09a0 1d000204 034b0511 00020403 66051d00  .....K......f...
 09b0 0204034b 05110002 04036605 1d000204  ...K......f.....
 09c0 034b0511 00020403 66052100 02040306  .K......f.!.....
 09d0 03774a05 17000204 0301050e 06030c90  .wJ.............
 09e0 05050666 050a0105 3101050e 06010531  ...f....1......1
 09f0 3c2e9005 09000204 0306bb05 19000204  <...............
 0a00 03060105 31000204 03ab0519 00020403  ....1...........
 0a10 4b051100 02040366 053a0002 04030649  K......f.:.....I
 0a20 05310002 04030100 02040306 74050115  .1..........t...
 0a30 2e2e054b 06bc0601 0505064b 050a0105  ...K.......K....
 0a40 1701054b 06110517 3d050900 02040306  ...K....=.......
 0a50 02291300 02040313 00020403 13000204  .)..............
 0a60 03130002 04031400 02040313 00020403  ................
 0a70 13000204 03130519 00020403 06037801  ..............x.
 0a80 05170002 04034900 0204034a 05190002  ......I....J....
 0a90 04034b05 1d000204 03590002 04039f00  ..K......Y......
 0aa0 0204039f 00020403 a0000204 039f0002  ................
 0ab0 04039f00 0204039f 05190002 04030378  ...............x
 0ac0 58051d00 0204036e 05110002 04030378  X......n.......x
 0ad0 58051d00 0204034b 05110002 04036605  X......K......f.
 0ae0 1d000204 034b0511 00020403 66051d00  .....K......f...
 0af0 0204034b 05110002 04036605 1d000204  ...K......f.....
 0b00 034c0511 00020403 66051d00 0204034b  .L......f......K
 0b10 05110002 04036605 1d000204 034b0511  ......f......K..
 0b20 00020403 66051d00 0204034b 05110002  ....f......K....
 0b30 04036605 21000204 03060377 4a051700  ..f.!......wJ...
 0b40 02040301 050e0603 0c900505 0666050a  .............f..
 0b50 01053101 050e0601 05313c2e 90050900  ..1......1<.....
 0b60 02040306 bb051900 02040306 01053100  ..............1.
 0b70 020403ab 05190002 04034b05 11000204  ..........K.....
 0b80 0366053a 00020403 06490531 00020403  .f.:.....I.1....
 0b90 01000204 03067405 01152e2e 054606bc  ......t......F..
 0ba0 06010509 064d1315 13051601 05460603  .....M.......F..
 0bb0 78010516 6ed27305 10f6050d 00020402  x...n.s.........
 0bc0 06081504 03050100 02040203 c7030105  ................
 0bd0 03000204 02140002 04020601 0401050d  ................
 0be0 00020402 0603b87c 01040305 01000204  .......|........
 0bf0 0203c603 01050300 02040214 00020402  ................
 0c00 06010401 050d0002 04020603 be7c0104  .............|..
 0c10 04050100 02040203 d1000105 03000204  ................
 0c20 02140514 00020402 06010403 05130002  ................
 0c30 04020399 07580404 05140002 040203e7  .....X..........
 0c40 78580002 04026604 01050d00 02040206  xX....f.........
 0c50 03b07f01 04030501 00020402 03e70701  ................
 0c60 05030002 04021405 13000204 02060104  ................
 0c70 01052100 02040203 8b785804 03051300  ..!......xX.....
 0c80 02040203 f5074a00 02040258 0401050d  ......J....X....
 0c90 00020402 06039878 01040305 01000204  .......x........
 0ca0 0203e607 01050300 02040214 05130002  ................
 0cb0 04020601 00020402 58040105 0d000204  ........X.......
 0cc0 0206039b 78010404 05010002 040203ca  ....x...........
 0cd0 00010503 00020402 14051400 02040206  ................
 0ce0 01000204 02580401 050d0002 04020603  .....X..........
 0cf0 b67f0104 03050100 02040203 a8060105  ................
 0d00 03000204 02140521 00020402 06010002  .......!........
 0d10 04024a04 01050d00 02040206 03d77901  ..J...........y.
 0d20 04030501 00020402 03a70601 05030002  ................
 0d30 04021405 21000204 02060100 0204024a  ....!..........J
 0d40 04010002 04020603 c4790105 16000204  .........y......
 0d50 02010521 06580403 03bc064a 4a040103  ...!.X.....JJ...
 0d60 c4790105 09060316 4a040305 0103a406  .y......J.......
 0d70 01050314 06010401 05090603 dd790104  .............y..
 0d80 04050103 ba010105 0314050a 06015805  ..............X.
 0d90 01061005 0314050a 06016604 01052d03  ..........f...-.
 0da0 c47e0105 113c0509 06690512 01050d00  .~...<...i......
 0db0 020402ad 05180002 04020601 05290002  .............)..
 0dc0 04024a05 1b000204 02490526 00020402  ..J......I.&....
 0dd0 3d051500 0204024a 051b0002 0402063b  =......J.......;
 0de0 05120002 04020105 05060329 82051603  ...........)....
 0df0 bb7f6605 10490204 00010105 01000902  ..f..I..........
 0e00 00000000 00000000 03bb0201 050b069f  ................
 0e10 05012d82 050506f3 050b0601 05055806  ..-...........X.
 0e20 75130511 060106e4 00020402 ba052d00  u.............-.
 0e30 02040201 05050002 04021305 0a000204  ................
 0e40 0201051a 00020402 01050900 02040308  ................
 0e50 4b051300 02040306 01051a00 02040357  K..............W
 0e60 00020403 4b051e00 020403ac 05240002  ....K........$..
 0e70 04030673 051a0002 04030105 055b0511  ...s.........[..
 0e80 06010608 20000204 0290052d 00020402  .... ......-....
 0e90 01050500 02040213 050a0002 04020105  ................
 0ea0 1a000204 02010509 00020403 084b0513  .............K..
 0eb0 00020403 0601051a 00020403 57000204  ............W...
 0ec0 034b051e 00020403 ac052400 02040306  .K........$.....
 0ed0 65051a00 02040301 05055b06 14050e3a  e.........[....:
 0ee0 05050683 05150601 05055905 15d50505  ..........Y.....
 0ef0 063d5905 13060105 05065913 04020501  .=Y.......Y.....
 0f00 03a27e01 05031404 01051906 03db0101  ..~.............
 0f10 05264a04 02050a03 a57e3c04 01051903  .&J......~<.....
 0f20 db017405 0c580402 050a03a5 7e820882  ..t..X......~...
 0f30 04010505 0603dd01 01040205 0103a17e  ...............~
 0f40 01050314 050a0601 082e0401 05050603  ................
 0f50 df010105 0c060105 05068305 0d060105  ................
 0f60 0559050d d5050506 3d050d06 19050503  .Y......=.......
 0f70 793c0659 050b0601 05050659 13040205  y<.Y.......Y....
 0f80 01039a7e 01050314 04010512 0603e301  ...~............
 0f90 01040205 0a039d7e 4a040105 1f03e301  .......~J.......
 0fa0 74040205 0a039d7e 3c040105 1203e301  t......~<.......
 0fb0 58051058 0402050a 039d7e82 9e040105  X..X......~.....
 0fc0 050603e5 01010402 05010399 7e010503  ............~...
 0fd0 14050a06 01086604 01050506 03e70101  ......f.........
 0fe0 13050d06 01051103 ab7e5805 0d03d501  .........~X.....
 0ff0 2e050506 3d050603 a97e0105 1a130509  ....=....~......
 1000 91051906 0105238f 05193d05 112e0523  ......#...=....#
 1010 063b051a 01069005 050603d7 0101050b  .;..............
 1020 06010505 06591304 02050103 927e0105  .....Y.......~..
 1030 03140401 05120603 eb010104 02050a03  ................
 1040 957e4a04 01051f03 eb018205 123c0510  .~J..........<..
 1050 58040205 0a03957e 829e0401 05050603  X......~........
 1060 ed010104 02050103 917e0105 0314050a  .........~......
 1070 06010820 04010505 0603ee01 01830501  ... ............
 1080 06830866 202e0511 00020401 06035f74  ...f ........._t
 1090 04020501 00020401 03a87e01 05030002  ..........~.....
 10a0 04011405 0a000204 01060100 02040108  ................
 10b0 ba040105 11000204 010603d6 01010501  ................
 10c0 0603219e 05110002 04010603 63580402  ..!.........cX..
 10d0 05010002 040103a4 7e010503 00020401  ........~.......
 10e0 14050a00 02040106 01000204 0108ba04  ................
 10f0 01051100 02040106 03da0101 020a0001  ................
 1100 01                                   .               
Contents of section .debug_str:
 0000 7665635f 66726f6d 46696c65 53747265  vec_fromFileStre
 0010 616d5f69 33320064 6f747072 6f647563  am_i32.dotproduc
 0020 745f756e 77696e64 5f663332 00646f74  t_unwind_f32.dot
 0030 70726f64 7563745f 756e7769 6e645f69  product_unwind_i
 0040 31360076 65635f66 726f6d46 696c6553  16.vec_fromFileS
 0050 74726561 6d5f6636 34005f73 686f7274  tream_f64._short
 0060 62756600 72616e64 005f494f 5f6c6f63  buf.rand._IO_loc
 0070 6b5f7400 73746465 7272005f 494f5f62  k_t.stderr._IO_b
 0080 75665f65 6e640064 6f747072 6f647563  uf_end.dotproduc
 0090 745f706c 61696e5f 66333200 66736361  t_plain_f32.fsca
 00a0 6e66005f 494f5f77 72697465 5f656e64  nf._IO_write_end
 00b0 00756e73 69676e65 6420696e 74005f66  .unsigned int._f
 00c0 72656572 65735f6c 69737400 5f666c61  reeres_list._fla
 00d0 67730064 6f747072 6f647563 745f756e  gs.dotproduct_un
 00e0 77696e64 5f693800 5f6d6172 6b657273  wind_i8._markers
 00f0 005f5f62 75696c74 696e5f66 77726974  .__builtin_fwrit
 0100 6500646f 7470726f 64756374 5f706c61  e.dotproduct_pla
 0110 696e5f69 3136005f 5f6d3132 38695f75  in_i16.__m128i_u
 0120 005f6d6d 5f6d756c 5f657069 33320076  ._mm_mul_epi32.v
 0130 65633100 76656332 0063616c 6c6f6300  ec1.vec2.calloc.
 0140 646f7470 726f6475 63745f73 696d6469  dotproduct_simdi
 0150 005f6d6d 5f73726c 695f6570 69363400  ._mm_srli_epi64.
 0160 646f7470 726f6475 63745f75 6e77696e  dotproduct_unwin
 0170 645f6933 3200646f 7470726f 64756374  d_i32.dotproduct
 0180 5f756e77 696e645f 66363400 5f494f5f  _unwind_f64._IO_
 0190 73617665 5f656e64 00666c6f 6174005f  save_end.float._
 01a0 494f5f63 6f646563 7674006d 616c6c6f  IO_codecvt.mallo
 01b0 63005f5f 6c656e00 5f5f7634 73690072  c.__len.__v4si.r
 01c0 6573756c 74007469 6d655f73 70656e74  esult.time_spent
 01d0 006c6f6e 67206c6f 6e672075 6e736967  .long long unsig
 01e0 6e656420 696e7400 646f7470 726f6475  ned int.dotprodu
 01f0 63745f70 6c61696e 5f693332 00646f74  ct_plain_i32.dot
 0200 70726f64 7563745f 706c6169 6e5f6636  product_plain_f6
 0210 3400474e 55204331 37203131 2e342e30  4.GNU C17 11.4.0
 0220 202d6d61 7263683d 7a6e7665 7233202d   -march=znver3 -
 0230 6d6d6d78 202d6d70 6f70636e 74202d6d  mmmx -mpopcnt -m
 0240 73736520 2d6d7373 6532202d 6d737365  sse -msse2 -msse
 0250 33202d6d 73737365 33202d6d 73736534  3 -mssse3 -msse4
 0260 2e31202d 6d737365 342e3220 2d6d6176  .1 -msse4.2 -mav
 0270 78202d6d 61767832 202d6d73 73653461  x -mavx2 -msse4a
 0280 202d6d6e 6f2d666d 6134202d 6d6e6f2d   -mno-fma4 -mno-
 0290 786f7020 2d6d666d 61202d6d 6e6f2d61  xop -mfma -mno-a
 02a0 76783531 3266202d 6d626d69 202d6d62  vx512f -mbmi -mb
 02b0 6d693220 2d6d6165 73202d6d 70636c6d  mi2 -maes -mpclm
 02c0 756c202d 6d6e6f2d 61767835 3132766c  ul -mno-avx512vl
 02d0 202d6d6e 6f2d6176 78353132 6277202d   -mno-avx512bw -
 02e0 6d6e6f2d 61767835 31326471 202d6d6e  mno-avx512dq -mn
 02f0 6f2d6176 78353132 6364202d 6d6e6f2d  o-avx512cd -mno-
 0300 61767835 31326572 202d6d6e 6f2d6176  avx512er -mno-av
 0310 78353132 7066202d 6d6e6f2d 61767835  x512pf -mno-avx5
 0320 31327662 6d69202d 6d6e6f2d 61767835  12vbmi -mno-avx5
 0330 31326966 6d61202d 6d6e6f2d 61767835  12ifma -mno-avx5
 0340 31323476 6e6e6977 202d6d6e 6f2d6176  124vnniw -mno-av
 0350 78353132 34666d61 7073202d 6d6e6f2d  x5124fmaps -mno-
 0360 61767835 31327670 6f70636e 74647120  avx512vpopcntdq 
 0370 2d6d6e6f 2d617678 35313276 626d6932  -mno-avx512vbmi2
 0380 202d6d6e 6f2d6766 6e69202d 6d767063   -mno-gfni -mvpc
 0390 6c6d756c 71647120 2d6d6e6f 2d617678  lmulqdq -mno-avx
 03a0 35313276 6e6e6920 2d6d6e6f 2d617678  512vnni -mno-avx
 03b0 35313262 6974616c 67202d6d 6e6f2d61  512bitalg -mno-a
 03c0 76783531 32626631 36202d6d 6e6f2d61  vx512bf16 -mno-a
 03d0 76783531 32767032 696e7465 72736563  vx512vp2intersec
 03e0 74202d6d 6e6f2d33 646e6f77 202d6d61  t -mno-3dnow -ma
 03f0 6478202d 6d61626d 202d6d6e 6f2d636c  dx -mabm -mno-cl
 0400 64656d6f 7465202d 6d636c66 6c757368  demote -mclflush
 0410 6f707420 2d6d636c 7762202d 6d636c7a  opt -mclwb -mclz
 0420 65726f20 2d6d6378 3136202d 6d6e6f2d  ero -mcx16 -mno-
 0430 656e7163 6d64202d 6d663136 63202d6d  enqcmd -mf16c -m
 0440 66736773 62617365 202d6d66 78737220  fsgsbase -mfxsr 
 0450 2d6d6e6f 2d686c65 202d6d73 61686620  -mno-hle -msahf 
 0460 2d6d6e6f 2d6c7770 202d6d6c 7a636e74  -mno-lwp -mlzcnt
 0470 202d6d6d 6f766265 202d6d6e 6f2d6d6f   -mmovbe -mno-mo
 0480 76646972 36346220 2d6d6e6f 2d6d6f76  vdir64b -mno-mov
 0490 64697269 202d6d6e 6f2d6d77 61697478  diri -mno-mwaitx
 04a0 202d6d6e 6f2d7063 6f6e6669 67202d6d   -mno-pconfig -m
 04b0 6e6f2d70 6b75202d 6d6e6f2d 70726566  no-pku -mno-pref
 04c0 65746368 77743120 2d6d7072 66636877  etchwt1 -mprfchw
 04d0 202d6d6e 6f2d7074 77726974 65202d6d   -mno-ptwrite -m
 04e0 72647069 64202d6d 7264726e 64202d6d  rdpid -mrdrnd -m
 04f0 72647365 6564202d 6d6e6f2d 72746d20  rdseed -mno-rtm 
 0500 2d6d6e6f 2d736572 69616c69 7a65202d  -mno-serialize -
 0510 6d6e6f2d 73677820 2d6d7368 61202d6d  mno-sgx -msha -m
 0520 73687374 6b202d6d 6e6f2d74 626d202d  shstk -mno-tbm -
 0530 6d6e6f2d 7473786c 6474726b 202d6d76  mno-tsxldtrk -mv
 0540 61657320 2d6d6e6f 2d776169 74706b67  aes -mno-waitpkg
 0550 202d6d6e 6f2d7762 6e6f696e 7664202d   -mno-wbnoinvd -
 0560 6d787361 7665202d 6d787361 76656320  mxsave -mxsavec 
 0570 2d6d7873 6176656f 7074202d 6d787361  -mxsaveopt -mxsa
 0580 76657320 2d6d6e6f 2d616d78 2d74696c  ves -mno-amx-til
 0590 65202d6d 6e6f2d61 6d782d69 6e743820  e -mno-amx-int8 
 05a0 2d6d6e6f 2d616d78 2d626631 36202d6d  -mno-amx-bf16 -m
 05b0 6e6f2d75 696e7472 202d6d6e 6f2d6872  no-uintr -mno-hr
 05c0 65736574 202d6d6e 6f2d6b6c 202d6d6e  eset -mno-kl -mn
 05d0 6f2d7769 64656b6c 202d6d6e 6f2d6176  o-widekl -mno-av
 05e0 78766e6e 69202d2d 70617261 6d3d6c31  xvnni --param=l1
 05f0 2d636163 68652d73 697a653d 3332202d  -cache-size=32 -
 0600 2d706172 616d3d6c 312d6361 6368652d  -param=l1-cache-
 0610 6c696e65 2d73697a 653d3634 202d2d70  line-size=64 --p
 0620 6172616d 3d6c322d 63616368 652d7369  aram=l2-cache-si
 0630 7a653d35 3132202d 6d74756e 653d7a6e  ze=512 -mtune=zn
 0640 76657233 202d6720 2d4f3220 2d666173  ver3 -g -O2 -fas
 0650 796e6368 726f6e6f 75732d75 6e77696e  ynchronous-unwin
 0660 642d7461 626c6573 202d6673 7461636b  d-tables -fstack
 0670 2d70726f 74656374 6f722d73 74726f6e  -protector-stron
 0680 67202d66 73746163 6b2d636c 6173682d  g -fstack-clash-
 0690 70726f74 65637469 6f6e202d 6663662d  protection -fcf-
 06a0 70726f74 65637469 6f6e005f 494f5f62  protection._IO_b
 06b0 61636b75 705f6261 7365005f 6f666673  ackup_base._offs
 06c0 65740074 696d6500 636c6f63 6b5f7400  et.time.clock_t.
 06d0 5f5f6465 73740066 7072696e 7466005f  __dest.fprintf._
 06e0 66696c65 6e6f0064 6f747072 6f647563  fileno.dotproduc
 06f0 745f706c 61696e5f 6938005f 6d6d5f61  t_plain_i8._mm_a
 0700 64645f65 70693634 0076625f 6576656e  dd_epi64.vb_even
 0710 0073697a 655f7400 6d756c5f 6576656e  .size_t.mul_even
 0720 00737261 6e640069 6e743634 5f74005f  .srand.int64_t._
 0730 494f5f72 6561645f 62617365 00667265  IO_read_base.fre
 0740 65005f6d 6d5f6c6f 6164755f 73693132  e._mm_loadu_si12
 0750 38005f5f 666d7400 5f5f6275 696c7469  8.__fmt.__builti
 0760 6e5f6361 6c6c6f63 00636c6f 636b005f  n_calloc.clock._
 0770 5f737472 65616d00 73697a65 31006368  _stream.size1.ch
 0780 6172005f 5f667072 696e7466 5f63686b  ar.__fprintf_chk
 0790 005f6d6f 6465005f 494f5f6d 61726b65  ._mode._IO_marke
 07a0 72005f49 4f5f7265 61645f70 74720065  r._IO_read_ptr.e
 07b0 78697400 5f5f7632 64690074 696d655f  xit.__v2di.time_
 07c0 74005f5f 76326475 005f494f 5f777269  t.__v2du._IO_wri
 07d0 74655f62 61736500 6c6f6e67 206c6f6e  te_base.long lon
 07e0 6720696e 74005f6d 6d5f7365 747a6572  g int._mm_setzer
 07f0 6f5f7369 31323800 7072696e 7466005f  o_si128.printf._
 0800 494f5f73 6176655f 62617365 005f5f70  IO_save_base.__p
 0810 72696e74 665f6368 6b007363 616c6172  rintf_chk.scalar
 0820 5f69006d 656d7365 74007369 7a65005f  _i.memset.size._
 0830 66726565 7265735f 62756600 5f5f7061  freeres_buf.__pa
 0840 6435005f 5f636c6f 636b5f74 005f7674  d5.__clock_t._vt
 0850 61626c65 5f6f6666 73657400 5f5f696e  able_offset.__in
 0860 7436345f 74006c6f 6e672064 6f75626c  t64_t.long doubl
 0870 65005f5f 63680076 65635f66 726f6d46  e.__ch.vec_fromF
 0880 696c6553 74726561 6d5f6938 005f494f  ileStream_i8._IO
 0890 5f726561 645f656e 64007368 6f727420  _read_end.short 
 08a0 696e7400 76615f65 76656e00 6c6f6e67  int.va_even.long
 08b0 20696e74 005f5f69 736f6339 395f6673   int.__isoc99_fs
 08c0 63616e66 005f5f73 7461636b 5f63686b  canf.__stack_chk
 08d0 5f666169 6c005f49 4f5f7769 64655f64  _fail._IO_wide_d
 08e0 61746100 73746172 74005f77 6964655f  ata.start._wide_
 08f0 64617461 005f6c6f 636b006c 6f6e6720  data._lock.long 
 0900 756e7369 676e6564 20696e74 005f6f6c  unsigned int._ol
 0910 645f6f66 66736574 005f494f 5f46494c  d_offset._IO_FIL
 0920 45007665 635f6672 6f6d4669 6c655374  E.vec_fromFileSt
 0930 7265616d 5f663332 005f5f6d 31323869  ream_f32.__m128i
 0940 00756e73 69676e65 64206368 6172005f  .unsigned char._
 0950 494f5f77 72697465 5f707472 005f5f74  IO_write_ptr.__t
 0960 696d655f 74007665 635f6672 6f6d4669  ime_t.vec_fromFi
 0970 6c655374 7265616d 5f693136 005f636f  leStream_i16._co
 0980 64656376 74006677 72697465 005f5f6f  decvt.fwrite.__o
 0990 66665f74 005f6d6d 5f657874 72616374  ff_t._mm_extract
 09a0 5f657069 36340073 69676e65 64206368  _epi64.signed ch
 09b0 61720073 686f7274 20756e73 69676e65  ar.short unsigne
 09c0 6420696e 74006d61 696e0064 6f75626c  d int.main.doubl
 09d0 65005f63 6861696e 0046494c 45005f66  e._chain.FILE._f
 09e0 6c616773 32005f63 75725f63 6f6c756d  lags2._cur_colum
 09f0 6e007363 616c6172 5f66005f 5f6f6666  n.scalar_f.__off
 0a00 36345f74 005f756e 75736564 32005f49  64_t._unused2._I
 0a10 4f5f6275 665f6261 7365006d 756c5f6f  O_buf_base.mul_o
 0a20 646400                               dd.             
Contents of section .debug_line_str:
 0000 2f686f6d 652f7a61 64646c65 2f636f64  /home/zaddle/cod
 0010 652f4350 502f7072 6f6a6563 7432002e  e/CPP/project2..
 0020 2f737263 2f646f74 70726f64 7563742e  /src/dotproduct.
 0030 63002f68 6f6d652f 7a616464 6c652f63  c./home/zaddle/c
 0040 6f64652f 4350502f 70726f6a 65637432  ode/CPP/project2
 0050 002e2f73 7263002f 7573722f 696e636c  ../src./usr/incl
 0060 7564652f 7838365f 36342d6c 696e7578  ude/x86_64-linux
 0070 2d676e75 2f626974 73002f75 73722f6c  -gnu/bits./usr/l
 0080 69622f67 63632f78 38365f36 342d6c69  ib/gcc/x86_64-li
 0090 6e75782d 676e752f 31312f69 6e636c75  nux-gnu/11/inclu
 00a0 6465002f 7573722f 696e636c 7564652f  de./usr/include/
 00b0 7838365f 36342d6c 696e7578 2d676e75  x86_64-linux-gnu
 00c0 2f626974 732f7479 70657300 2f757372  /bits/types./usr
 00d0 2f696e63 6c756465 00646f74 70726f64  /include.dotprod
 00e0 7563742e 6300646f 7470726f 64756374  uct.c.dotproduct
 00f0 2e630073 7464696f 322e6800 656d6d69  .c.stdio2.h.emmi
 0100 6e747269 6e2e6800 736d6d69 6e747269  ntrin.h.smmintri
 0110 6e2e6800 73747275 63745f46 494c452e  n.h.struct_FILE.
 0120 68004649 4c452e68 00747970 65732e68  h.FILE.h.types.h
 0130 00636c6f 636b5f74 2e680073 74646465  .clock_t.h.stdde
 0140 662e6800 74696d65 5f742e68 00737464  f.h.time_t.h.std
 0150 696e742d 696e746e 2e680074 696d652e  int-intn.h.time.
 0160 68007374 646c6962 2e680073 7464696f  h.stdlib.h.stdio
 0170 2e680073 7472696e 675f666f 72746966  .h.string_fortif
 0180 6965642e 68003c62 75696c74 2d696e3e  ied.h.<built-in>
 0190 00                                   .               
Contents of section .comment:
 0000 00474343 3a202855 62756e74 75203131  .GCC: (Ubuntu 11
 0010 2e342e30 2d317562 756e7475 317e3232  .4.0-1ubuntu1~22
 0020 2e303429 2031312e 342e3000           .04) 11.4.0.    
Contents of section .note.gnu.property:
 0000 04000000 10000000 05000000 474e5500  ............GNU.
 0010 020000c0 04000000 03000000 00000000  ................
Contents of section .eh_frame:
 0000 14000000 00000000 017a5200 01781001  .........zR..x..
 0010 1b0c0708 90010000 44000000 1c000000  ........D.......
 0020 00000000 80000000 004b0e10 8d02420e  .........K....B.
 0030 188c0341 0e208604 440e2883 05520e30  ...A. ..D.(..R.0
 0040 6d0e2841 0e20410e 18420e10 420e0841  m.(A. A..B..B..A
 0050 c3c6cccd 410e3083 0586048c 038d0200  ....A.0.........
 0060 48000000 64000000 00000000 82000000  H...d...........
 0070 004b0e10 8e02490e 188d0345 0e208c04  .K....I....E. ..
 0080 440e2886 05430e30 8306720e 28410e20  D.(..C.0..r.(A. 
 0090 420e1842 0e10420e 0841c3c6 cccdce41  B..B..B..A.....A
 00a0 0e308306 86058c04 8d038e02 48000000  .0..........H...
 00b0 b0000000 00000000 82000000 004b0e10  .............K..
 00c0 8e02490e 188d0345 0e208c04 440e2886  ..I....E. ..D.(.
 00d0 05430e30 8306720e 28410e20 420e1842  .C.0..r.(A. B..B
 00e0 0e10420e 0841c3c6 cccdce41 0e308306  ..B..A.....A.0..
 00f0 86058c04 8d038e02 48000000 fc000000  ........H.......
 0100 00000000 82000000 004b0e10 8e02490e  .........K....I.
 0110 188d0345 0e208c04 440e2886 05430e30  ...E. ..D.(..C.0
 0120 8306720e 28410e20 420e1842 0e10420e  ..r.(A. B..B..B.
 0130 0841c3c6 cccdce41 0e308306 86058c04  .A.....A.0......
 0140 8d038e02 48000000 48010000 00000000  ....H...H.......
 0150 82000000 004b0e10 8e02490e 188d0345  .....K....I....E
 0160 0e208c04 440e2886 05430e30 8306720e  . ..D.(..C.0..r.
 0170 28410e20 420e1842 0e10420e 0841c3c6  (A. B..B..B..A..
 0180 cccdce41 0e308306 86058c04 8d038e02  ...A.0..........
 0190 10000000 94010000 00000000 3f000000  ............?...
 01a0 00000000 10000000 a8010000 00000000  ................
 01b0 3f000000 00000000 10000000 bc010000  ?...............
 01c0 00000000 2a000000 00000000 10000000  ....*...........
 01d0 d0010000 00000000 2f000000 00000000  ......../.......
 01e0 10000000 e4010000 00000000 2f000000  ............/...
 01f0 00000000 18000000 f8010000 00000000  ................
 0200 11010000 00570e10 830202f8 0e0841c3  .....W........A.
 0210 18000000 14020000 00000000 11010000  ................
 0220 00540e10 830202fa 0e0842c3 10000000  .T........B.....
 0230 30020000 00000000 ea000000 00000000  0...............
 0240 10000000 44020000 00000000 25010000  ....D.......%...
 0250 00000000 10000000 58020000 00000000  ........X.......
 0260 25010000 00000000 10000000 6c020000  %...........l...
 0270 00000000 c8000000 00000000 48000000  ............H...
 0280 80020000 00000000 9b020000 00460e10  .............F..
 0290 8f02420e 188e0342 0e208d04 440e288c  ..B....B. ..D.(.
 02a0 05410e30 8606410e 38830744 0e500327  .A.0..A.8..D.P.'
 02b0 020a0e38 430e3041 0e28420e 20420e18  ...8C.0A.(B. B..
 02c0 420e1042 0e08410b                    B..B..A.        

Disassembly of section .text:

0000000000000000 <vec_fromFileStream_i8>:
   0:	f3 0f 1e fa          	endbr64 
   4:	48 85 d2             	test   %rdx,%rdx
   7:	74 4f                	je     58 <vec_fromFileStream_i8+0x58>
   9:	41 55                	push   %r13
   b:	41 54                	push   %r12
   d:	55                   	push   %rbp
   e:	49 89 fc             	mov    %rdi,%r12
  11:	53                   	push   %rbx
  12:	48 8d 2c 16          	lea    (%rsi,%rdx,1),%rbp
  16:	48 89 f3             	mov    %rsi,%rbx
  19:	4c 8d 2d 00 00 00 00 	lea    0x0(%rip),%r13        # 20 <vec_fromFileStream_i8+0x20>
  20:	48 83 ec 08          	sub    $0x8,%rsp
  24:	66 66 2e 0f 1f 84 00 	data16 cs nopw 0x0(%rax,%rax,1)
  2b:	00 00 00 00 
  2f:	90                   	nop
  30:	31 c0                	xor    %eax,%eax
  32:	48 89 da             	mov    %rbx,%rdx
  35:	4c 89 ee             	mov    %r13,%rsi
  38:	4c 89 e7             	mov    %r12,%rdi
  3b:	e8 00 00 00 00       	call   40 <vec_fromFileStream_i8+0x40>
  40:	83 f8 01             	cmp    $0x1,%eax
  43:	75 14                	jne    59 <vec_fromFileStream_i8+0x59>
  45:	48 ff c3             	inc    %rbx
  48:	48 39 eb             	cmp    %rbp,%rbx
  4b:	75 e3                	jne    30 <vec_fromFileStream_i8+0x30>
  4d:	48 83 c4 08          	add    $0x8,%rsp
  51:	5b                   	pop    %rbx
  52:	5d                   	pop    %rbp
  53:	41 5c                	pop    %r12
  55:	41 5d                	pop    %r13
  57:	c3                   	ret    
  58:	c3                   	ret    
  59:	48 8b 0d 00 00 00 00 	mov    0x0(%rip),%rcx        # 60 <vec_fromFileStream_i8+0x60>
  60:	48 8d 3d 00 00 00 00 	lea    0x0(%rip),%rdi        # 67 <vec_fromFileStream_i8+0x67>
  67:	ba 2a 00 00 00       	mov    $0x2a,%edx
  6c:	be 01 00 00 00       	mov    $0x1,%esi
  71:	e8 00 00 00 00       	call   76 <vec_fromFileStream_i8+0x76>
  76:	bf 01 00 00 00       	mov    $0x1,%edi
  7b:	e8 00 00 00 00       	call   80 <vec_fromFileStream_i16>

0000000000000080 <vec_fromFileStream_i16>:
  80:	f3 0f 1e fa          	endbr64 
  84:	48 85 d2             	test   %rdx,%rdx
  87:	74 51                	je     da <vec_fromFileStream_i16+0x5a>
  89:	41 56                	push   %r14
  8b:	4c 8d 35 00 00 00 00 	lea    0x0(%rip),%r14        # 92 <vec_fromFileStream_i16+0x12>
  92:	41 55                	push   %r13
  94:	49 89 d5             	mov    %rdx,%r13
  97:	41 54                	push   %r12
  99:	49 89 fc             	mov    %rdi,%r12
  9c:	55                   	push   %rbp
  9d:	31 ed                	xor    %ebp,%ebp
  9f:	53                   	push   %rbx
  a0:	48 89 f3             	mov    %rsi,%rbx
  a3:	66 66 2e 0f 1f 84 00 	data16 cs nopw 0x0(%rax,%rax,1)
  aa:	00 00 00 00 
  ae:	66 90                	xchg   %ax,%ax
  b0:	31 c0                	xor    %eax,%eax
  b2:	48 89 da             	mov    %rbx,%rdx
  b5:	4c 89 f6             	mov    %r14,%rsi
  b8:	4c 89 e7             	mov    %r12,%rdi
  bb:	e8 00 00 00 00       	call   c0 <vec_fromFileStream_i16+0x40>
  c0:	83 f8 01             	cmp    $0x1,%eax
  c3:	75 16                	jne    db <vec_fromFileStream_i16+0x5b>
  c5:	48 ff c5             	inc    %rbp
  c8:	48 83 c3 02          	add    $0x2,%rbx
  cc:	49 39 ed             	cmp    %rbp,%r13
  cf:	75 df                	jne    b0 <vec_fromFileStream_i16+0x30>
  d1:	5b                   	pop    %rbx
  d2:	5d                   	pop    %rbp
  d3:	41 5c                	pop    %r12
  d5:	41 5d                	pop    %r13
  d7:	41 5e                	pop    %r14
  d9:	c3                   	ret    
  da:	c3                   	ret    
  db:	48 8b 0d 00 00 00 00 	mov    0x0(%rip),%rcx        # e2 <vec_fromFileStream_i16+0x62>
  e2:	48 8d 3d 00 00 00 00 	lea    0x0(%rip),%rdi        # e9 <vec_fromFileStream_i16+0x69>
  e9:	ba 2b 00 00 00       	mov    $0x2b,%edx
  ee:	be 01 00 00 00       	mov    $0x1,%esi
  f3:	e8 00 00 00 00       	call   f8 <vec_fromFileStream_i16+0x78>
  f8:	bf 01 00 00 00       	mov    $0x1,%edi
  fd:	e8 00 00 00 00       	call   102 <vec_fromFileStream_i16+0x82>
 102:	66 66 2e 0f 1f 84 00 	data16 cs nopw 0x0(%rax,%rax,1)
 109:	00 00 00 00 
 10d:	0f 1f 00             	nopl   (%rax)

0000000000000110 <vec_fromFileStream_i32>:
 110:	f3 0f 1e fa          	endbr64 
 114:	48 85 d2             	test   %rdx,%rdx
 117:	74 51                	je     16a <vec_fromFileStream_i32+0x5a>
 119:	41 56                	push   %r14
 11b:	4c 8d 35 00 00 00 00 	lea    0x0(%rip),%r14        # 122 <vec_fromFileStream_i32+0x12>
 122:	41 55                	push   %r13
 124:	49 89 d5             	mov    %rdx,%r13
 127:	41 54                	push   %r12
 129:	49 89 fc             	mov    %rdi,%r12
 12c:	55                   	push   %rbp
 12d:	31 ed                	xor    %ebp,%ebp
 12f:	53                   	push   %rbx
 130:	48 89 f3             	mov    %rsi,%rbx
 133:	66 66 2e 0f 1f 84 00 	data16 cs nopw 0x0(%rax,%rax,1)
 13a:	00 00 00 00 
 13e:	66 90                	xchg   %ax,%ax
 140:	31 c0                	xor    %eax,%eax
 142:	48 89 da             	mov    %rbx,%rdx
 145:	4c 89 f6             	mov    %r14,%rsi
 148:	4c 89 e7             	mov    %r12,%rdi
 14b:	e8 00 00 00 00       	call   150 <vec_fromFileStream_i32+0x40>
 150:	83 f8 01             	cmp    $0x1,%eax
 153:	75 16                	jne    16b <vec_fromFileStream_i32+0x5b>
 155:	48 ff c5             	inc    %rbp
 158:	48 83 c3 04          	add    $0x4,%rbx
 15c:	49 39 ed             	cmp    %rbp,%r13
 15f:	75 df                	jne    140 <vec_fromFileStream_i32+0x30>
 161:	5b                   	pop    %rbx
 162:	5d                   	pop    %rbp
 163:	41 5c                	pop    %r12
 165:	41 5d                	pop    %r13
 167:	41 5e                	pop    %r14
 169:	c3                   	ret    
 16a:	c3                   	ret    
 16b:	48 8b 0d 00 00 00 00 	mov    0x0(%rip),%rcx        # 172 <vec_fromFileStream_i32+0x62>
 172:	48 8d 3d 00 00 00 00 	lea    0x0(%rip),%rdi        # 179 <vec_fromFileStream_i32+0x69>
 179:	ba 2b 00 00 00       	mov    $0x2b,%edx
 17e:	be 01 00 00 00       	mov    $0x1,%esi
 183:	e8 00 00 00 00       	call   188 <vec_fromFileStream_i32+0x78>
 188:	bf 01 00 00 00       	mov    $0x1,%edi
 18d:	e8 00 00 00 00       	call   192 <vec_fromFileStream_i32+0x82>
 192:	66 66 2e 0f 1f 84 00 	data16 cs nopw 0x0(%rax,%rax,1)
 199:	00 00 00 00 
 19d:	0f 1f 00             	nopl   (%rax)

00000000000001a0 <vec_fromFileStream_f32>:
 1a0:	f3 0f 1e fa          	endbr64 
 1a4:	48 85 d2             	test   %rdx,%rdx
 1a7:	74 51                	je     1fa <vec_fromFileStream_f32+0x5a>
 1a9:	41 56                	push   %r14
 1ab:	4c 8d 35 00 00 00 00 	lea    0x0(%rip),%r14        # 1b2 <vec_fromFileStream_f32+0x12>
 1b2:	41 55                	push   %r13
 1b4:	49 89 d5             	mov    %rdx,%r13
 1b7:	41 54                	push   %r12
 1b9:	49 89 fc             	mov    %rdi,%r12
 1bc:	55                   	push   %rbp
 1bd:	31 ed                	xor    %ebp,%ebp
 1bf:	53                   	push   %rbx
 1c0:	48 89 f3             	mov    %rsi,%rbx
 1c3:	66 66 2e 0f 1f 84 00 	data16 cs nopw 0x0(%rax,%rax,1)
 1ca:	00 00 00 00 
 1ce:	66 90                	xchg   %ax,%ax
 1d0:	31 c0                	xor    %eax,%eax
 1d2:	48 89 da             	mov    %rbx,%rdx
 1d5:	4c 89 f6             	mov    %r14,%rsi
 1d8:	4c 89 e7             	mov    %r12,%rdi
 1db:	e8 00 00 00 00       	call   1e0 <vec_fromFileStream_f32+0x40>
 1e0:	83 f8 01             	cmp    $0x1,%eax
 1e3:	75 16                	jne    1fb <vec_fromFileStream_f32+0x5b>
 1e5:	48 ff c5             	inc    %rbp
 1e8:	48 83 c3 04          	add    $0x4,%rbx
 1ec:	49 39 ed             	cmp    %rbp,%r13
 1ef:	75 df                	jne    1d0 <vec_fromFileStream_f32+0x30>
 1f1:	5b                   	pop    %rbx
 1f2:	5d                   	pop    %rbp
 1f3:	41 5c                	pop    %r12
 1f5:	41 5d                	pop    %r13
 1f7:	41 5e                	pop    %r14
 1f9:	c3                   	ret    
 1fa:	c3                   	ret    
 1fb:	48 8b 0d 00 00 00 00 	mov    0x0(%rip),%rcx        # 202 <vec_fromFileStream_f32+0x62>
 202:	48 8d 3d 00 00 00 00 	lea    0x0(%rip),%rdi        # 209 <vec_fromFileStream_f32+0x69>
 209:	ba 2d 00 00 00       	mov    $0x2d,%edx
 20e:	be 01 00 00 00       	mov    $0x1,%esi
 213:	e8 00 00 00 00       	call   218 <vec_fromFileStream_f32+0x78>
 218:	bf 01 00 00 00       	mov    $0x1,%edi
 21d:	e8 00 00 00 00       	call   222 <vec_fromFileStream_f32+0x82>
 222:	66 66 2e 0f 1f 84 00 	data16 cs nopw 0x0(%rax,%rax,1)
 229:	00 00 00 00 
 22d:	0f 1f 00             	nopl   (%rax)

0000000000000230 <vec_fromFileStream_f64>:
 230:	f3 0f 1e fa          	endbr64 
 234:	48 85 d2             	test   %rdx,%rdx
 237:	74 51                	je     28a <vec_fromFileStream_f64+0x5a>
 239:	41 56                	push   %r14
 23b:	4c 8d 35 00 00 00 00 	lea    0x0(%rip),%r14        # 242 <vec_fromFileStream_f64+0x12>
 242:	41 55                	push   %r13
 244:	49 89 d5             	mov    %rdx,%r13
 247:	41 54                	push   %r12
 249:	49 89 fc             	mov    %rdi,%r12
 24c:	55                   	push   %rbp
 24d:	31 ed                	xor    %ebp,%ebp
 24f:	53                   	push   %rbx
 250:	48 89 f3             	mov    %rsi,%rbx
 253:	66 66 2e 0f 1f 84 00 	data16 cs nopw 0x0(%rax,%rax,1)
 25a:	00 00 00 00 
 25e:	66 90                	xchg   %ax,%ax
 260:	31 c0                	xor    %eax,%eax
 262:	48 89 da             	mov    %rbx,%rdx
 265:	4c 89 f6             	mov    %r14,%rsi
 268:	4c 89 e7             	mov    %r12,%rdi
 26b:	e8 00 00 00 00       	call   270 <vec_fromFileStream_f64+0x40>
 270:	83 f8 01             	cmp    $0x1,%eax
 273:	75 16                	jne    28b <vec_fromFileStream_f64+0x5b>
 275:	48 ff c5             	inc    %rbp
 278:	48 83 c3 08          	add    $0x8,%rbx
 27c:	49 39 ed             	cmp    %rbp,%r13
 27f:	75 df                	jne    260 <vec_fromFileStream_f64+0x30>
 281:	5b                   	pop    %rbx
 282:	5d                   	pop    %rbp
 283:	41 5c                	pop    %r12
 285:	41 5d                	pop    %r13
 287:	41 5e                	pop    %r14
 289:	c3                   	ret    
 28a:	c3                   	ret    
 28b:	48 8b 0d 00 00 00 00 	mov    0x0(%rip),%rcx        # 292 <vec_fromFileStream_f64+0x62>
 292:	48 8d 3d 00 00 00 00 	lea    0x0(%rip),%rdi        # 299 <vec_fromFileStream_f64+0x69>
 299:	ba 2d 00 00 00       	mov    $0x2d,%edx
 29e:	be 01 00 00 00       	mov    $0x1,%esi
 2a3:	e8 00 00 00 00       	call   2a8 <vec_fromFileStream_f64+0x78>
 2a8:	bf 01 00 00 00       	mov    $0x1,%edi
 2ad:	e8 00 00 00 00       	call   2b2 <vec_fromFileStream_f64+0x82>
 2b2:	66 66 2e 0f 1f 84 00 	data16 cs nopw 0x0(%rax,%rax,1)
 2b9:	00 00 00 00 
 2bd:	0f 1f 00             	nopl   (%rax)

00000000000002c0 <dotproduct_plain_i8>:
 2c0:	f3 0f 1e fa          	endbr64 
 2c4:	49 89 fa             	mov    %rdi,%r10
 2c7:	48 85 c9             	test   %rcx,%rcx
 2ca:	74 32                	je     2fe <dotproduct_plain_i8+0x3e>
 2cc:	4c 8b 02             	mov    (%rdx),%r8
 2cf:	31 ff                	xor    %edi,%edi
 2d1:	66 66 2e 0f 1f 84 00 	data16 cs nopw 0x0(%rax,%rax,1)
 2d8:	00 00 00 00 
 2dc:	0f 1f 40 00          	nopl   0x0(%rax)
 2e0:	41 0f be 04 3a       	movsbl (%r10,%rdi,1),%eax
 2e5:	44 0f be 0c 3e       	movsbl (%rsi,%rdi,1),%r9d
 2ea:	48 ff c7             	inc    %rdi
 2ed:	41 0f af c1          	imul   %r9d,%eax
 2f1:	48 98                	cltq   
 2f3:	49 01 c0             	add    %rax,%r8
 2f6:	4c 89 02             	mov    %r8,(%rdx)
 2f9:	48 39 f9             	cmp    %rdi,%rcx
 2fc:	75 e2                	jne    2e0 <dotproduct_plain_i8+0x20>
 2fe:	c3                   	ret    
 2ff:	90                   	nop

0000000000000300 <dotproduct_plain_i16>:
 300:	f3 0f 1e fa          	endbr64 
 304:	49 89 fa             	mov    %rdi,%r10
 307:	48 85 c9             	test   %rcx,%rcx
 30a:	74 32                	je     33e <dotproduct_plain_i16+0x3e>
 30c:	4c 8b 02             	mov    (%rdx),%r8
 30f:	31 ff                	xor    %edi,%edi
 311:	66 66 2e 0f 1f 84 00 	data16 cs nopw 0x0(%rax,%rax,1)
 318:	00 00 00 00 
 31c:	0f 1f 40 00          	nopl   0x0(%rax)
 320:	41 0f bf 04 7a       	movswl (%r10,%rdi,2),%eax
 325:	44 0f bf 0c 7e       	movswl (%rsi,%rdi,2),%r9d
 32a:	48 ff c7             	inc    %rdi
 32d:	41 0f af c1          	imul   %r9d,%eax
 331:	48 98                	cltq   
 333:	49 01 c0             	add    %rax,%r8
 336:	48 39 f9             	cmp    %rdi,%rcx
 339:	75 e5                	jne    320 <dotproduct_plain_i16+0x20>
 33b:	4c 89 02             	mov    %r8,(%rdx)
 33e:	c3                   	ret    
 33f:	90                   	nop

0000000000000340 <dotproduct_plain_i32>:
 340:	f3 0f 1e fa          	endbr64 
 344:	48 85 c9             	test   %rcx,%rcx
 347:	74 20                	je     369 <dotproduct_plain_i32+0x29>
 349:	4c 8b 0a             	mov    (%rdx),%r9
 34c:	45 31 c0             	xor    %r8d,%r8d
 34f:	90                   	nop
 350:	42 8b 04 87          	mov    (%rdi,%r8,4),%eax
 354:	42 0f af 04 86       	imul   (%rsi,%r8,4),%eax
 359:	49 ff c0             	inc    %r8
 35c:	48 98                	cltq   
 35e:	49 01 c1             	add    %rax,%r9
 361:	4c 39 c1             	cmp    %r8,%rcx
 364:	75 ea                	jne    350 <dotproduct_plain_i32+0x10>
 366:	4c 89 0a             	mov    %r9,(%rdx)
 369:	c3                   	ret    
 36a:	66 0f 1f 44 00 00    	nopw   0x0(%rax,%rax,1)

0000000000000370 <dotproduct_plain_f32>:
 370:	f3 0f 1e fa          	endbr64 
 374:	48 85 c9             	test   %rcx,%rcx
 377:	74 25                	je     39e <dotproduct_plain_f32+0x2e>
 379:	db 2a                	fldt   (%rdx)
 37b:	31 c0                	xor    %eax,%eax
 37d:	0f 1f 00             	nopl   (%rax)
 380:	c5 fa 10 04 87       	vmovss (%rdi,%rax,4),%xmm0
 385:	c5 fa 59 0c 86       	vmulss (%rsi,%rax,4),%xmm0,%xmm1
 38a:	48 ff c0             	inc    %rax
 38d:	c5 fa 11 4c 24 f4    	vmovss %xmm1,-0xc(%rsp)
 393:	d8 44 24 f4          	fadds  -0xc(%rsp)
 397:	48 39 c1             	cmp    %rax,%rcx
 39a:	75 e4                	jne    380 <dotproduct_plain_f32+0x10>
 39c:	db 3a                	fstpt  (%rdx)
 39e:	c3                   	ret    
 39f:	90                   	nop

00000000000003a0 <dotproduct_plain_f64>:
 3a0:	f3 0f 1e fa          	endbr64 
 3a4:	48 85 c9             	test   %rcx,%rcx
 3a7:	74 25                	je     3ce <dotproduct_plain_f64+0x2e>
 3a9:	db 2a                	fldt   (%rdx)
 3ab:	31 c0                	xor    %eax,%eax
 3ad:	0f 1f 00             	nopl   (%rax)
 3b0:	c5 fb 10 04 c7       	vmovsd (%rdi,%rax,8),%xmm0
 3b5:	c5 fb 59 0c c6       	vmulsd (%rsi,%rax,8),%xmm0,%xmm1
 3ba:	48 ff c0             	inc    %rax
 3bd:	c5 fb 11 4c 24 f0    	vmovsd %xmm1,-0x10(%rsp)
 3c3:	dc 44 24 f0          	faddl  -0x10(%rsp)
 3c7:	48 39 c1             	cmp    %rax,%rcx
 3ca:	75 e4                	jne    3b0 <dotproduct_plain_f64+0x10>
 3cc:	db 3a                	fstpt  (%rdx)
 3ce:	c3                   	ret    
 3cf:	90                   	nop

00000000000003d0 <dotproduct_unwind_i8>:
 3d0:	f3 0f 1e fa          	endbr64 
 3d4:	48 85 c9             	test   %rcx,%rcx
 3d7:	0f 84 03 01 00 00    	je     4e0 <dotproduct_unwind_i8+0x110>
 3dd:	49 89 ca             	mov    %rcx,%r10
 3e0:	49 89 f8             	mov    %rdi,%r8
 3e3:	49 89 f1             	mov    %rsi,%r9
 3e6:	53                   	push   %rbx
 3e7:	48 89 d6             	mov    %rdx,%rsi
 3ea:	48 8b 02             	mov    (%rdx),%rax
 3ed:	48 89 fa             	mov    %rdi,%rdx
 3f0:	49 8d 7a ff          	lea    -0x1(%r10),%rdi
 3f4:	48 83 e7 f8          	and    $0xfffffffffffffff8,%rdi
 3f8:	4c 89 c9             	mov    %r9,%rcx
 3fb:	4d 8d 5c 38 08       	lea    0x8(%r8,%rdi,1),%r11
 400:	0f be 19             	movsbl (%rcx),%ebx
 403:	0f be 3a             	movsbl (%rdx),%edi
 406:	48 83 c2 08          	add    $0x8,%rdx
 40a:	48 83 c1 08          	add    $0x8,%rcx
 40e:	0f af fb             	imul   %ebx,%edi
 411:	48 63 ff             	movslq %edi,%rdi
 414:	48 01 c7             	add    %rax,%rdi
 417:	48 89 3e             	mov    %rdi,(%rsi)
 41a:	0f be 59 f9          	movsbl -0x7(%rcx),%ebx
 41e:	0f be 42 f9          	movsbl -0x7(%rdx),%eax
 422:	0f af c3             	imul   %ebx,%eax
 425:	48 98                	cltq   
 427:	48 01 f8             	add    %rdi,%rax
 42a:	48 89 06             	mov    %rax,(%rsi)
 42d:	0f be 59 fa          	movsbl -0x6(%rcx),%ebx
 431:	0f be 7a fa          	movsbl -0x6(%rdx),%edi
 435:	0f af fb             	imul   %ebx,%edi
 438:	48 63 ff             	movslq %edi,%rdi
 43b:	48 01 c7             	add    %rax,%rdi
 43e:	48 89 3e             	mov    %rdi,(%rsi)
 441:	0f be 59 fb          	movsbl -0x5(%rcx),%ebx
 445:	0f be 42 fb          	movsbl -0x5(%rdx),%eax
 449:	0f af c3             	imul   %ebx,%eax
 44c:	48 98                	cltq   
 44e:	48 01 f8             	add    %rdi,%rax
 451:	48 89 06             	mov    %rax,(%rsi)
 454:	0f be 59 fc          	movsbl -0x4(%rcx),%ebx
 458:	0f be 7a fc          	movsbl -0x4(%rdx),%edi
 45c:	0f af fb             	imul   %ebx,%edi
 45f:	48 63 ff             	movslq %edi,%rdi
 462:	48 01 c7             	add    %rax,%rdi
 465:	48 89 3e             	mov    %rdi,(%rsi)
 468:	0f be 59 fd          	movsbl -0x3(%rcx),%ebx
 46c:	0f be 42 fd          	movsbl -0x3(%rdx),%eax
 470:	0f af c3             	imul   %ebx,%eax
 473:	48 98                	cltq   
 475:	48 01 f8             	add    %rdi,%rax
 478:	48 89 06             	mov    %rax,(%rsi)
 47b:	0f be 59 fe          	movsbl -0x2(%rcx),%ebx
 47f:	0f be 7a fe          	movsbl -0x2(%rdx),%edi
 483:	0f af fb             	imul   %ebx,%edi
 486:	48 63 ff             	movslq %edi,%rdi
 489:	48 01 c7             	add    %rax,%rdi
 48c:	48 89 3e             	mov    %rdi,(%rsi)
 48f:	0f be 42 ff          	movsbl -0x1(%rdx),%eax
 493:	0f be 59 ff          	movsbl -0x1(%rcx),%ebx
 497:	0f af c3             	imul   %ebx,%eax
 49a:	48 98                	cltq   
 49c:	48 01 f8             	add    %rdi,%rax
 49f:	48 89 06             	mov    %rax,(%rsi)
 4a2:	49 39 d3             	cmp    %rdx,%r11
 4a5:	0f 85 55 ff ff ff    	jne    400 <dotproduct_unwind_i8+0x30>
 4ab:	44 89 d1             	mov    %r10d,%ecx
 4ae:	83 e1 f8             	and    $0xfffffff8,%ecx
 4b1:	48 63 c9             	movslq %ecx,%rcx
 4b4:	49 39 ca             	cmp    %rcx,%r10
 4b7:	76 25                	jbe    4de <dotproduct_unwind_i8+0x10e>
 4b9:	0f 1f 80 00 00 00 00 	nopl   0x0(%rax)
 4c0:	41 0f be 14 08       	movsbl (%r8,%rcx,1),%edx
 4c5:	41 0f be 3c 09       	movsbl (%r9,%rcx,1),%edi
 4ca:	48 ff c1             	inc    %rcx
 4cd:	0f af d7             	imul   %edi,%edx
 4d0:	48 63 d2             	movslq %edx,%rdx
 4d3:	48 01 d0             	add    %rdx,%rax
 4d6:	48 89 06             	mov    %rax,(%rsi)
 4d9:	49 39 ca             	cmp    %rcx,%r10
 4dc:	75 e2                	jne    4c0 <dotproduct_unwind_i8+0xf0>
 4de:	5b                   	pop    %rbx
 4df:	c3                   	ret    
 4e0:	c3                   	ret    
 4e1:	66 66 2e 0f 1f 84 00 	data16 cs nopw 0x0(%rax,%rax,1)
 4e8:	00 00 00 00 
 4ec:	0f 1f 40 00          	nopl   0x0(%rax)

00000000000004f0 <dotproduct_unwind_i16>:
 4f0:	f3 0f 1e fa          	endbr64 
 4f4:	48 85 c9             	test   %rcx,%rcx
 4f7:	0f 84 03 01 00 00    	je     600 <dotproduct_unwind_i16+0x110>
 4fd:	49 89 f0             	mov    %rsi,%r8
 500:	48 89 ce             	mov    %rcx,%rsi
 503:	53                   	push   %rbx
 504:	49 89 d1             	mov    %rdx,%r9
 507:	48 8d 44 36 fe       	lea    -0x2(%rsi,%rsi,1),%rax
 50c:	4c 8b 1a             	mov    (%rdx),%r11
 50f:	4c 89 c1             	mov    %r8,%rcx
 512:	48 89 fa             	mov    %rdi,%rdx
 515:	48 83 e0 f0          	and    $0xfffffffffffffff0,%rax
 519:	4c 8d 54 07 10       	lea    0x10(%rdi,%rax,1),%r10
 51e:	66 90                	xchg   %ax,%ax
 520:	0f bf 19             	movswl (%rcx),%ebx
 523:	0f bf 02             	movswl (%rdx),%eax
 526:	48 83 c2 10          	add    $0x10,%rdx
 52a:	48 83 c1 10          	add    $0x10,%rcx
 52e:	0f af c3             	imul   %ebx,%eax
 531:	0f bf 59 f2          	movswl -0xe(%rcx),%ebx
 535:	48 98                	cltq   
 537:	4c 01 d8             	add    %r11,%rax
 53a:	44 0f bf 5a f2       	movswl -0xe(%rdx),%r11d
 53f:	44 0f af db          	imul   %ebx,%r11d
 543:	0f bf 59 f4          	movswl -0xc(%rcx),%ebx
 547:	4d 63 db             	movslq %r11d,%r11
 54a:	4c 01 d8             	add    %r11,%rax
 54d:	44 0f bf 5a f4       	movswl -0xc(%rdx),%r11d
 552:	44 0f af db          	imul   %ebx,%r11d
 556:	0f bf 59 f6          	movswl -0xa(%rcx),%ebx
 55a:	4d 63 db             	movslq %r11d,%r11
 55d:	4c 01 d8             	add    %r11,%rax
 560:	44 0f bf 5a f6       	movswl -0xa(%rdx),%r11d
 565:	44 0f af db          	imul   %ebx,%r11d
 569:	0f bf 59 f8          	movswl -0x8(%rcx),%ebx
 56d:	4d 63 db             	movslq %r11d,%r11
 570:	4c 01 d8             	add    %r11,%rax
 573:	44 0f bf 5a f8       	movswl -0x8(%rdx),%r11d
 578:	44 0f af db          	imul   %ebx,%r11d
 57c:	0f bf 59 fa          	movswl -0x6(%rcx),%ebx
 580:	4d 63 db             	movslq %r11d,%r11
 583:	4c 01 d8             	add    %r11,%rax
 586:	44 0f bf 5a fa       	movswl -0x6(%rdx),%r11d
 58b:	44 0f af db          	imul   %ebx,%r11d
 58f:	0f bf 59 fc          	movswl -0x4(%rcx),%ebx
 593:	4d 63 db             	movslq %r11d,%r11
 596:	4c 01 d8             	add    %r11,%rax
 599:	44 0f bf 5a fc       	movswl -0x4(%rdx),%r11d
 59e:	44 0f af db          	imul   %ebx,%r11d
 5a2:	0f bf 59 fe          	movswl -0x2(%rcx),%ebx
 5a6:	4d 63 db             	movslq %r11d,%r11
 5a9:	4c 01 d8             	add    %r11,%rax
 5ac:	44 0f bf 5a fe       	movswl -0x2(%rdx),%r11d
 5b1:	44 0f af db          	imul   %ebx,%r11d
 5b5:	4d 63 db             	movslq %r11d,%r11
 5b8:	49 01 c3             	add    %rax,%r11
 5bb:	49 39 d2             	cmp    %rdx,%r10
 5be:	0f 85 5c ff ff ff    	jne    520 <dotproduct_unwind_i16+0x30>
 5c4:	89 f2                	mov    %esi,%edx
 5c6:	4d 89 19             	mov    %r11,(%r9)
 5c9:	83 e2 f8             	and    $0xfffffff8,%edx
 5cc:	48 63 d2             	movslq %edx,%rdx
 5cf:	48 39 d6             	cmp    %rdx,%rsi
 5d2:	76 29                	jbe    5fd <dotproduct_unwind_i16+0x10d>
 5d4:	48 01 d2             	add    %rdx,%rdx
 5d7:	48 01 f6             	add    %rsi,%rsi
 5da:	66 0f 1f 44 00 00    	nopw   0x0(%rax,%rax,1)
 5e0:	0f bf 04 17          	movswl (%rdi,%rdx,1),%eax
 5e4:	41 0f bf 0c 10       	movswl (%r8,%rdx,1),%ecx
 5e9:	48 83 c2 02          	add    $0x2,%rdx
 5ed:	0f af c1             	imul   %ecx,%eax
 5f0:	48 98                	cltq   
 5f2:	49 01 c3             	add    %rax,%r11
 5f5:	48 39 d6             	cmp    %rdx,%rsi
 5f8:	75 e6                	jne    5e0 <dotproduct_unwind_i16+0xf0>
 5fa:	4d 89 19             	mov    %r11,(%r9)
 5fd:	5b                   	pop    %rbx
 5fe:	c3                   	ret    
 5ff:	90                   	nop
 600:	c3                   	ret    
 601:	66 66 2e 0f 1f 84 00 	data16 cs nopw 0x0(%rax,%rax,1)
 608:	00 00 00 00 
 60c:	0f 1f 40 00          	nopl   0x0(%rax)

0000000000000610 <dotproduct_unwind_i32>:
 610:	f3 0f 1e fa          	endbr64 
 614:	49 89 f0             	mov    %rsi,%r8
 617:	49 89 d1             	mov    %rdx,%r9
 61a:	48 89 ce             	mov    %rcx,%rsi
 61d:	48 85 c9             	test   %rcx,%rcx
 620:	0f 84 d3 00 00 00    	je     6f9 <dotproduct_unwind_i32+0xe9>
 626:	48 8d 04 b5 fc ff ff 	lea    -0x4(,%rsi,4),%rax
 62d:	ff 
 62e:	4c 8b 1a             	mov    (%rdx),%r11
 631:	4c 89 c1             	mov    %r8,%rcx
 634:	48 89 fa             	mov    %rdi,%rdx
 637:	48 83 e0 e0          	and    $0xffffffffffffffe0,%rax
 63b:	4c 8d 54 07 20       	lea    0x20(%rdi,%rax,1),%r10
 640:	8b 02                	mov    (%rdx),%eax
 642:	0f af 01             	imul   (%rcx),%eax
 645:	48 83 c2 20          	add    $0x20,%rdx
 649:	48 83 c1 20          	add    $0x20,%rcx
 64d:	48 98                	cltq   
 64f:	4c 01 d8             	add    %r11,%rax
 652:	44 8b 5a e4          	mov    -0x1c(%rdx),%r11d
 656:	44 0f af 59 e4       	imul   -0x1c(%rcx),%r11d
 65b:	4d 63 db             	movslq %r11d,%r11
 65e:	4c 01 d8             	add    %r11,%rax
 661:	44 8b 5a e8          	mov    -0x18(%rdx),%r11d
 665:	44 0f af 59 e8       	imul   -0x18(%rcx),%r11d
 66a:	4d 63 db             	movslq %r11d,%r11
 66d:	4c 01 d8             	add    %r11,%rax
 670:	44 8b 5a ec          	mov    -0x14(%rdx),%r11d
 674:	44 0f af 59 ec       	imul   -0x14(%rcx),%r11d
 679:	4d 63 db             	movslq %r11d,%r11
 67c:	4c 01 d8             	add    %r11,%rax
 67f:	44 8b 5a f0          	mov    -0x10(%rdx),%r11d
 683:	44 0f af 59 f0       	imul   -0x10(%rcx),%r11d
 688:	4d 63 db             	movslq %r11d,%r11
 68b:	4c 01 d8             	add    %r11,%rax
 68e:	44 8b 5a f4          	mov    -0xc(%rdx),%r11d
 692:	44 0f af 59 f4       	imul   -0xc(%rcx),%r11d
 697:	4d 63 db             	movslq %r11d,%r11
 69a:	4c 01 d8             	add    %r11,%rax
 69d:	44 8b 5a f8          	mov    -0x8(%rdx),%r11d
 6a1:	44 0f af 59 f8       	imul   -0x8(%rcx),%r11d
 6a6:	4d 63 db             	movslq %r11d,%r11
 6a9:	4c 01 d8             	add    %r11,%rax
 6ac:	44 8b 5a fc          	mov    -0x4(%rdx),%r11d
 6b0:	44 0f af 59 fc       	imul   -0x4(%rcx),%r11d
 6b5:	4d 63 db             	movslq %r11d,%r11
 6b8:	49 01 c3             	add    %rax,%r11
 6bb:	49 39 d2             	cmp    %rdx,%r10
 6be:	75 80                	jne    640 <dotproduct_unwind_i32+0x30>
 6c0:	89 f2                	mov    %esi,%edx
 6c2:	4d 89 19             	mov    %r11,(%r9)
 6c5:	83 e2 f8             	and    $0xfffffff8,%edx
 6c8:	48 63 d2             	movslq %edx,%rdx
 6cb:	48 39 d6             	cmp    %rdx,%rsi
 6ce:	76 29                	jbe    6f9 <dotproduct_unwind_i32+0xe9>
 6d0:	48 c1 e2 02          	shl    $0x2,%rdx
 6d4:	48 c1 e6 02          	shl    $0x2,%rsi
 6d8:	0f 1f 84 00 00 00 00 	nopl   0x0(%rax,%rax,1)
 6df:	00 
 6e0:	8b 04 17             	mov    (%rdi,%rdx,1),%eax
 6e3:	41 0f af 04 10       	imul   (%r8,%rdx,1),%eax
 6e8:	48 83 c2 04          	add    $0x4,%rdx
 6ec:	48 98                	cltq   
 6ee:	49 01 c3             	add    %rax,%r11
 6f1:	48 39 d6             	cmp    %rdx,%rsi
 6f4:	75 ea                	jne    6e0 <dotproduct_unwind_i32+0xd0>
 6f6:	4d 89 19             	mov    %r11,(%r9)
 6f9:	c3                   	ret    
 6fa:	66 0f 1f 44 00 00    	nopw   0x0(%rax,%rax,1)

0000000000000700 <dotproduct_unwind_f32>:
 700:	f3 0f 1e fa          	endbr64 
 704:	49 89 f0             	mov    %rsi,%r8
 707:	48 85 c9             	test   %rcx,%rcx
 70a:	0f 84 14 01 00 00    	je     824 <dotproduct_unwind_f32+0x124>
 710:	db 2a                	fldt   (%rdx)
 712:	4c 8d 0c 8d fc ff ff 	lea    -0x4(,%rcx,4),%r9
 719:	ff 
 71a:	48 89 f8             	mov    %rdi,%rax
 71d:	49 83 e1 e0          	and    $0xffffffffffffffe0,%r9
 721:	4e 8d 4c 0f 20       	lea    0x20(%rdi,%r9,1),%r9
 726:	66 2e 0f 1f 84 00 00 	cs nopw 0x0(%rax,%rax,1)
 72d:	00 00 00 
 730:	c5 fa 10 00          	vmovss (%rax),%xmm0
 734:	48 83 c0 20          	add    $0x20,%rax
 738:	48 83 c6 20          	add    $0x20,%rsi
 73c:	c5 fa 59 4e e0       	vmulss -0x20(%rsi),%xmm0,%xmm1
 741:	c5 fa 10 40 e4       	vmovss -0x1c(%rax),%xmm0
 746:	c5 fa 59 56 e4       	vmulss -0x1c(%rsi),%xmm0,%xmm2
 74b:	c5 fa 10 40 e8       	vmovss -0x18(%rax),%xmm0
 750:	c5 fa 59 5e e8       	vmulss -0x18(%rsi),%xmm0,%xmm3
 755:	c5 fa 10 40 ec       	vmovss -0x14(%rax),%xmm0
 75a:	c5 fa 59 66 ec       	vmulss -0x14(%rsi),%xmm0,%xmm4
 75f:	c5 fa 10 40 f0       	vmovss -0x10(%rax),%xmm0
 764:	c5 fa 59 6e f0       	vmulss -0x10(%rsi),%xmm0,%xmm5
 769:	c5 fa 10 40 f4       	vmovss -0xc(%rax),%xmm0
 76e:	c5 fa 59 76 f4       	vmulss -0xc(%rsi),%xmm0,%xmm6
 773:	c5 fa 10 40 f8       	vmovss -0x8(%rax),%xmm0
 778:	c5 fa 59 7e f8       	vmulss -0x8(%rsi),%xmm0,%xmm7
 77d:	c5 fa 10 40 fc       	vmovss -0x4(%rax),%xmm0
 782:	c5 fa 11 4c 24 f4    	vmovss %xmm1,-0xc(%rsp)
 788:	c5 fa 59 4e fc       	vmulss -0x4(%rsi),%xmm0,%xmm1
 78d:	d8 44 24 f4          	fadds  -0xc(%rsp)
 791:	c5 fa 11 54 24 f4    	vmovss %xmm2,-0xc(%rsp)
 797:	d8 44 24 f4          	fadds  -0xc(%rsp)
 79b:	c5 fa 11 5c 24 f4    	vmovss %xmm3,-0xc(%rsp)
 7a1:	d8 44 24 f4          	fadds  -0xc(%rsp)
 7a5:	c5 fa 11 64 24 f4    	vmovss %xmm4,-0xc(%rsp)
 7ab:	d8 44 24 f4          	fadds  -0xc(%rsp)
 7af:	c5 fa 11 6c 24 f4    	vmovss %xmm5,-0xc(%rsp)
 7b5:	d8 44 24 f4          	fadds  -0xc(%rsp)
 7b9:	c5 fa 11 74 24 f4    	vmovss %xmm6,-0xc(%rsp)
 7bf:	d8 44 24 f4          	fadds  -0xc(%rsp)
 7c3:	c5 fa 11 7c 24 f4    	vmovss %xmm7,-0xc(%rsp)
 7c9:	d8 44 24 f4          	fadds  -0xc(%rsp)
 7cd:	c5 fa 11 4c 24 f4    	vmovss %xmm1,-0xc(%rsp)
 7d3:	d8 44 24 f4          	fadds  -0xc(%rsp)
 7d7:	49 39 c1             	cmp    %rax,%r9
 7da:	0f 85 50 ff ff ff    	jne    730 <dotproduct_unwind_f32+0x30>
 7e0:	89 c8                	mov    %ecx,%eax
 7e2:	d9 c0                	fld    %st(0)
 7e4:	db 3a                	fstpt  (%rdx)
 7e6:	83 e0 f8             	and    $0xfffffff8,%eax
 7e9:	48 98                	cltq   
 7eb:	48 39 c1             	cmp    %rax,%rcx
 7ee:	76 32                	jbe    822 <dotproduct_unwind_f32+0x122>
 7f0:	48 c1 e0 02          	shl    $0x2,%rax
 7f4:	48 c1 e1 02          	shl    $0x2,%rcx
 7f8:	0f 1f 84 00 00 00 00 	nopl   0x0(%rax,%rax,1)
 7ff:	00 
 800:	c5 fa 10 04 07       	vmovss (%rdi,%rax,1),%xmm0
 805:	c4 c1 7a 59 14 00    	vmulss (%r8,%rax,1),%xmm0,%xmm2
 80b:	48 83 c0 04          	add    $0x4,%rax
 80f:	c5 fa 11 54 24 f4    	vmovss %xmm2,-0xc(%rsp)
 815:	d8 44 24 f4          	fadds  -0xc(%rsp)
 819:	48 39 c1             	cmp    %rax,%rcx
 81c:	75 e2                	jne    800 <dotproduct_unwind_f32+0x100>
 81e:	db 3a                	fstpt  (%rdx)
 820:	eb 02                	jmp    824 <dotproduct_unwind_f32+0x124>
 822:	df c0                	ffreep %st(0)
 824:	c3                   	ret    
 825:	66 66 2e 0f 1f 84 00 	data16 cs nopw 0x0(%rax,%rax,1)
 82c:	00 00 00 00 

0000000000000830 <dotproduct_unwind_f64>:
 830:	f3 0f 1e fa          	endbr64 
 834:	49 89 f0             	mov    %rsi,%r8
 837:	48 85 c9             	test   %rcx,%rcx
 83a:	0f 84 14 01 00 00    	je     954 <dotproduct_unwind_f64+0x124>
 840:	db 2a                	fldt   (%rdx)
 842:	4c 8d 0c cd f8 ff ff 	lea    -0x8(,%rcx,8),%r9
 849:	ff 
 84a:	48 89 f8             	mov    %rdi,%rax
 84d:	49 83 e1 c0          	and    $0xffffffffffffffc0,%r9
 851:	4e 8d 4c 0f 40       	lea    0x40(%rdi,%r9,1),%r9
 856:	66 2e 0f 1f 84 00 00 	cs nopw 0x0(%rax,%rax,1)
 85d:	00 00 00 
 860:	c5 fb 10 00          	vmovsd (%rax),%xmm0
 864:	48 83 c0 40          	add    $0x40,%rax
 868:	48 83 c6 40          	add    $0x40,%rsi
 86c:	c5 fb 59 4e c0       	vmulsd -0x40(%rsi),%xmm0,%xmm1
 871:	c5 fb 10 40 c8       	vmovsd -0x38(%rax),%xmm0
 876:	c5 fb 59 56 c8       	vmulsd -0x38(%rsi),%xmm0,%xmm2
 87b:	c5 fb 10 40 d0       	vmovsd -0x30(%rax),%xmm0
 880:	c5 fb 59 5e d0       	vmulsd -0x30(%rsi),%xmm0,%xmm3
 885:	c5 fb 10 40 d8       	vmovsd -0x28(%rax),%xmm0
 88a:	c5 fb 59 66 d8       	vmulsd -0x28(%rsi),%xmm0,%xmm4
 88f:	c5 fb 10 40 e0       	vmovsd -0x20(%rax),%xmm0
 894:	c5 fb 59 6e e0       	vmulsd -0x20(%rsi),%xmm0,%xmm5
 899:	c5 fb 10 40 e8       	vmovsd -0x18(%rax),%xmm0
 89e:	c5 fb 59 76 e8       	vmulsd -0x18(%rsi),%xmm0,%xmm6
 8a3:	c5 fb 10 40 f0       	vmovsd -0x10(%rax),%xmm0
 8a8:	c5 fb 59 7e f0       	vmulsd -0x10(%rsi),%xmm0,%xmm7
 8ad:	c5 fb 10 40 f8       	vmovsd -0x8(%rax),%xmm0
 8b2:	c5 fb 11 4c 24 f0    	vmovsd %xmm1,-0x10(%rsp)
 8b8:	c5 fb 59 4e f8       	vmulsd -0x8(%rsi),%xmm0,%xmm1
 8bd:	dc 44 24 f0          	faddl  -0x10(%rsp)
 8c1:	c5 fb 11 54 24 f0    	vmovsd %xmm2,-0x10(%rsp)
 8c7:	dc 44 24 f0          	faddl  -0x10(%rsp)
 8cb:	c5 fb 11 5c 24 f0    	vmovsd %xmm3,-0x10(%rsp)
 8d1:	dc 44 24 f0          	faddl  -0x10(%rsp)
 8d5:	c5 fb 11 64 24 f0    	vmovsd %xmm4,-0x10(%rsp)
 8db:	dc 44 24 f0          	faddl  -0x10(%rsp)
 8df:	c5 fb 11 6c 24 f0    	vmovsd %xmm5,-0x10(%rsp)
 8e5:	dc 44 24 f0          	faddl  -0x10(%rsp)
 8e9:	c5 fb 11 74 24 f0    	vmovsd %xmm6,-0x10(%rsp)
 8ef:	dc 44 24 f0          	faddl  -0x10(%rsp)
 8f3:	c5 fb 11 7c 24 f0    	vmovsd %xmm7,-0x10(%rsp)
 8f9:	dc 44 24 f0          	faddl  -0x10(%rsp)
 8fd:	c5 fb 11 4c 24 f0    	vmovsd %xmm1,-0x10(%rsp)
 903:	dc 44 24 f0          	faddl  -0x10(%rsp)
 907:	49 39 c1             	cmp    %rax,%r9
 90a:	0f 85 50 ff ff ff    	jne    860 <dotproduct_unwind_f64+0x30>
 910:	89 c8                	mov    %ecx,%eax
 912:	d9 c0                	fld    %st(0)
 914:	db 3a                	fstpt  (%rdx)
 916:	83 e0 f8             	and    $0xfffffff8,%eax
 919:	48 98                	cltq   
 91b:	48 39 c1             	cmp    %rax,%rcx
 91e:	76 32                	jbe    952 <dotproduct_unwind_f64+0x122>
 920:	48 c1 e0 03          	shl    $0x3,%rax
 924:	48 c1 e1 03          	shl    $0x3,%rcx
 928:	0f 1f 84 00 00 00 00 	nopl   0x0(%rax,%rax,1)
 92f:	00 
 930:	c5 fb 10 04 07       	vmovsd (%rdi,%rax,1),%xmm0
 935:	c4 c1 7b 59 14 00    	vmulsd (%r8,%rax,1),%xmm0,%xmm2
 93b:	48 83 c0 08          	add    $0x8,%rax
 93f:	c5 fb 11 54 24 f0    	vmovsd %xmm2,-0x10(%rsp)
 945:	dc 44 24 f0          	faddl  -0x10(%rsp)
 949:	48 39 c1             	cmp    %rax,%rcx
 94c:	75 e2                	jne    930 <dotproduct_unwind_f64+0x100>
 94e:	db 3a                	fstpt  (%rdx)
 950:	eb 02                	jmp    954 <dotproduct_unwind_f64+0x124>
 952:	df c0                	ffreep %st(0)
 954:	c3                   	ret    
 955:	66 66 2e 0f 1f 84 00 	data16 cs nopw 0x0(%rax,%rax,1)
 95c:	00 00 00 00 

0000000000000960 <dotproduct_simdi>:
 960:	f3 0f 1e fa          	endbr64 
 964:	49 89 d2             	mov    %rdx,%r10
 967:	49 89 c9             	mov    %rcx,%r9
 96a:	48 83 f9 02          	cmp    $0x2,%rcx
 96e:	0f 86 ac 00 00 00    	jbe    a20 <dotproduct_simdi+0xc0>
 974:	48 8d 41 fd          	lea    -0x3(%rcx),%rax
 978:	c5 f1 ef c9          	vpxor  %xmm1,%xmm1,%xmm1
 97c:	48 89 c2             	mov    %rax,%rdx
 97f:	c5 f9 6f d9          	vmovdqa %xmm1,%xmm3
 983:	48 c1 ea 02          	shr    $0x2,%rdx
 987:	48 8d 0c 95 04 00 00 	lea    0x4(,%rdx,4),%rcx
 98e:	00 
 98f:	31 d2                	xor    %edx,%edx
 991:	66 66 2e 0f 1f 84 00 	data16 cs nopw 0x0(%rax,%rax,1)
 998:	00 00 00 00 
 99c:	0f 1f 40 00          	nopl   0x0(%rax)
 9a0:	c5 fa 6f 2c 97       	vmovdqu (%rdi,%rdx,4),%xmm5
 9a5:	c5 fa 6f 34 97       	vmovdqu (%rdi,%rdx,4),%xmm6
 9aa:	c4 e2 51 28 24 96    	vpmuldq (%rsi,%rdx,4),%xmm5,%xmm4
 9b0:	c5 fa 6f 3c 96       	vmovdqu (%rsi,%rdx,4),%xmm7
 9b5:	48 83 c2 04          	add    $0x4,%rdx
 9b9:	c5 f9 73 d6 20       	vpsrlq $0x20,%xmm6,%xmm0
 9be:	c5 e9 73 d7 20       	vpsrlq $0x20,%xmm7,%xmm2
 9c3:	c4 e2 79 28 c2       	vpmuldq %xmm2,%xmm0,%xmm0
 9c8:	c5 d9 d4 db          	vpaddq %xmm3,%xmm4,%xmm3
 9cc:	c5 f9 d4 c9          	vpaddq %xmm1,%xmm0,%xmm1
 9d0:	48 39 ca             	cmp    %rcx,%rdx
 9d3:	75 cb                	jne    9a0 <dotproduct_simdi+0x40>
 9d5:	48 83 e0 fc          	and    $0xfffffffffffffffc,%rax
 9d9:	c5 f1 d4 cb          	vpaddq %xmm3,%xmm1,%xmm1
 9dd:	48 83 c0 04          	add    $0x4,%rax
 9e1:	c4 e1 f9 7e c9       	vmovq  %xmm1,%rcx
 9e6:	c4 e3 f9 16 ca 01    	vpextrq $0x1,%xmm1,%rdx
 9ec:	48 01 ca             	add    %rcx,%rdx
 9ef:	49 03 12             	add    (%r10),%rdx
 9f2:	49 89 12             	mov    %rdx,(%r10)
 9f5:	49 39 c1             	cmp    %rax,%r9
 9f8:	76 20                	jbe    a1a <dotproduct_simdi+0xba>
 9fa:	66 0f 1f 44 00 00    	nopw   0x0(%rax,%rax,1)
 a00:	48 63 0c 87          	movslq (%rdi,%rax,4),%rcx
 a04:	4c 63 04 86          	movslq (%rsi,%rax,4),%r8
 a08:	48 ff c0             	inc    %rax
 a0b:	49 0f af c8          	imul   %r8,%rcx
 a0f:	48 01 ca             	add    %rcx,%rdx
 a12:	49 39 c1             	cmp    %rax,%r9
 a15:	75 e9                	jne    a00 <dotproduct_simdi+0xa0>
 a17:	49 89 12             	mov    %rdx,(%r10)
 a1a:	c3                   	ret    
 a1b:	0f 1f 44 00 00       	nopl   0x0(%rax,%rax,1)
 a20:	c5 f1 ef c9          	vpxor  %xmm1,%xmm1,%xmm1
 a24:	31 c0                	xor    %eax,%eax
 a26:	eb b9                	jmp    9e1 <dotproduct_simdi+0x81>

Disassembly of section .text.startup:

0000000000000000 <main>:
   0:	f3 0f 1e fa          	endbr64 
   4:	41 57                	push   %r15
   6:	41 56                	push   %r14
   8:	41 55                	push   %r13
   a:	31 ff                	xor    %edi,%edi
   c:	41 54                	push   %r12
   e:	55                   	push   %rbp
   f:	53                   	push   %rbx
  10:	48 83 ec 18          	sub    $0x18,%rsp
  14:	64 48 8b 04 25 28 00 	mov    %fs:0x28,%rax
  1b:	00 00 
  1d:	48 89 44 24 08       	mov    %rax,0x8(%rsp)
  22:	31 c0                	xor    %eax,%eax
  24:	e8 00 00 00 00       	call   29 <main+0x29>
  29:	89 c7                	mov    %eax,%edi
  2b:	e8 00 00 00 00       	call   30 <main+0x30>
  30:	be 01 00 00 00       	mov    $0x1,%esi
  35:	bf 00 84 d7 17       	mov    $0x17d78400,%edi
  3a:	e8 00 00 00 00       	call   3f <main+0x3f>
  3f:	48 85 c0             	test   %rax,%rax
  42:	0f 84 00 02 00 00    	je     248 <main+0x248>
  48:	48 89 c5             	mov    %rax,%rbp
  4b:	49 89 c4             	mov    %rax,%r12
  4e:	48 8d 98 00 84 d7 17 	lea    0x17d78400(%rax),%rbx
  55:	66 66 2e 0f 1f 84 00 	data16 cs nopw 0x0(%rax,%rax,1)
  5c:	00 00 00 00 
  60:	e8 00 00 00 00       	call   65 <main+0x65>
  65:	49 83 c4 04          	add    $0x4,%r12
  69:	99                   	cltd   
  6a:	c1 ea 1e             	shr    $0x1e,%edx
  6d:	01 d0                	add    %edx,%eax
  6f:	83 e0 03             	and    $0x3,%eax
  72:	29 d0                	sub    %edx,%eax
  74:	ff c8                	dec    %eax
  76:	41 89 44 24 fc       	mov    %eax,-0x4(%r12)
  7b:	49 39 dc             	cmp    %rbx,%r12
  7e:	75 e0                	jne    60 <main+0x60>
  80:	be 01 00 00 00       	mov    $0x1,%esi
  85:	bf 00 84 d7 17       	mov    $0x17d78400,%edi
  8a:	e8 00 00 00 00       	call   8f <main+0x8f>
  8f:	49 89 c4             	mov    %rax,%r12
  92:	48 85 c0             	test   %rax,%rax
  95:	0f 84 d9 01 00 00    	je     274 <main+0x274>
  9b:	49 89 c5             	mov    %rax,%r13
  9e:	48 8d 98 00 84 d7 17 	lea    0x17d78400(%rax),%rbx
  a5:	66 66 2e 0f 1f 84 00 	data16 cs nopw 0x0(%rax,%rax,1)
  ac:	00 00 00 00 
  b0:	e8 00 00 00 00       	call   b5 <main+0xb5>
  b5:	49 83 c5 04          	add    $0x4,%r13
  b9:	99                   	cltd   
  ba:	c1 ea 1e             	shr    $0x1e,%edx
  bd:	01 d0                	add    %edx,%eax
  bf:	83 e0 03             	and    $0x3,%eax
  c2:	29 d0                	sub    %edx,%eax
  c4:	ff c8                	dec    %eax
  c6:	41 89 45 fc          	mov    %eax,-0x4(%r13)
  ca:	4c 39 eb             	cmp    %r13,%rbx
  cd:	75 e1                	jne    b0 <main+0xb0>
  cf:	49 89 e5             	mov    %rsp,%r13
  d2:	48 c7 04 24 00 00 00 	movq   $0x0,(%rsp)
  d9:	00 
  da:	e8 00 00 00 00       	call   df <main+0xdf>
  df:	b9 00 e1 f5 05       	mov    $0x5f5e100,%ecx
  e4:	4c 89 ea             	mov    %r13,%rdx
  e7:	4c 89 e6             	mov    %r12,%rsi
  ea:	48 89 ef             	mov    %rbp,%rdi
  ed:	48 89 c3             	mov    %rax,%rbx
  f0:	e8 00 00 00 00       	call   f5 <main+0xf5>
  f5:	e8 00 00 00 00       	call   fa <main+0xfa>
  fa:	c5 f1 57 c9          	vxorpd %xmm1,%xmm1,%xmm1
  fe:	48 29 d8             	sub    %rbx,%rax
 101:	4c 8d 3d 00 00 00 00 	lea    0x0(%rip),%r15        # 108 <main+0x108>
 108:	c4 e1 f3 2a c0       	vcvtsi2sd %rax,%xmm1,%xmm0
 10d:	c5 fb 5e 05 00 00 00 	vdivsd 0x0(%rip),%xmm0,%xmm0        # 115 <main+0x115>
 114:	00 
 115:	4c 89 fe             	mov    %r15,%rsi
 118:	bf 01 00 00 00       	mov    $0x1,%edi
 11d:	b8 01 00 00 00       	mov    $0x1,%eax
 122:	4c 8d 35 00 00 00 00 	lea    0x0(%rip),%r14        # 129 <main+0x129>
 129:	e8 00 00 00 00       	call   12e <main+0x12e>
 12e:	48 8b 14 24          	mov    (%rsp),%rdx
 132:	4c 89 f6             	mov    %r14,%rsi
 135:	bf 01 00 00 00       	mov    $0x1,%edi
 13a:	31 c0                	xor    %eax,%eax
 13c:	e8 00 00 00 00       	call   141 <main+0x141>
 141:	48 c7 04 24 00 00 00 	movq   $0x0,(%rsp)
 148:	00 
 149:	e8 00 00 00 00       	call   14e <main+0x14e>
 14e:	b9 00 e1 f5 05       	mov    $0x5f5e100,%ecx
 153:	4c 89 ea             	mov    %r13,%rdx
 156:	4c 89 e6             	mov    %r12,%rsi
 159:	48 89 ef             	mov    %rbp,%rdi
 15c:	48 89 c3             	mov    %rax,%rbx
 15f:	45 31 ed             	xor    %r13d,%r13d
 162:	e8 00 00 00 00       	call   167 <main+0x167>
 167:	e8 00 00 00 00       	call   16c <main+0x16c>
 16c:	c5 f1 57 c9          	vxorpd %xmm1,%xmm1,%xmm1
 170:	48 8d 35 00 00 00 00 	lea    0x0(%rip),%rsi        # 177 <main+0x177>
 177:	48 29 d8             	sub    %rbx,%rax
 17a:	bf 01 00 00 00       	mov    $0x1,%edi
 17f:	c4 e1 f3 2a c0       	vcvtsi2sd %rax,%xmm1,%xmm0
 184:	c5 fb 5e 05 00 00 00 	vdivsd 0x0(%rip),%xmm0,%xmm0        # 18c <main+0x18c>
 18b:	00 
 18c:	b8 01 00 00 00       	mov    $0x1,%eax
 191:	e8 00 00 00 00       	call   196 <main+0x196>
 196:	48 8b 14 24          	mov    (%rsp),%rdx
 19a:	48 8d 35 00 00 00 00 	lea    0x0(%rip),%rsi        # 1a1 <main+0x1a1>
 1a1:	bf 01 00 00 00       	mov    $0x1,%edi
 1a6:	31 c0                	xor    %eax,%eax
 1a8:	e8 00 00 00 00       	call   1ad <main+0x1ad>
 1ad:	e8 00 00 00 00       	call   1b2 <main+0x1b2>
 1b2:	31 d2                	xor    %edx,%edx
 1b4:	48 89 c3             	mov    %rax,%rbx
 1b7:	66 0f 1f 84 00 00 00 	nopw   0x0(%rax,%rax,1)
 1be:	00 00 
 1c0:	8b 44 95 00          	mov    0x0(%rbp,%rdx,4),%eax
 1c4:	41 0f af 04 94       	imul   (%r12,%rdx,4),%eax
 1c9:	48 ff c2             	inc    %rdx
 1cc:	48 98                	cltq   
 1ce:	49 01 c5             	add    %rax,%r13
 1d1:	48 81 fa 00 e1 f5 05 	cmp    $0x5f5e100,%rdx
 1d8:	75 e6                	jne    1c0 <main+0x1c0>
 1da:	e8 00 00 00 00       	call   1df <main+0x1df>
 1df:	c5 e9 57 d2          	vxorpd %xmm2,%xmm2,%xmm2
 1e3:	4c 89 fe             	mov    %r15,%rsi
 1e6:	bf 01 00 00 00       	mov    $0x1,%edi
 1eb:	48 29 d8             	sub    %rbx,%rax
 1ee:	c4 e1 eb 2a c0       	vcvtsi2sd %rax,%xmm2,%xmm0
 1f3:	c5 fb 5e 05 00 00 00 	vdivsd 0x0(%rip),%xmm0,%xmm0        # 1fb <main+0x1fb>
 1fa:	00 
 1fb:	b8 01 00 00 00       	mov    $0x1,%eax
 200:	e8 00 00 00 00       	call   205 <main+0x205>
 205:	4c 89 ea             	mov    %r13,%rdx
 208:	4c 89 f6             	mov    %r14,%rsi
 20b:	bf 01 00 00 00       	mov    $0x1,%edi
 210:	31 c0                	xor    %eax,%eax
 212:	e8 00 00 00 00       	call   217 <main+0x217>
 217:	48 89 ef             	mov    %rbp,%rdi
 21a:	e8 00 00 00 00       	call   21f <main+0x21f>
 21f:	4c 89 e7             	mov    %r12,%rdi
 222:	e8 00 00 00 00       	call   227 <main+0x227>
 227:	48 8b 44 24 08       	mov    0x8(%rsp),%rax
 22c:	64 48 2b 04 25 28 00 	sub    %fs:0x28,%rax
 233:	00 00 
 235:	75 38                	jne    26f <main+0x26f>
 237:	48 83 c4 18          	add    $0x18,%rsp
 23b:	31 c0                	xor    %eax,%eax
 23d:	5b                   	pop    %rbx
 23e:	5d                   	pop    %rbp
 23f:	41 5c                	pop    %r12
 241:	41 5d                	pop    %r13
 243:	41 5e                	pop    %r14
 245:	41 5f                	pop    %r15
 247:	c3                   	ret    
 248:	48 8b 0d 00 00 00 00 	mov    0x0(%rip),%rcx        # 24f <main+0x24f>
 24f:	48 8d 3d 00 00 00 00 	lea    0x0(%rip),%rdi        # 256 <main+0x256>
 256:	ba 23 00 00 00       	mov    $0x23,%edx
 25b:	be 01 00 00 00       	mov    $0x1,%esi
 260:	e8 00 00 00 00       	call   265 <main+0x265>
 265:	bf 01 00 00 00       	mov    $0x1,%edi
 26a:	e8 00 00 00 00       	call   26f <main+0x26f>
 26f:	e8 00 00 00 00       	call   274 <main+0x274>
 274:	48 8b 0d 00 00 00 00 	mov    0x0(%rip),%rcx        # 27b <main+0x27b>
 27b:	48 8d 3d 00 00 00 00 	lea    0x0(%rip),%rdi        # 282 <main+0x282>
 282:	ba 23 00 00 00       	mov    $0x23,%edx
 287:	be 01 00 00 00       	mov    $0x1,%esi
 28c:	e8 00 00 00 00       	call   291 <main+0x291>
 291:	bf 01 00 00 00       	mov    $0x1,%edi
 296:	e8 00 00 00 00       	call   29b <vec_fromFileStream_f64+0x6b>
