
./build/dummy.o:     file format elf64-x86-64

Contents of section .text:
 0000 f30f1efa 554889e5 4883ec30 48897de8  ....UH..H..0H.}.
 0010 488975e0 488955d8 48c745f8 00000000  H.u.H.U.H.E.....
 0020 eb5c488b 55e0488b 45f84801 c2488b45  .\H.U.H.E.H..H.E
 0030 e8488d0d 00000000 4889ce48 89c7b800  .H......H..H....
 0040 000000e8 00000000 83f80174 2d488b05  ...........t-H..
 0050 00000000 4889c1ba 2a000000 be010000  ....H...*.......
 0060 00488d05 00000000 4889c7e8 00000000  .H......H.......
 0070 bf010000 00e80000 000048ff 45f8488b  ..........H.E.H.
 0080 45f8483b 45d8729a 9090c9c3 f30f1efa  E.H;E.r.........
 0090 554889e5 4883ec30 48897de8 488975e0  UH..H..0H.}.H.u.
 00a0 488955d8 48c745f8 00000000 eb60488b  H.U.H.E......`H.
 00b0 45f8488d 1400488b 45e04801 c2488b45  E.H...H.E.H..H.E
 00c0 e8488d0d 00000000 4889ce48 89c7b800  .H......H..H....
 00d0 000000e8 00000000 83f80174 2d488b05  ...........t-H..
 00e0 00000000 4889c1ba 2b000000 be010000  ....H...+.......
 00f0 00488d05 00000000 4889c7e8 00000000  .H......H.......
 0100 bf010000 00e80000 000048ff 45f8488b  ..........H.E.H.
 0110 45f8483b 45d87296 9090c9c3 f30f1efa  E.H;E.r.........
 0120 554889e5 4883ec30 48897de8 488975e0  UH..H..0H.}.H.u.
 0130 488955d8 48c745f8 00000000 eb64488b  H.U.H.E......dH.
 0140 45f8488d 14850000 0000488b 45e04801  E.H.......H.E.H.
 0150 c2488b45 e8488d0d 00000000 4889ce48  .H.E.H......H..H
 0160 89c7b800 000000e8 00000000 83f80174  ...............t
 0170 2d488b05 00000000 4889c1ba 2b000000  -H......H...+...
 0180 be010000 00488d05 00000000 4889c7e8  .....H......H...
 0190 00000000 bf010000 00e80000 000048ff  ..............H.
 01a0 45f8488b 45f8483b 45d87292 9090c9c3  E.H.E.H;E.r.....
 01b0 f30f1efa 554889e5 4883ec30 48897de8  ....UH..H..0H.}.
 01c0 488975e0 488955d8 48c745f8 00000000  H.u.H.U.H.E.....
 01d0 eb64488b 45f8488d 14850000 0000488b  .dH.E.H.......H.
 01e0 45e04801 c2488b45 e8488d0d 00000000  E.H..H.E.H......
 01f0 4889ce48 89c7b800 000000e8 00000000  H..H............
 0200 83f80174 2d488b05 00000000 4889c1ba  ...t-H......H...
 0210 2d000000 be010000 00488d05 00000000  -........H......
 0220 4889c7e8 00000000 bf010000 00e80000  H...............
 0230 000048ff 45f8488b 45f8483b 45d87292  ..H.E.H.E.H;E.r.
 0240 9090c9c3 f30f1efa 554889e5 4883ec30  ........UH..H..0
 0250 48897de8 488975e0 488955d8 48c745f8  H.}.H.u.H.U.H.E.
 0260 00000000 eb64488b 45f8488d 14c50000  .....dH.E.H.....
 0270 0000488b 45e04801 c2488b45 e8488d0d  ..H.E.H..H.E.H..
 0280 00000000 4889ce48 89c7b800 000000e8  ....H..H........
 0290 00000000 83f80174 2d488b05 00000000  .......t-H......
 02a0 4889c1ba 2d000000 be010000 00488d05  H...-........H..
 02b0 00000000 4889c7e8 00000000 bf010000  ....H...........
 02c0 00e80000 000048ff 45f8488b 45f8483b  ......H.E.H.E.H;
 02d0 45d87292 9090c9c3 f30f1efa 554889e5  E.r.........UH..
 02e0 48897de8 488975e0 488955d8 48894dd0  H.}.H.u.H.U.H.M.
 02f0 48c745f8 00000000 eb3d488b 45d8488b  H.E......=H.E.H.
 0300 08488b55 e8488b45 f84801d0 0fb6000f  .H.U.H.E.H......
 0310 bed0488b 75e0488b 45f84801 f00fb600  ..H.u.H.E.H.....
 0320 0fbec00f afc24898 488d1401 488b45d8  ......H.H...H.E.
 0330 48891048 ff45f848 8b45f848 3b45d072  H..H.E.H.E.H;E.r
 0340 b990905d c3f30f1e fa554889 e548897d  ...].....UH..H.}
 0350 e8488975 e0488955 d848894d d048c745  .H.u.H.U.H.M.H.E
 0360 f8000000 00eb4348 8b45d848 8b08488b  ......CH.E.H..H.
 0370 45f8488d 1400488b 45e84801 d00fb700  E.H...H.E.H.....
 0380 0fbfd048 8b45f848 8d340048 8b45e048  ...H.E.H.4.H.E.H
 0390 01f00fb7 00980faf c2489848 8d140148  .........H.H...H
 03a0 8b45d848 891048ff 45f8488b 45f8483b  .E.H..H.E.H.E.H;
 03b0 45d072b3 90905dc3 f30f1efa 554889e5  E.r...].....UH..
 03c0 48897de8 488975e0 488955d8 48894dd0  H.}.H.u.H.U.H.M.
 03d0 48c745f8 00000000 eb45488b 45d8488b  H.E......EH.E.H.
 03e0 08488b45 f8488d14 85000000 00488b45  .H.E.H.......H.E
 03f0 e84801d0 8b10488b 45f8488d 34850000  .H....H.E.H.4...
 0400 0000488b 45e04801 f08b000f afc24898  ..H.E.H.......H.
 0410 488d1401 488b45d8 48891048 ff45f848  H...H.E.H..H.E.H
 0420 8b45f848 3b45d072 b190905d c3f30f1e  .E.H;E.r...]....
 0430 fa554889 e548897d e8488975 e0488955  .UH..H.}.H.u.H.U
 0440 d848894d d048c745 f8000000 00eb4c48  .H.M.H.E......LH
 0450 8b45d8db 28488b45 f8488d14 85000000  .E..(H.E.H......
 0460 00488b45 e84801d0 c5fa1008 488b45f8  .H.E.H......H.E.
 0470 488d1485 00000000 488b45e0 4801d0c5  H.......H.E.H...
 0480 fa1000c5 f259d0c5 fa1155cc d945ccde  .....Y....U..E..
 0490 c1488b45 d8db3848 ff45f848 8b45f848  .H.E..8H.E.H.E.H
 04a0 3b45d072 aa90905d c3f30f1e fa554889  ;E.r...].....UH.
 04b0 e548897d e8488975 e0488955 d848894d  .H.}.H.u.H.U.H.M
 04c0 d048c745 f8000000 00eb4c48 8b45d8db  .H.E......LH.E..
 04d0 28488b45 f8488d14 c5000000 00488b45  (H.E.H.......H.E
 04e0 e84801d0 c5fb1008 488b45f8 488d14c5  .H......H.E.H...
 04f0 00000000 488b45e0 4801d0c5 fb1000c5  ....H.E.H.......
 0500 f359d0c5 fb1155c8 dd45c8de c1488b45  .Y....U..E...H.E
 0510 d8db3848 ff45f848 8b45f848 3b45d072  ..8H.E.H.E.H;E.r
 0520 aa90905d c3f30f1e fa554889 e548897d  ...].....UH..H.}
 0530 e8488975 e0488955 d848894d d0c745f8  .H.u.H.U.H.M..E.
 0540 00000000 e9140200 00488b45 d8488b08  .........H.E.H..
 0550 8b45f848 98488b55 e84801d0 0fb6000f  .E.H.H.U.H......
 0560 bed08b45 f8489848 8b75e048 01f00fb6  ...E.H.H.u.H....
 0570 000fbec0 0fafc248 98488d14 01488b45  .......H.H...H.E
 0580 d8488910 488b45d8 488b088b 45f84898  .H..H.E.H...E.H.
 0590 488d5001 488b45e8 4801d00f b6000fbe  H.P.H.E.H.......
 05a0 d08b45f8 4898488d 7001488b 45e04801  ..E.H.H.p.H.E.H.
 05b0 f00fb600 0fbec00f afc24898 488d1401  ..........H.H...
 05c0 488b45d8 48891048 8b45d848 8b088b45  H.E.H..H.E.H...E
 05d0 f8489848 8d500248 8b45e848 01d00fb6  .H.H.P.H.E.H....
 05e0 000fbed0 8b45f848 98488d70 02488b45  .....E.H.H.p.H.E
 05f0 e04801f0 0fb6000f bec00faf c2489848  .H...........H.H
 0600 8d140148 8b45d848 8910488b 45d8488b  ...H.E.H..H.E.H.
 0610 088b45f8 4898488d 5003488b 45e84801  ..E.H.H.P.H.E.H.
 0620 d00fb600 0fbed08b 45f84898 488d7003  ........E.H.H.p.
 0630 488b45e0 4801f00f b6000fbe c00fafc2  H.E.H...........
 0640 4898488d 1401488b 45d84889 10488b45  H.H...H.E.H..H.E
 0650 d8488b08 8b45f848 98488d50 04488b45  .H...E.H.H.P.H.E
 0660 e84801d0 0fb6000f bed08b45 f8489848  .H.........E.H.H
 0670 8d700448 8b45e048 01f00fb6 000fbec0  .p.H.E.H........
 0680 0fafc248 98488d14 01488b45 d8488910  ...H.H...H.E.H..
 0690 488b45d8 488b088b 45f84898 488d5005  H.E.H...E.H.H.P.
 06a0 488b45e8 4801d00f b6000fbe d08b45f8  H.E.H.........E.
 06b0 4898488d 7005488b 45e04801 f00fb600  H.H.p.H.E.H.....
 06c0 0fbec00f afc24898 488d1401 488b45d8  ......H.H...H.E.
 06d0 48891048 8b45d848 8b088b45 f8489848  H..H.E.H...E.H.H
 06e0 8d500648 8b45e848 01d00fb6 000fbed0  .P.H.E.H........
 06f0 8b45f848 98488d70 06488b45 e04801f0  .E.H.H.p.H.E.H..
 0700 0fb6000f bec00faf c2489848 8d140148  .........H.H...H
 0710 8b45d848 8910488b 45d8488b 088b45f8  .E.H..H.E.H...E.
 0720 4898488d 5007488b 45e84801 d00fb600  H.H.P.H.E.H.....
 0730 0fbed08b 45f84898 488d7007 488b45e0  ....E.H.H.p.H.E.
 0740 4801f00f b6000fbe c00fafc2 4898488d  H...........H.H.
 0750 1401488b 45d84889 108345f8 088b45f8  ..H.E.H...E...E.
 0760 48984839 45d00f87 ddfdffff 488b45d0  H.H9E.......H.E.
 0770 83e0f889 45fceb3e 488b45d8 488b088b  ....E..>H.E.H...
 0780 45fc4898 488b55e8 4801d00f b6000fbe  E.H.H.U.H.......
 0790 d08b45fc 4898488b 75e04801 f00fb600  ..E.H.H.u.H.....
 07a0 0fbec00f afc24898 488d1401 488b45d8  ......H.H...H.E.
 07b0 488910ff 45fc8b45 fc489848 3945d077  H...E..E.H.H9E.w
 07c0 b790905d c3f30f1e fa554889 e548897d  ...].....UH..H.}
 07d0 e8488975 e0488955 d848894d d0c745f8  .H.u.H.U.H.M..E.
 07e0 00000000 e9420200 00488b45 d8488b08  .....B...H.E.H..
 07f0 8b45f848 98488d14 00488b45 e84801d0  .E.H.H...H.E.H..
 0800 0fb7000f bfd08b45 f8489848 8d340048  .......E.H.H.4.H
 0810 8b45e048 01f00fb7 00980faf c2489848  .E.H.........H.H
 0820 8d140148 8b45d848 8910488b 45d8488b  ...H.E.H..H.E.H.
 0830 088b45f8 489848ff c0488d14 00488b45  ..E.H.H..H...H.E
 0840 e84801d0 0fb7000f bfd08b45 f8489848  .H.........E.H.H
 0850 ffc0488d 3400488b 45e04801 f00fb700  ..H.4.H.E.H.....
 0860 980fafc2 4898488d 1401488b 45d84889  ....H.H...H.E.H.
 0870 10488b45 d8488b08 8b45f848 984883c0  .H.E.H...E.H.H..
 0880 02488d14 00488b45 e84801d0 0fb7000f  .H...H.E.H......
 0890 bfd08b45 f8489848 83c00248 8d340048  ...E.H.H...H.4.H
 08a0 8b45e048 01f00fb7 00980faf c2489848  .E.H.........H.H
 08b0 8d140148 8b45d848 8910488b 45d8488b  ...H.E.H..H.E.H.
 08c0 088b45f8 48984883 c003488d 1400488b  ..E.H.H...H...H.
 08d0 45e84801 d00fb700 0fbfd08b 45f84898  E.H.........E.H.
 08e0 4883c003 488d3400 488b45e0 4801f00f  H...H.4.H.E.H...
 08f0 b700980f afc24898 488d1401 488b45d8  ......H.H...H.E.
 0900 48891048 8b45d848 8b088b45 f8489848  H..H.E.H...E.H.H
 0910 83c00448 8d140048 8b45e848 01d00fb7  ...H...H.E.H....
 0920 000fbfd0 8b45f848 984883c0 04488d34  .....E.H.H...H.4
 0930 00488b45 e04801f0 0fb70098 0fafc248  .H.E.H.........H
 0940 98488d14 01488b45 d8488910 488b45d8  .H...H.E.H..H.E.
 0950 488b088b 45f84898 4883c005 488d1400  H...E.H.H...H...
 0960 488b45e8 4801d00f b7000fbf d08b45f8  H.E.H.........E.
 0970 48984883 c005488d 3400488b 45e04801  H.H...H.4.H.E.H.
 0980 f00fb700 980fafc2 4898488d 1401488b  ........H.H...H.
 0990 45d84889 10488b45 d8488b08 8b45f848  E.H..H.E.H...E.H
 09a0 984883c0 06488d14 00488b45 e84801d0  .H...H...H.E.H..
 09b0 0fb7000f bfd08b45 f8489848 83c00648  .......E.H.H...H
 09c0 8d340048 8b45e048 01f00fb7 00980faf  .4.H.E.H........
 09d0 c2489848 8d140148 8b45d848 8910488b  .H.H...H.E.H..H.
 09e0 45d8488b 088b45f8 48984883 c007488d  E.H...E.H.H...H.
 09f0 1400488b 45e84801 d00fb700 0fbfd08b  ..H.E.H.........
 0a00 45f84898 4883c007 488d3400 488b45e0  E.H.H...H.4.H.E.
 0a10 4801f00f b700980f afc24898 488d1401  H.........H.H...
 0a20 488b45d8 48891083 45f8088b 45f84898  H.E.H...E...E.H.
 0a30 483945d0 0f87affd ffff488b 45d083e0  H9E.......H.E...
 0a40 f88945fc eb44488b 45d8488b 088b45fc  ..E..DH.E.H...E.
 0a50 4898488d 1400488b 45e84801 d00fb700  H.H...H.E.H.....
 0a60 0fbfd08b 45fc4898 488d3400 488b45e0  ....E.H.H.4.H.E.
 0a70 4801f00f b700980f afc24898 488d1401  H.........H.H...
 0a80 488b45d8 488910ff 45fc8b45 fc489848  H.E.H...E..E.H.H
 0a90 3945d077 b190905d c3f30f1e fa554889  9E.w...].....UH.
 0aa0 e548897d e8488975 e0488955 d848894d  .H.}.H.u.H.U.H.M
 0ab0 d0c745f8 00000000 e9520200 00488b45  ..E......R...H.E
 0ac0 d8488b08 8b45f848 98488d14 85000000  .H...E.H.H......
 0ad0 00488b45 e84801d0 8b108b45 f8489848  .H.E.H.....E.H.H
 0ae0 8d348500 00000048 8b45e048 01f08b00  .4.....H.E.H....
 0af0 0fafc248 98488d14 01488b45 d8488910  ...H.H...H.E.H..
 0b00 488b45d8 488b088b 45f84898 48ffc048  H.E.H...E.H.H..H
 0b10 8d148500 00000048 8b45e848 01d08b10  .......H.E.H....
 0b20 8b45f848 9848ffc0 488d3485 00000000  .E.H.H..H.4.....
 0b30 488b45e0 4801f08b 000fafc2 4898488d  H.E.H.......H.H.
 0b40 1401488b 45d84889 10488b45 d8488b08  ..H.E.H..H.E.H..
 0b50 8b45f848 984883c0 02488d14 85000000  .E.H.H...H......
 0b60 00488b45 e84801d0 8b108b45 f8489848  .H.E.H.....E.H.H
 0b70 83c00248 8d348500 00000048 8b45e048  ...H.4.....H.E.H
 0b80 01f08b00 0fafc248 98488d14 01488b45  .......H.H...H.E
 0b90 d8488910 488b45d8 488b088b 45f84898  .H..H.E.H...E.H.
 0ba0 4883c003 488d1485 00000000 488b45e8  H...H.......H.E.
 0bb0 4801d08b 108b45f8 48984883 c003488d  H.....E.H.H...H.
 0bc0 34850000 0000488b 45e04801 f08b000f  4.....H.E.H.....
 0bd0 afc24898 488d1401 488b45d8 48891048  ..H.H...H.E.H..H
 0be0 8b45d848 8b088b45 f8489848 83c00448  .E.H...E.H.H...H
 0bf0 8d148500 00000048 8b45e848 01d08b10  .......H.E.H....
 0c00 8b45f848 984883c0 04488d34 85000000  .E.H.H...H.4....
 0c10 00488b45 e04801f0 8b000faf c2489848  .H.E.H.......H.H
 0c20 8d140148 8b45d848 8910488b 45d8488b  ...H.E.H..H.E.H.
 0c30 088b45f8 48984883 c005488d 14850000  ..E.H.H...H.....
 0c40 0000488b 45e84801 d08b108b 45f84898  ..H.E.H.....E.H.
 0c50 4883c005 488d3485 00000000 488b45e0  H...H.4.....H.E.
 0c60 4801f08b 000fafc2 4898488d 1401488b  H.......H.H...H.
 0c70 45d84889 10488b45 d8488b08 8b45f848  E.H..H.E.H...E.H
 0c80 984883c0 06488d14 85000000 00488b45  .H...H.......H.E
 0c90 e84801d0 8b108b45 f8489848 83c00648  .H.....E.H.H...H
 0ca0 8d348500 00000048 8b45e048 01f08b00  .4.....H.E.H....
 0cb0 0fafc248 98488d14 01488b45 d8488910  ...H.H...H.E.H..
 0cc0 488b45d8 488b088b 45f84898 4883c007  H.E.H...E.H.H...
 0cd0 488d1485 00000000 488b45e8 4801d08b  H.......H.E.H...
 0ce0 108b45f8 48984883 c007488d 34850000  ..E.H.H...H.4...
 0cf0 0000488b 45e04801 f08b000f afc24898  ..H.E.H.......H.
 0d00 488d1401 488b45d8 48891083 45f8088b  H...H.E.H...E...
 0d10 45f84898 483945d0 0f879ffd ffff488b  E.H.H9E.......H.
 0d20 45d083e0 f88945fc eb46488b 45d8488b  E.....E..FH.E.H.
 0d30 088b45fc 4898488d 14850000 0000488b  ..E.H.H.......H.
 0d40 45e84801 d08b108b 45fc4898 488d3485  E.H.....E.H.H.4.
 0d50 00000000 488b45e0 4801f08b 000fafc2  ....H.E.H.......
 0d60 4898488d 1401488b 45d84889 10ff45fc  H.H...H.E.H...E.
 0d70 8b45fc48 98483945 d077af90 905dc3f3  .E.H.H9E.w...]..
 0d80 0f1efa55 4889e548 897de848 8975e048  ...UH..H.}.H.u.H
 0d90 8955d848 894dd0c7 45f80000 0000e98a  .U.H.M..E.......
 0da0 02000048 8b45d8db 288b45f8 4898488d  ...H.E..(.E.H.H.
 0db0 14850000 0000488b 45e84801 d0c5fa10  ......H.E.H.....
 0dc0 088b45f8 4898488d 14850000 0000488b  ..E.H.H.......H.
 0dd0 45e04801 d0c5fa10 00c5f259 d0c5fa11  E.H........Y....
 0de0 55ccd945 ccdec148 8b45d8db 38488b45  U..E...H.E..8H.E
 0df0 d8db288b 45f84898 48ffc048 8d148500  ..(.E.H.H..H....
 0e00 00000048 8b45e848 01d0c5fa 10088b45  ...H.E.H.......E
 0e10 f8489848 ffc0488d 14850000 0000488b  .H.H..H.......H.
 0e20 45e04801 d0c5fa10 00c5f259 d8c5fa11  E.H........Y....
 0e30 5dccd945 ccdec148 8b45d8db 38488b45  ]..E...H.E..8H.E
 0e40 d8db288b 45f84898 4883c002 488d1485  ..(.E.H.H...H...
 0e50 00000000 488b45e8 4801d0c5 fa10088b  ....H.E.H.......
 0e60 45f84898 4883c002 488d1485 00000000  E.H.H...H.......
 0e70 488b45e0 4801d0c5 fa1000c5 f259e0c5  H.E.H........Y..
 0e80 fa1165cc d945ccde c1488b45 d8db3848  ..e..E...H.E..8H
 0e90 8b45d8db 288b45f8 48984883 c003488d  .E..(.E.H.H...H.
 0ea0 14850000 0000488b 45e84801 d0c5fa10  ......H.E.H.....
 0eb0 088b45f8 48984883 c003488d 14850000  ..E.H.H...H.....
 0ec0 0000488b 45e04801 d0c5fa10 00c5f259  ..H.E.H........Y
 0ed0 e8c5fa11 6dccd945 ccdec148 8b45d8db  ....m..E...H.E..
 0ee0 38488b45 d8db288b 45f84898 4883c004  8H.E..(.E.H.H...
 0ef0 488d1485 00000000 488b45e8 4801d0c5  H.......H.E.H...
 0f00 fa10088b 45f84898 4883c004 488d1485  ....E.H.H...H...
 0f10 00000000 488b45e0 4801d0c5 fa1000c5  ....H.E.H.......
 0f20 f259f0c5 fa1175cc d945ccde c1488b45  .Y....u..E...H.E
 0f30 d8db3848 8b45d8db 288b45f8 48984883  ..8H.E..(.E.H.H.
 0f40 c005488d 14850000 0000488b 45e84801  ..H.......H.E.H.
 0f50 d0c5fa10 088b45f8 48984883 c005488d  ......E.H.H...H.
 0f60 14850000 0000488b 45e04801 d0c5fa10  ......H.E.H.....
 0f70 00c5f259 f8c5fa11 7dccd945 ccdec148  ...Y....}..E...H
 0f80 8b45d8db 38488b45 d8db288b 45f84898  .E..8H.E..(.E.H.
 0f90 4883c006 488d1485 00000000 488b45e8  H...H.......H.E.
 0fa0 4801d0c5 fa10088b 45f84898 4883c006  H.......E.H.H...
 0fb0 488d1485 00000000 488b45e0 4801d0c5  H.......H.E.H...
 0fc0 fa1000c5 f259d0c5 fa1155cc d945ccde  .....Y....U..E..
 0fd0 c1488b45 d8db3848 8b45d8db 288b45f8  .H.E..8H.E..(.E.
 0fe0 48984883 c007488d 14850000 0000488b  H.H...H.......H.
 0ff0 45e84801 d0c5fa10 088b45f8 48984883  E.H.......E.H.H.
 1000 c007488d 14850000 0000488b 45e04801  ..H.......H.E.H.
 1010 d0c5fa10 00c5f259 d8c5fa11 5dccd945  .......Y....]..E
 1020 ccdec148 8b45d8db 388345f8 088b45f8  ...H.E..8.E...E.
 1030 48984839 45d00f87 67fdffff 488b45d0  H.H9E...g...H.E.
 1040 83e0f889 45fceb4d 488b45d8 db288b45  ....E..MH.E..(.E
 1050 fc489848 8d148500 00000048 8b45e848  .H.H.......H.E.H
 1060 01d0c5fa 10088b45 fc489848 8d148500  .......E.H.H....
 1070 00000048 8b45e048 01d0c5fa 1000c5f2  ...H.E.H........
 1080 59e0c5fa 1165ccd9 45ccdec1 488b45d8  Y....e..E...H.E.
 1090 db38ff45 fc8b45fc 48984839 45d077a8  .8.E..E.H.H9E.w.
 10a0 90905dc3 f30f1efa 554889e5 48897de8  ..].....UH..H.}.
 10b0 488975e0 488955d8 48894dd0 c745f800  H.u.H.U.H.M..E..
 10c0 000000e9 8a020000 488b45d8 db288b45  ........H.E..(.E
 10d0 f8489848 8d14c500 00000048 8b45e848  .H.H.......H.E.H
 10e0 01d0c5fb 10088b45 f8489848 8d14c500  .......E.H.H....
 10f0 00000048 8b45e048 01d0c5fb 1000c5f3  ...H.E.H........
 1100 59d0c5fb 1155c8dd 45c8dec1 488b45d8  Y....U..E...H.E.
 1110 db38488b 45d8db28 8b45f848 9848ffc0  .8H.E..(.E.H.H..
 1120 488d14c5 00000000 488b45e8 4801d0c5  H.......H.E.H...
 1130 fb10088b 45f84898 48ffc048 8d14c500  ....E.H.H..H....
 1140 00000048 8b45e048 01d0c5fb 1000c5f3  ...H.E.H........
 1150 59d8c5fb 115dc8dd 45c8dec1 488b45d8  Y....]..E...H.E.
 1160 db38488b 45d8db28 8b45f848 984883c0  .8H.E..(.E.H.H..
 1170 02488d14 c5000000 00488b45 e84801d0  .H.......H.E.H..
 1180 c5fb1008 8b45f848 984883c0 02488d14  .....E.H.H...H..
 1190 c5000000 00488b45 e04801d0 c5fb1000  .....H.E.H......
 11a0 c5f359e0 c5fb1165 c8dd45c8 dec1488b  ..Y....e..E...H.
 11b0 45d8db38 488b45d8 db288b45 f8489848  E..8H.E..(.E.H.H
 11c0 83c00348 8d14c500 00000048 8b45e848  ...H.......H.E.H
 11d0 01d0c5fb 10088b45 f8489848 83c00348  .......E.H.H...H
 11e0 8d14c500 00000048 8b45e048 01d0c5fb  .......H.E.H....
 11f0 1000c5f3 59e8c5fb 116dc8dd 45c8dec1  ....Y....m..E...
 1200 488b45d8 db38488b 45d8db28 8b45f848  H.E..8H.E..(.E.H
 1210 984883c0 04488d14 c5000000 00488b45  .H...H.......H.E
 1220 e84801d0 c5fb1008 8b45f848 984883c0  .H.......E.H.H..
 1230 04488d14 c5000000 00488b45 e04801d0  .H.......H.E.H..
 1240 c5fb1000 c5f359f0 c5fb1175 c8dd45c8  ......Y....u..E.
 1250 dec1488b 45d8db38 488b45d8 db288b45  ..H.E..8H.E..(.E
 1260 f8489848 83c00548 8d14c500 00000048  .H.H...H.......H
 1270 8b45e848 01d0c5fb 10088b45 f8489848  .E.H.......E.H.H
 1280 83c00548 8d14c500 00000048 8b45e048  ...H.......H.E.H
 1290 01d0c5fb 1000c5f3 59f8c5fb 117dc8dd  ........Y....}..
 12a0 45c8dec1 488b45d8 db38488b 45d8db28  E...H.E..8H.E..(
 12b0 8b45f848 984883c0 06488d14 c5000000  .E.H.H...H......
 12c0 00488b45 e84801d0 c5fb1008 8b45f848  .H.E.H.......E.H
 12d0 984883c0 06488d14 c5000000 00488b45  .H...H.......H.E
 12e0 e04801d0 c5fb1000 c5f359d0 c5fb1155  .H........Y....U
 12f0 c8dd45c8 dec1488b 45d8db38 488b45d8  ..E...H.E..8H.E.
 1300 db288b45 f8489848 83c00748 8d14c500  .(.E.H.H...H....
 1310 00000048 8b45e848 01d0c5fb 10088b45  ...H.E.H.......E
 1320 f8489848 83c00748 8d14c500 00000048  .H.H...H.......H
 1330 8b45e048 01d0c5fb 1000c5f3 59d8c5fb  .E.H........Y...
 1340 115dc8dd 45c8dec1 488b45d8 db388345  .]..E...H.E..8.E
 1350 f8088b45 f8489848 3945d00f 8767fdff  ...E.H.H9E...g..
 1360 ff488b45 d083e0f8 8945fceb 4d488b45  .H.E.....E..MH.E
 1370 d8db288b 45fc4898 488d14c5 00000000  ..(.E.H.H.......
 1380 488b45e8 4801d0c5 fb10088b 45fc4898  H.E.H.......E.H.
 1390 488d14c5 00000000 488b45e0 4801d0c5  H.......H.E.H...
 13a0 fb1000c5 f359e0c5 fb1165c8 dd45c8de  .....Y....e..E..
 13b0 c1488b45 d8db38ff 45fc8b45 fc489848  .H.E..8.E..E.H.H
 13c0 3945d077 a890905d c3f30f1e fa554889  9E.w...].....UH.
 13d0 e54883ec 6048897d b8488975 b0488955  .H..`H.}.H.u.H.U
 13e0 a848894d a064488b 04252800 00004889  .H.M.dH..%(...H.
 13f0 45f831c0 48c745c8 00000000 488b45c8  E.1.H.E.....H.E.
 1400 488945e8 488b45a0 488945e0 488b45b0  H.E.H.E.H.E.H.E.
 1410 488945d8 488b45b8 488945d0 488d45d0  H.E.H.E.H.E.H.E.
 1420 b9000000 00ba0000 00004889 c6488d05  ..........H..H..
 1430 ca0f0000 4889c7e8 00000000 488b45e8  ....H.......H.E.
 1440 488945c8 488b45a8 488b1048 8b45c848  H.E.H.E.H..H.E.H
 1450 01c2488b 45a84889 1090488b 45f86448  ..H.E.H...H.E.dH
 1460 2b042528 00000074 05e80000 0000c9c3  +.%(...t........
 1470 f30f1efa 554889e5 4883ec60 48897db8  ....UH..H..`H.}.
 1480 488975b0 488955a8 48894da0 64488b04  H.u.H.U.H.M.dH..
 1490 25280000 00488945 f831c048 c745c800  %(...H.E.1.H.E..
 14a0 00000048 8b45c848 8945e848 8b45a048  ...H.E.H.E.H.E.H
 14b0 8945e048 8b45b048 8945d848 8b45b848  .E.H.E.H.E.H.E.H
 14c0 8945d048 8d45d0b9 00000000 ba000000  .E.H.E..........
 14d0 004889c6 488d0514 10000048 89c7e800  .H..H......H....
 14e0 00000048 8b45e848 8945c848 8b45a848  ...H.E.H.E.H.E.H
 14f0 8b10488b 45c84801 c2488b45 a8488910  ..H.E.H..H.E.H..
 1500 90488b45 f864482b 04252800 00007405  .H.E.dH+.%(...t.
 1510 e8000000 00c9c3f3 0f1efa55 4889e548  ...........UH..H
 1520 83ec6048 897db848 8975b048 8955a848  ..`H.}.H.u.H.U.H
 1530 894da064 488b0425 28000000 488945f8  .M.dH..%(...H.E.
 1540 31c048c7 45c80000 0000488b 45c84889  1.H.E.....H.E.H.
 1550 45e8488b 45a04889 45e0488b 45b04889  E.H.E.H.E.H.E.H.
 1560 45d8488b 45b84889 45d0488d 45d0b900  E.H.E.H.E.H.E...
 1570 000000ba 00000000 4889c648 8d056410  ........H..H..d.
 1580 00004889 c7e80000 0000488b 45e84889  ..H.......H.E.H.
 1590 45c8488b 45a8488b 10488b45 c84801c2  E.H.E.H..H.E.H..
 15a0 488b45a8 48891090 488b45f8 64482b04  H.E.H...H.E.dH+.
 15b0 25280000 007405e8 00000000 c9c3f30f  %(...t..........
 15c0 1efa5548 89e54883 ec704889 7da84889  ..UH..H..pH.}.H.
 15d0 75a04889 55984889 4d906448 8b042528  u.H.U.H.M.dH..%(
 15e0 00000048 8945f831 c0d9eedb 7db0db6d  ...H.E.1....}..m
 15f0 b0db7dc0 488b4590 488945e0 488b45a0  ..}.H.E.H.E.H.E.
 1600 488945d8 488b45a8 488945d0 488d45c0  H.E.H.E.H.E.H.E.
 1610 b9000000 00ba0000 00004889 c6488d05  ..........H..H..
 1620 bb100000 4889c7e8 00000000 db6dc0db  ....H........m..
 1630 7db0488b 4598db28 db6db0de c1488b45  }.H.E..(.m...H.E
 1640 98db3890 488b45f8 64482b04 25280000  ..8.H.E.dH+.%(..
 1650 007405e8 00000000 c9c3f30f 1efa5548  .t............UH
 1660 89e54883 ec704889 7da84889 75a04889  ..H..pH.}.H.u.H.
 1670 55984889 4d906448 8b042528 00000048  U.H.M.dH..%(...H
 1680 8945f831 c0d9eedb 7db0db6d b0db7dc0  .E.1....}..m..}.
 1690 488b4590 488945e0 488b45a0 488945d8  H.E.H.E.H.E.H.E.
 16a0 488b45a8 488945d0 488d45c0 b9000000  H.E.H.E.H.E.....
 16b0 00ba0000 00004889 c6488d05 2c110000  ......H..H..,...
 16c0 4889c7e8 00000000 db6dc0db 7db0488b  H........m..}.H.
 16d0 4598db28 db6db0de c1488b45 98db3890  E..(.m...H.E..8.
 16e0 488b45f8 64482b04 25280000 007405e8  H.E.dH+.%(...t..
 16f0 00000000 c9c3f30f 1efa5548 89e54155  ..........UH..AU
 1700 41545348 83ec7048 89d04889 cac5f9ef  ATSH..pH..H.....
 1710 c0c5796f c0c5f9ef c0c5796f c84989fc  ..yo......yo.I..
 1720 4989f5bb 00000000 e9370100 004889d9  I........7...H..
 1730 48c1e902 48c1e104 4c01e148 898d18ff  H...H...L..H....
 1740 ffff488b 8d18ffff ffc5fbf0 01c5f96f  ..H............o
 1750 d04889d9 48c1e902 48c1e104 4c01e948  .H..H...H...L..H
 1760 898d10ff ffff488b 8d10ffff ffc5fbf0  ......H.........
 1770 01c5f96f d8c5f97f 55a0c5f9 7f5db0c5  ...o....U....]..
 1780 f96f45b0 c5f96f4d a0c4e271 28c090c5  .oE...oM...q(...
 1790 f96fe0c5 f97f5590 c7850cff ffff2000  .o....U....... .
 17a0 0000c5f9 6f4d90c5 f96e850c ffffffc5  ....oM...n......
 17b0 f1d3c090 c5f96fe8 c5f97f5d 80c78508  ......o....]....
 17c0 ffffff20 000000c5 f96f4d80 c5f96e85  ... .....oM...n.
 17d0 08ffffff c5f1d3c0 90c5f96f f0c5f97f  ...........o....
 17e0 ad60ffff ffc5f97f b570ffff ffc5f96f  .`.......p.....o
 17f0 8570ffff ffc5f96f 8d60ffff ffc4e271  .p.....o.`.....q
 1800 28c090c5 f96fe8c5 797fc7c5 f97fbd40  (....o..y......@
 1810 ffffffc5 f97fa550 ffffffc5 f96f8d40  .......P.....o.@
 1820 ffffffc5 f96f8550 ffffffc5 f1d4c0c5  .....o.P........
 1830 796fc0c5 797fcfc5 f97fbd20 ffffffc5  yo..y...... ....
 1840 f97fad30 ffffffc5 f96f8d20 ffffffc5  ...0.....o. ....
 1850 f96f8530 ffffffc5 f1d4c090 c5796fc8  .o.0.........yo.
 1860 4883c304 488d4b03 4839ca0f 83bcfeff  H...H.K.H9......
 1870 ffc5797f c6c5f97f 75c0c579 7fcfc5f9  ..y.....u..y....
 1880 7f7dd0c5 f96f4dc0 c5f96f45 d0c5f1d4  .}...oM...oE....
 1890 c0c5f96f e04c8b00 c4c1f97e e1c4e3f9  ...o.L.....~....
 18a0 16e1014c 01c94c01 c1488908 eb304c8b  ...L..L..H...0L.
 18b0 08488d0c 9d000000 004801f9 8b094c63  .H.......H....Lc
 18c0 c1488d0c 9d000000 004801f1 8b094863  .H.......H....Hc
 18d0 c9490faf c84c01c9 48890848 ffc34839  .I...L..H..H..H9
 18e0 d372cb90 904883c4 705b415c 415d5dc3  .r...H..p[A\A]].
 18f0 f30f1efa 554889e5 534881ec c8000000  ....UH..SH......
 1900 4889d048 89ca6448 8b0c2528 00000048  H..H..dH..%(...H
 1910 894de831 c9c5f957 c0c5f928 e8c5f957  .M.1...W...(...W
 1920 c0c5f928 f0bb0000 0000eb7e 488d0cdd  ...(.......~H...
 1930 00000000 4801f948 898d48ff ffff488b  ....H..H..H...H.
 1940 8d48ffff ffc5f910 01c5f928 d8488d0c  .H.........(.H..
 1950 dd000000 004801f1 48898d40 ffffff48  .....H..H..@...H
 1960 8b8d40ff ffffc5f9 1001c5f9 295d80c5  ..@.........)]..
 1970 f9294590 c5f92845 80c5f959 4590c5f9  .)E...(E...YE...
 1980 28e5c5f9 29a560ff ffffc5f9 298570ff  (...).`.....).p.
 1990 ffffc5f9 288560ff ffffc5f9 588570ff  ....(.`.....X.p.
 19a0 ffffc5f9 28e84883 c302488d 4b014839  ....(.H...H.K.H9
 19b0 ca0f8375 ffffffc5 f9296dc0 c5f92975  ...u.....)m...)u
 19c0 d0c5f928 45c0c5f9 5845d0c5 f928d0c5  ...(E...XE...(..
 19d0 f9299550 ffffffc5 fb108d50 ffffffc5  .).P.......P....
 19e0 f92955a0 c5f92955 b0c5f928 45b0c5f9  .)U...)U...(E...
 19f0 1245a890 c5f92985 50ffffff c5fb1085  .E....).P.......
 1a00 50ffffff c5f358f8 c5fb11bd 38ffffff  P.....X.....8...
 1a10 db28dd85 38ffffff dec1db38 eb39db28  .(..8......8.9.(
 1a20 488d0cdd 00000000 4801f9c5 fb100948  H.......H......H
 1a30 8d0cdd00 00000048 01f1c5fb 1001c5f3  .......H........
 1a40 59e0c5fb 11a538ff ffffdd85 38ffffff  Y.....8.....8...
 1a50 dec1db38 48ffc348 39d372c2 90488b45  ...8H..H9.r..H.E
 1a60 e864482b 04252800 00007405 e8000000  .dH+.%(...t.....
 1a70 00488b5d f8c9c3f3 0f1efa55 4889e548  .H.].......UH..H
 1a80 81ecd000 000089bd 3cffffff 4889b530  ........<...H..0
 1a90 ffffff64 488b0425 28000000 488945f8  ...dH..%(...H.E.
 1aa0 31c0bf00 000000e8 00000000 89c7e800  1...............
 1ab0 00000083 bd3cffff ff027f32 488b8530  .....<.....2H..0
 1ac0 ffffff48 8b10488b 05000000 00488d0d  ...H..H......H..
 1ad0 00000000 4889ce48 89c7b800 000000e8  ....H..H........
 1ae0 00000000 b8010000 00e9fa08 0000488b  ..............H.
 1af0 8530ffff ff4883c0 08488b00 4889c7e8  .0...H...H..H...
 1b00 00000000 48898560 ffffff48 8b8530ff  ....H..`...H..0.
 1b10 ffff488b 40104889 8568ffff ff488b85  ..H.@.H..h...H..
 1b20 68ffffff 488d1500 00000048 89d64889  h...H......H..H.
 1b30 c7e80000 000085c0 0f85f103 0000488b  ..............H.
 1b40 8560ffff ff48c1e0 024889c7 e8000000  .`...H...H......
 1b50 00488945 9848837d 9800752d 488b0500  .H.E.H.}..u-H...
 1b60 00000048 89c1ba20 000000be 01000000  ...H... ........
 1b70 488d0500 00000048 89c7e800 000000bf  H......H........
 1b80 01000000 e8000000 00488b85 60ffffff  .........H..`...
 1b90 488d1485 00000000 488b4598 be000000  H.......H.E.....
 1ba0 004889c7 e8000000 00488b85 60ffffff  .H.......H..`...
 1bb0 48c1e002 4889c7e8 00000000 488945a0  H...H.......H.E.
 1bc0 48837da0 00752d48 8b050000 00004889  H.}..u-H......H.
 1bd0 c1ba2000 0000be01 00000048 8d050000  .. ........H....
 1be0 00004889 c7e80000 0000bf01 000000e8  ..H.............
 1bf0 00000000 488b8560 ffffff48 8d148500  ....H..`...H....
 1c00 00000048 8b45a0be 00000000 4889c7e8  ...H.E......H...
 1c10 00000000 48c745c0 00000000 48c78540  ....H.E.....H..@
 1c20 ffffff00 000000eb 34e80000 000099c1  ........4.......
 1c30 ea1e01d0 83e00329 d089c148 8b8540ff  .......)...H..@.
 1c40 ffff488d 14850000 0000488b 45984801  ..H.......H.E.H.
 1c50 d08d51fe 891048ff 8540ffff ff488b85  ..Q...H..@...H..
 1c60 40ffffff 483b8560 ffffff72 bc48c785  @...H;.`...r.H..
 1c70 48ffffff 00000000 eb34e800 00000099  H........4......
 1c80 c1ea1e01 d083e003 29d089c1 488b8548  ........)...H..H
 1c90 ffffff48 8d148500 00000048 8b45a048  ...H.......H.E.H
 1ca0 01d08d51 fe891048 ff8548ff ffff488b  ...Q...H..H...H.
 1cb0 8548ffff ff483b85 60ffffff 72bc488d  .H...H;.`...r.H.
 1cc0 05000000 004889c7 e8000000 00488d45  .....H.......H.E
 1cd0 d04889c6 bf020000 00e80000 0000488b  .H............H.
 1ce0 9560ffff ff488d45 c0488b75 a0488b7d  .`...H.E.H.u.H.}
 1cf0 984889d1 4889c2e8 00000000 488d45e0  .H..H.......H.E.
 1d00 4889c6bf 02000000 e8000000 00488b45  H............H.E
 1d10 e0488b55 d04829d0 c4e1f32a c8488b45  .H.U.H)....*.H.E
 1d20 e8488b55 d84829d0 c4e1fb2a c0c5fb10  .H.U.H)....*....
 1d30 15000000 00c5fb5e c2c5f358 c0c5fb11  .......^...X....
 1d40 45a8488b 45a8c4e1 f96ec048 8d050000  E.H.E....n.H....
 1d50 00004889 c7b80100 0000e800 00000048  ..H............H
 1d60 8b45c048 89c6488d 05000000 004889c7  .E.H..H......H..
 1d70 b8000000 00e80000 000048c7 45c00000  ..........H.E...
 1d80 0000488d 05000000 004889c7 e8000000  ..H......H......
 1d90 00488d45 d04889c6 bf020000 00e80000  .H.E.H..........
 1da0 0000488b 9560ffff ff488d45 c0488b75  ..H..`...H.E.H.u
 1db0 a0488b7d 984889d1 4889c2e8 00000000  .H.}.H..H.......
 1dc0 488d45e0 4889c6bf 02000000 e8000000  H.E.H...........
 1dd0 00488b45 e0488b55 d04829d0 c4e1f32a  .H.E.H.U.H)....*
 1de0 c8488b45 e8488b55 d84829d0 c4e1fb2a  .H.E.H.U.H)....*
 1df0 c0c5fb10 15000000 00c5fb5e c2c5f358  ...........^...X
 1e00 c0c5fb11 45b0488b 45b0c4e1 f96ec048  ....E.H.E....n.H
 1e10 8d050000 00004889 c7b80100 0000e800  ......H.........
 1e20 00000048 8b45c048 89c6488d 05000000  ...H.E.H..H.....
 1e30 004889c7 b8000000 00e80000 000048c7  .H............H.
 1e40 45c00000 0000488d 05000000 004889c7  E.....H......H..
 1e50 e8000000 00488d45 d04889c6 bf020000  .....H.E.H......
 1e60 00e80000 0000488b 9560ffff ff488d45  ......H..`...H.E
 1e70 c0488b75 a0488b7d 984889d1 4889c2e8  .H.u.H.}.H..H...
 1e80 00000000 488d45e0 4889c6bf 02000000  ....H.E.H.......
 1e90 e8000000 00488b45 e0488b55 d04829d0  .....H.E.H.U.H).
 1ea0 c4e1f32a c8488b45 e8488b55 d84829d0  ...*.H.E.H.U.H).
 1eb0 c4e1fb2a c0c5fb10 15000000 00c5fb5e  ...*...........^
 1ec0 c2c5f358 c0c5fb11 45b8488b 45b8c4e1  ...X....E.H.E...
 1ed0 f96ec048 8d050000 00004889 c7b80100  .n.H......H.....
 1ee0 0000e800 00000048 8b45c048 89c6488d  .......H.E.H..H.
 1ef0 05000000 004889c7 b8000000 00e80000  .....H..........
 1f00 0000488b 45984889 c7e80000 000048c7  ..H.E.H.......H.
 1f10 45980000 0000488b 45a04889 c7e80000  E.....H.E.H.....
 1f20 000048c7 45a00000 0000e9b4 04000048  ..H.E..........H
 1f30 8b8568ff ffff488d 15000000 004889d6  ..h...H......H..
 1f40 4889c7e8 00000000 85c00f85 67040000  H...........g...
 1f50 488b8560 ffffff48 c1e00348 89c7e800  H..`...H...H....
 1f60 00000048 898570ff ffff4883 bd70ffff  ...H..p...H..p..
 1f70 ff00752d 488b0500 00000048 89c1ba20  ..u-H......H... 
 1f80 000000be 01000000 488d0500 00000048  ........H......H
 1f90 89c7e800 000000bf 01000000 e8000000  ................
 1fa0 00488b85 60ffffff 488d14c5 00000000  .H..`...H.......
 1fb0 488b8570 ffffffbe 00000000 4889c7e8  H..p........H...
 1fc0 00000000 488b8560 ffffff48 c1e00348  ....H..`...H...H
 1fd0 89c7e800 00000048 898578ff ffff4883  .......H..x...H.
 1fe0 bd78ffff ff00752d 488b0500 00000048  .x....u-H......H
 1ff0 89c1ba20 000000be 01000000 488d0500  ... ........H...
 2000 00000048 89c7e800 000000bf 01000000  ...H............
 2010 e8000000 00488b85 60ffffff 488d14c5  .....H..`...H...
 2020 00000000 488b8578 ffffffbe 00000000  ....H..x........
 2030 4889c7e8 00000000 d9eedb7d c048c785  H..........}.H..
 2040 50ffffff 00000000 eb51e800 000000c5  P........Q......
 2050 fb2ac0c5 fb100d00 000000c5 fb5ec1c5  .*...........^..
 2060 fb100d00 000000c5 fb59c148 8b8550ff  .........Y.H..P.
 2070 ffff488d 14c50000 0000488b 8570ffff  ..H.......H..p..
 2080 ff4801d0 c5fb100d 00000000 c5fb5cc1  .H............\.
 2090 c5fb1100 48ff8550 ffffff48 8b8550ff  ....H..P...H..P.
 20a0 ffff483b 8560ffff ff729f48 c78558ff  ..H;.`...r.H..X.
 20b0 ffff0000 0000eb51 e8000000 00c5fb2a  .......Q.......*
 20c0 c0c5fb10 0d000000 00c5fb5e c1c5fb10  ...........^....
 20d0 0d000000 00c5fb59 c1488b85 58ffffff  .......Y.H..X...
 20e0 488d14c5 00000000 488b8578 ffffff48  H.......H..x...H
 20f0 01d0c5fb 100d0000 0000c5fb 5cc1c5fb  ............\...
 2100 110048ff 8558ffff ff488b85 58ffffff  ..H..X...H..X...
 2110 483b8560 ffffff72 9f488d05 00000000  H;.`...r.H......
 2120 4889c7e8 00000000 488d45d0 4889c6bf  H.......H.E.H...
 2130 02000000 e8000000 00488b95 60ffffff  .........H..`...
 2140 488d45c0 488bb578 ffffff48 8bbd70ff  H.E.H..x...H..p.
 2150 ffff4889 d14889c2 e8000000 00488d45  ..H..H.......H.E
 2160 e04889c6 bf020000 00e80000 0000488b  .H............H.
 2170 45e0488b 55d04829 d0c4e1f3 2ac8488b  E.H.U.H)....*.H.
 2180 45e8488b 55d84829 d0c4e1fb 2ac0c5fb  E.H.U.H)....*...
 2190 10150000 0000c5fb 5ec2c5f3 58c0c5fb  ........^...X...
 21a0 11458048 8b4580c4 e1f96ec0 488d0500  .E.H.E....n.H...
 21b0 00000048 89c7b801 000000e8 00000000  ...H............
 21c0 db6dc048 8d6424f0 db3c2448 8d050000  .m.H.d$..<$H....
 21d0 00004889 c7b80000 0000e800 00000048  ..H............H
 21e0 83c410d9 eedb7dc0 488d0500 00000048  ......}.H......H
 21f0 89c7e800 00000048 8d45d048 89c6bf02  .......H.E.H....
 2200 000000e8 00000000 488b9560 ffffff48  ........H..`...H
 2210 8d45c048 8bb578ff ffff488b bd70ffff  .E.H..x...H..p..
 2220 ff4889d1 4889c2e8 00000000 488d45e0  .H..H.......H.E.
 2230 4889c6bf 02000000 e8000000 00488b45  H............H.E
 2240 e0488b55 d04829d0 c4e1f32a c8488b45  .H.U.H)....*.H.E
 2250 e8488b55 d84829d0 c4e1fb2a c0c5fb10  .H.U.H)....*....
 2260 15000000 00c5fb5e c2c5f358 c0c5fb11  .......^...X....
 2270 4588488b 4588c4e1 f96ec048 8d050000  E.H.E....n.H....
 2280 00004889 c7b80100 0000e800 000000db  ..H.............
 2290 6dc0488d 6424f0db 3c24488d 05000000  m.H.d$..<$H.....
 22a0 004889c7 b8000000 00e80000 00004883  .H............H.
 22b0 c410d9ee db7dc048 8d050000 00004889  .....}.H......H.
 22c0 c7e80000 0000488d 45d04889 c6bf0200  ......H.E.H.....
 22d0 0000e800 00000048 8b9560ff ffff488d  .......H..`...H.
 22e0 45c0488b b578ffff ff488bbd 70ffffff  E.H..x...H..p...
 22f0 4889d148 89c2e800 00000048 8d45e048  H..H.......H.E.H
 2300 89c6bf02 000000e8 00000000 488b45e0  ............H.E.
 2310 488b55d0 4829d0c4 e1f32ac8 488b45e8  H.U.H)....*.H.E.
 2320 488b55d8 4829d0c4 e1fb2ac0 c5fb1015  H.U.H)....*.....
 2330 00000000 c5fb5ec2 c5f358c0 c5fb1145  ......^...X....E
 2340 90488b45 90c4e1f9 6ec0488d 05000000  .H.E....n.H.....
 2350 004889c7 b8010000 00e80000 0000db6d  .H.............m
 2360 c0488d64 24f0db3c 24488d05 00000000  .H.d$..<$H......
 2370 4889c7b8 00000000 e8000000 004883c4  H............H..
 2380 10488b85 70ffffff 4889c7e8 00000000  .H..p...H.......
 2390 48c78570 ffffff00 00000048 8b8578ff  H..p.......H..x.
 23a0 ffff4889 c7e80000 000048c7 8578ffff  ..H.......H..x..
 23b0 ff000000 00eb2c48 8b050000 0000488b  ......,H......H.
 23c0 9568ffff ff488d0d 00000000 4889ce48  .h...H......H..H
 23d0 89c7b800 000000e8 00000000 b8010000  ................
 23e0 00eb05b8 00000000 488b55f8 64482b14  ........H.U.dH+.
 23f0 25280000 007405e8 00000000 c9c3f30f  %(...t..........
 2400 1efa5548 89e54154 534883ec 4048897d  ..UH..ATSH..@H.}
 2410 b848c745 c8000000 00488b45 b8488b40  .H.E.....H.E.H.@
 2420 10488945 d8488b45 b8488b40 08488945  .H.E.H.E.H.@.H.E
 2430 e0488b45 b8488b00 488945e8 488b5dd8  .H.E.H..H.E.H.].
 2440 4885db75 15488b45 b84883c0 18488b55  H..u.H.E.H...H.U
 2450 c8f04801 10e98c00 0000e800 0000004c  ..H............L
 2460 63e0e800 00000048 63f04889 d8ba0000  c......Hc.H.....
 2470 000049f7 f44889c1 4889d8ba 00000000  ..I..H..H.......
 2480 49f7f448 89d04839 c6725148 0faff148  I..H..H9.rQH...H
 2490 89f24801 d0488d14 084839d0 73a74889  ..H..H...H9.s.H.
 24a0 45d0488b 4de8488b 45d04801 c80fb600  E.H.M.H.E.H.....
 24b0 0fbec848 8b75e048 8b45d048 01f00fb6  ...H.u.H.E.H....
 24c0 000fbec0 0fafc148 98480145 c848ff45  .......H.H.E.H.E
 24d0 d0483955 d072cbe9 69ffffff b8000000  .H9U.r..i.......
 24e0 0048ffc1 eba54883 c4405b41 5c5dc3f3  .H....H..@[A\]..
 24f0 0f1efa55 4889e541 54534883 ec404889  ...UH..ATSH..@H.
 2500 7db848c7 45c80000 0000488b 45b8488b  }.H.E.....H.E.H.
 2510 40104889 45d8488b 45b8488b 40084889  @.H.E.H.E.H.@.H.
 2520 45e0488b 45b8488b 00488945 e8488b5d  E.H.E.H..H.E.H.]
 2530 d84885db 7515488b 45b84883 c018488b  .H..u.H.E.H...H.
 2540 55c8f048 0110e992 000000e8 00000000  U..H............
 2550 4c63e0e8 00000000 4863f048 89d8ba00  Lc......Hc.H....
 2560 00000049 f7f44889 c14889d8 ba000000  ...I..H..H......
 2570 0049f7f4 4889d048 39c67257 480faff1  .I..H..H9.rWH...
 2580 4889f248 01d0488d 14084839 d073a748  H..H..H...H9.s.H
 2590 8945d048 8b45d048 8d0c0048 8b45e848  .E.H.E.H...H.E.H
 25a0 01c80fb7 000fbfc8 488b45d0 488d3400  ........H.E.H.4.
 25b0 488b45e0 4801f00f b700980f afc14898  H.E.H.........H.
 25c0 480145c8 48ff45d0 483955d0 72c5e963  H.E.H.E.H9U.r..c
 25d0 ffffffb8 00000000 48ffc1eb 9f4883c4  ........H....H..
 25e0 405b415c 5dc3f30f 1efa5548 89e54154  @[A\].....UH..AT
 25f0 534883ec 4048897d b848c745 c8000000  SH..@H.}.H.E....
 2600 00488b45 b8488b40 10488945 d8488b45  .H.E.H.@.H.E.H.E
 2610 b8488b40 08488945 e0488b45 b8488b00  .H.@.H.E.H.E.H..
 2620 488945e8 488b5dd8 4885db75 15488b45  H.E.H.].H..u.H.E
 2630 b84883c0 18488b55 c8f04801 10e99400  .H...H.U..H.....
 2640 0000e800 0000004c 63e0e800 00000048  .......Lc......H
 2650 63f04889 d8ba0000 000049f7 f44889c1  c.H.......I..H..
 2660 4889d8ba 00000000 49f7f448 89d04839  H.......I..H..H9
 2670 c6725948 0faff148 89f24801 d0488d14  .rYH...H..H..H..
 2680 084839d0 73a74889 45d0488b 45d0488d  .H9.s.H.E.H.E.H.
 2690 0c850000 0000488b 45e84801 c88b0848  ......H.E.H....H
 26a0 8b45d048 8d348500 00000048 8b45e048  .E.H.4.....H.E.H
 26b0 01f08b00 0fafc148 98480145 c848ff45  .......H.H.E.H.E
 26c0 d0483955 d072c3e9 61ffffff b8000000  .H9U.r..a.......
 26d0 0048ffc1 eb9d4883 c4405b41 5c5dc3f3  .H....H..@[A\]..
 26e0 0f1efa55 4889e541 54534883 ec404889  ...UH..ATSH..@H.
 26f0 7db8d9ee db7de048 8b45b848 8b402048  }....}.H.E.H.@ H
 2700 8945c848 8b45b848 8b401848 8945d048  .E.H.E.H.@.H.E.H
 2710 8b45b848 8b401048 8945d848 8b5dc848  .E.H.@.H.E.H.].H
 2720 85db751c 488b5db8 e8000000 00db2bdb  ..u.H.].......+.
 2730 6de0dec1 db3be800 000000e9 a3000000  m....;..........
 2740 e8000000 004c63e0 e8000000 004863f0  .....Lc......Hc.
 2750 4889d8ba 00000000 49f7f448 89c14889  H.......I..H..H.
 2760 d8ba0000 000049f7 f44889d0 4839c672  ......I..H..H9.r
 2770 68480faf f14889f2 4801d048 8d140848  hH...H..H..H...H
 2780 39d073a0 488945c0 488b45c0 488d0c85  9.s.H.E.H.E.H...
 2790 00000000 488b45d8 4801c8c5 fa100848  ....H.E.H......H
 27a0 8b45c048 8d0c8500 00000048 8b45d048  .E.H.......H.E.H
 27b0 01c8c5fa 1000c5f2 59d0c5fa 1155b4d9  ........Y....U..
 27c0 45b4db6d e0dec1db 7de048ff 45c04839  E..m....}.H.E.H9
 27d0 55c072b4 e94bffff ffb80000 000048ff  U.r..K........H.
 27e0 c1eb8e48 83c4405b 415c5dc3 f30f1efa  ...H..@[A\].....
 27f0 554889e5 41545348 83ec4048 897db8d9  UH..ATSH..@H.}..
 2800 eedb7de0 488b45b8 488b4020 488945c8  ..}.H.E.H.@ H.E.
 2810 488b45b8 488b4018 488945d0 488b45b8  H.E.H.@.H.E.H.E.
 2820 488b4010 488945d8 488b5dc8 4885db75  H.@.H.E.H.].H..u
 2830 1c488b5d b8e80000 0000db2b db6de0de  .H.].......+.m..
 2840 c1db3be8 00000000 e9a30000 00e80000  ..;.............
 2850 00004c63 e0e80000 00004863 f04889d8  ..Lc......Hc.H..
 2860 ba000000 0049f7f4 4889c148 89d8ba00  .....I..H..H....
 2870 00000049 f7f44889 d04839c6 7268480f  ...I..H..H9.rhH.
 2880 aff14889 f24801d0 488d1408 4839d073  ..H..H..H...H9.s
 2890 a0488945 c0488b45 c0488d0c c5000000  .H.E.H.E.H......
 28a0 00488b45 d84801c8 c5fb1008 488b45c0  .H.E.H......H.E.
 28b0 488d0cc5 00000000 488b45d0 4801c8c5  H.......H.E.H...
 28c0 fb1000c5 f359d0c5 fb1155b0 dd45b0db  .....Y....U..E..
 28d0 6de0dec1 db7de048 ff45c048 3955c072  m....}.H.E.H9U.r
 28e0 b4e94bff ffffb800 00000048 ffc1eb8e  ..K........H....
 28f0 4883c440 5b415c5d c3                 H..@[A\].       
Contents of section .rodata:
 0000 25686864 00000000 4661696c 65642074  %hhd....Failed t
 0010 6f207265 61642069 6e743820 74797065  o read int8 type
 0020 2066726f 6d206669 6c657374 7265616d   from filestream
 0030 2e0a0025 68640000 4661696c 65642074  ...%hd..Failed t
 0040 6f207265 61642069 6e743136 20747970  o read int16 typ
 0050 65206672 6f6d2066 696c6573 74726561  e from filestrea
 0060 6d2e0a00 25640000 4661696c 65642074  m...%d..Failed t
 0070 6f207265 61642069 6e743332 20747970  o read int32 typ
 0080 65206672 6f6d2066 696c6573 74726561  e from filestrea
 0090 6d2e0a00 25660000 4661696c 65642074  m...%f..Failed t
 00a0 6f207265 61642066 6c6f6174 33322074  o read float32 t
 00b0 79706520 66726f6d 2066696c 65737472  ype from filestr
 00c0 65616d2e 0a00256c 66000000 00000000  eam...%lf.......
 00d0 4661696c 65642074 6f207265 61642066  Failed to read f
 00e0 6c6f6174 36342074 79706520 66726f6d  loat64 type from
 00f0 2066696c 65737472 65616d2e 0a000000   filestream.....
 0100 55736167 653a2025 73203c73 697a653e  Usage: %s <size>
 0110 203c6461 74615f74 7970653e 200a0069   <data_type> ..i
 0120 6e740000 00000000 4661696c 65642074  nt......Failed t
 0130 6f20616c 6c6f6361 7465206d 656d6f72  o allocate memor
 0140 7920666f 7220610a 00000000 00000000  y for a.........
 0150 4661696c 65642074 6f20616c 6c6f6361  Failed to alloca
 0160 7465206d 656d6f72 7920666f 7220620a  te memory for b.
 0170 00203d3d 3d20506c 61696e20 3d3d3d20  . === Plain === 
 0180 00252e39 660a0044 6f742070 726f6475  .%.9f..Dot produ
 0190 63742072 6573756c 743a2025 6c6c640a  ct result: %lld.
 01a0 00203d3d 3d20556e 726f6c6c 203d3d3d  . === Unroll ===
 01b0 2000203d 3d3d2053 494d4420 3d3d3d20   . === SIMD === 
 01c0 00646f75 626c6500 446f7420 70726f64  .double.Dot prod
 01d0 75637420 72657375 6c743a20 254c660a  uct result: %Lf.
 01e0 00556e73 7570706f 72746564 20646174  .Unsupported dat
 01f0 61207479 70653a20 25730a00 00000000  a type: %s......
 0200 00000000 65cdcd41 0000c0ff ffffdf41  ....e..A.......A
 0210 00000000 00000840 00000000 00000040  .......@.......@
Contents of section .debug_info:
 0000 4a1b0000 05000108 00000000 30000000  J...........0...
 0010 001d0000 00000000 00000000 00000000  ................
 0020 0000f928 00000000 00000000 00000900  ...(............
 0030 00000006 07193a00 00002b00 000000d8  ......:...+.....
 0040 0531c001 00000200 00000005 3307f601  .1..........3...
 0050 00000002 00000000 0536094e 02000008  .........6.N....
 0060 02000000 00053709 4e020000 10020000  ......7.N.......
 0070 00000538 094e0200 00180200 00000005  ...8.N..........
 0080 39094e02 00002002 00000000 053a094e  9.N... ......:.N
 0090 02000028 02000000 00053b09 4e020000  ...(......;.N...
 00a0 30020000 0000053c 094e0200 00380200  0......<.N...8..
 00b0 00000005 3d094e02 00004002 00000000  ....=.N...@.....
 00c0 0540094e 02000048 02000000 00054109  .@.N...H......A.
 00d0 4e020000 50020000 00000542 094e0200  N...P......B.N..
 00e0 00580200 00000005 4416b502 00006002  .X......D.....`.
 00f0 00000000 054614ba 02000068 02000000  .....F.....h....
 0100 00054807 f6010000 70020000 00000549  ..H.....p......I
 0110 07f60100 00740200 00000005 4a0b1002  .....t......J...
 0120 00007802 00000000 054d12da 01000080  ..x......M......
 0130 02000000 00054e0f e8010000 82020000  ......N.........
 0140 0000054f 08bf0200 00830200 00000005  ...O............
 0150 510fcf02 00008802 00000000 05590d1c  Q............Y..
 0160 02000090 02000000 00055b17 d9020000  ..........[.....
 0170 98020000 0000055c 19e30200 00a00200  .......\........
 0180 00000005 5d14ba02 0000a802 00000000  ....]...........
 0190 055e0940 020000b0 02000000 00055f0a  .^.@.........._.
 01a0 c0010000 b8020000 00000560 07f60100  ...........`....
 01b0 00c00200 00000005 6208e802 0000c400  ........b.......
 01c0 09000000 0007d117 cc010000 0f080700  ................
 01d0 0000000f 01080000 00000f02 07000000  ................
 01e0 000f0407 00000000 0f010600 0000000f  ................
 01f0 02050000 00003104 05696e74 00090000  ......1..int....
 0200 0000082c 19090200 000f0805 00000000  ...,............
 0210 09000000 00089819 09020000 09000000  ................
 0220 0008991b 09020000 09000000 0008a01a  ................
 0230 09020000 09000000 0008a91d f6010000  ................
 0240 32080900 00000008 c5210902 00000753  2........!.....S
 0250 0200000f 01060000 00002853 02000009  ..........(S....
 0260 00000000 090a1228 02000007 5a020000  .......(....Z...
 0270 156b0200 002b0000 0000100a 0b9c0200  .k...+..........
 0280 00020000 00000a10 0c280200 00000200  .........(......
 0290 0000000a 15154202 00000800 09000000  ......B.........
 02a0 000b0715 34020000 33000000 00052b0e  ....4...3.....+.
 02b0 29000000 0007b002 0000073a 0000002c  )..........:...,
 02c0 53020000 cf020000 2dcc0100 00000007  S.......-.......
 02d0 a8020000 29000000 0007d402 00002900  ....).........).
 02e0 00000007 de020000 2c530200 00f80200  ........,S......
 02f0 002dcc01 00001300 072e0000 0015f802  .-..............
 0300 00003400 0000000d 910ef802 00000f08  ..4.............
 0310 05000000 000f1004 00000000 0f080700  ................
 0320 0000000f 04040000 00000900 0000000c  ................
 0330 1b13fd01 00000900 00000002 28104203  ............(.B.
 0340 0000164e 0300004e 03000017 01000f08  ...N...N........
 0350 04000000 00284e03 00000900 00000002  .....(N.........
 0360 29136603 0000160e 03000072 03000017  ).f........r....
 0370 01000900 00000002 2a1c7e03 0000161c  ........*.~.....
 0380 0300008a 03000017 01000900 00000002  ................
 0390 2b0d9603 000016f6 010000a2 03000017  +...............
 03a0 03000900 00000002 3513b303 000028a2  ........5.....(.
 03b0 03000016 0e030000 bf030000 17010009  ................
 03c0 00000000 023610cb 03000016 4e030000  .....6......N...
 03d0 d7030000 17010035 00000000 023a10cb  .......5.....:..
 03e0 03000001 19693800 2a15e801 00001969  .....i8.*......i
 03f0 3136002b 0fef0100 00196933 32002c0d  16.+......i32.,.
 0400 f6010000 19663332 002d0f23 03000019  .....f32.-.#....
 0410 66363400 2e104e03 00000900 00000001  f64...N.........
 0420 2f130e03 00000900 00000001 30151503  /...........0...
 0430 00002e00 0000002b 02430400 000a4002  .......+.C....@.
 0440 00000023 00000000 0d64010c f6010000  ...#.....d......
 0450 5b040000 0a6b0200 002a0023 00000000  [....k...*.#....
 0460 0e17010c f6010000 77040000 0a9c0200  ........w.......
 0470 000a7704 00000007 75020000 36000000  ..w.....u...6...
 0480 0010c601 0cf60100 00240000 00000f3d  .........$.....=
 0490 0e400200 00a90400 000a4002 00000af6  .@........@.....
 04a0 0100000a c0010000 00230000 0000101c  .........#......
 04b0 020e4002 0000c004 00000ac0 01000000  ..@.............
 04c0 24000000 000f9c0c f6010000 db040000  $...............
 04d0 0a6b0200 000a6b02 00000024 00000000  .k....k....$....
 04e0 1071240e 030000f1 0400000a 6b020000  .q$.........k...
 04f0 00230000 00000d5e 010cf601 00000e05  .#.....^........
 0500 00000afd 0200000a 70020000 2a002e00  ........p...*...
 0510 000000c8 011f0500 000ae101 00000024  ...............$
 0520 00000000 0e4c0f5f 02000035 0500000a  .....L._...5....
 0530 35050000 00075f02 00001800 00000024  5....._........$
 0540 01000000 00000000 009c0000 00000000  ................
 0550 00019c16 0600000e 61002401 23160600  ........a.$.#...
 0560 00039198 7f0e6200 24012b16 06000003  ......b.$.+.....
 0570 91907f0c 00000000 2401381b 06000003  ........$.8.....
 0580 91887f0c 00000000 240147c0 01000003  ........$.G.....
 0590 91807f1a 00000000 00000000 00000000  ................
 05a0 0d010000 00000000 019c0506 00001b5c  ...............\
 05b0 06000003 91a87f01 61002401 23160600  ........a.$.#...
 05c0 00029148 01620024 012b1606 00000291  ...H.b.$.+......
 05d0 40030000 00002401 47c00100 000391b8  @.....$.G.......
 05e0 7f030000 00002501 0e260400 00029150  ......%..&.....P
 05f0 1c000000 00016900 270111c0 01000003  ......i.'.......
 0600 91b07f00 00030000 00002501 0e260400  ..........%..&..
 0610 000391a0 7f00070f 04000007 26040000  ............&...
 0620 1d305706 00001100 00000025 010e2604  .0W........%..&.
 0630 00000012 61002401 23160600 00101262  ....a.$.#......b
 0640 0024012b 16060000 18110000 00002401  .$.+..........$.
 0650 47c00100 0020001e 20060000 15570600  G.... .. ....W..
 0660 00180000 00001b01 00000000 00000000  ................
 0670 9c000000 00000000 019c3d07 00000e61  ..........=....a
 0680 001b0123 3d070000 0391987f 0e62001b  ...#=........b..
 0690 012b3d07 00000391 907f0c00 0000001b  .+=.............
 06a0 01381b06 00000391 887f0c00 0000001b  .8..............
 06b0 0147c001 00000391 807f1a00 00000000  .G..............
 06c0 00000000 0000000d 01000000 00000001  ................
 06d0 9c2c0700 001b7e07 00000391 a87f0161  .,....~........a
 06e0 001b0123 3d070000 02914801 62001b01  ...#=.....H.b...
 06f0 2b3d0700 00029140 03000000 001b0147  +=.....@.......G
 0700 c0010000 0391b87f 03000000 001c010e  ................
 0710 26040000 0291501c 00000000 0169001e  &.....P......i..
 0720 0111c001 00000391 b07f0000 03000000  ................
 0730 001c010e 26040000 0391a07f 00070404  ....&...........
 0740 00001d30 79070000 11000000 001c010e  ...0y...........
 0750 26040000 00126100 1b01233d 07000010  &.....a...#=....
 0760 1262001b 012b3d07 00001811 00000000  .b...+=.........
 0770 1b0147c0 01000020 001e4207 00001579  ..G.... ..B....y
 0780 07000018 00000000 12010000 00000000  ................
 0790 0000a700 00000000 0000019c 5e080000  ............^...
 07a0 0e610012 01235e08 00000391 a87f0e62  .a...#^........b
 07b0 0012012b 5e080000 0391a07f 0c000000  ...+^...........
 07c0 00120138 63080000 0391987f 0c000000  ...8c...........
 07d0 00120147 c0010000 0391907f 1a000000  ...G............
 07e0 00000000 00000000 00f90000 00000000  ................
 07f0 00019c4d 0800001b a4080000 0391a87f  ...M............
 0800 01610012 01235e08 00000291 58016200  .a...#^.....X.b.
 0810 12012b5e 08000002 91500300 00000012  ..+^.....P......
 0820 0147c001 00000291 48030000 00001301  .G......H.......
 0830 0e1a0400 000391b8 7f1c0000 00000169  ...............i
 0840 00150111 c0010000 02914000 00030000  ..........@.....
 0850 00001301 0e1a0400 000391b8 7f0007f9  ................
 0860 03000007 1a040000 1d209f08 00001261  ......... .....a
 0870 00120123 5e080000 00126200 12012b5e  ...#^.....b...+^
 0880 08000008 11000000 00120147 c0010000  ...........G....
 0890 10110000 00001301 0e1a0400 0018001e  ................
 08a0 68080000 159f0800 00180000 00000901  h...............
 08b0 00000000 00000000 a7000000 00000000  ................
 08c0 019c8409 00000e61 00090123 84090000  .......a...#....
 08d0 0391a87f 0e620009 012b8409 00000391  .....b...+......
 08e0 a07f0c00 00000009 01386308 00000391  .........8c.....
 08f0 987f0c00 00000009 0147c001 00000391  .........G......
 0900 907f1a00 00000000 00000000 000000f7  ................
 0910 00000000 00000001 9c730900 001bc509  .........s......
 0920 00000391 a87f0161 00090123 84090000  .......a...#....
 0930 02915801 62000901 2b840900 00029150  ..X.b...+......P
 0940 03000000 00090147 c0010000 02914803  .......G......H.
 0950 00000000 0a010e1a 04000003 91b87f1c  ................
 0960 00000000 0169000c 0111c001 00000291  .....i..........
 0970 40000003 00000000 0a010e1a 04000003  @...............
 0980 91b87f00 07ee0300 001d20c0 09000012  .......... .....
 0990 61000901 23840900 00001262 0009012b  a...#......b...+
 09a0 84090000 08110000 00000901 47c00100  ............G...
 09b0 00101100 0000000a 010e1a04 00001800  ................
 09c0 1e890900 0015c009 00001800 00000000  ................
 09d0 01000000 00000000 00a70000 00000000  ................
 09e0 00019ca5 0a00000e 61000001 21a50a00  ........a...!...
 09f0 000391a8 7f0e6200 000128a5 0a000003  ......b...(.....
 0a00 91a07f0c 00000000 00013563 08000003  ..........5c....
 0a10 91987f0c 00000000 000144c0 01000003  ..........D.....
 0a20 91907f1a 00000000 00000000 00000000  ................
 0a30 f1000000 00000000 019c940a 00001be6  ................
 0a40 0a000003 91a87f01 61000001 21a50a00  ........a...!...
 0a50 00029158 01620000 0128a50a 00000291  ...X.b...(......
 0a60 50030000 00000001 44c00100 00029148  P.......D......H
 0a70 03000000 0001010e 1a040000 0391b87f  ................
 0a80 1c000000 00016900 030111c0 01000002  ......i.........
 0a90 91400000 03000000 0001010e 1a040000  .@..............
 0aa0 0391b87f 0007e403 00001d20 e10a0000  ........... ....
 0ab0 12610000 0121a50a 00000012 62000001  .a...!......b...
 0ac0 28a50a00 00081100 00000000 0144c001  (............D..
 0ad0 00001011 00000000 01010e1a 04000018  ................
 0ae0 001eaa0a 000015e1 0a000037 00000000  ...........7....
 0af0 1070020d fe0a0000 0af60100 00003800  .p............8.
 0b00 0000000d b2010c00 000000f6 0100001f  ................
 0b10 0b00000a fd020000 0a700200 002a0039  .........p...*.9
 0b20 00000000 01ba0105 f6010000 00000000  ................
 0b30 00000000 87090000 00000000 019c230e  ..............#.
 0b40 00000c00 000000ba 010ef601 00000391  ................
 0b50 ac7e0c00 000000ba 011a230e 00000391  .~........#.....
 0b60 a07e0300 00000066 020cc001 00000391  .~.....f........
 0b70 d07e0300 00000067 020b4e02 00000391  .~.....g..N.....
 0b80 d87e0d00 00000000 000000ec 03000000  .~..............
 0b90 000000d4 0c000001 61006902 0e5e0800  ........a.i..^..
 0ba0 00039188 7f016200 6a020e5e 08000003  ......b.j..^....
 0bb0 91907f03 00000000 6b02121a 04000003  ........k.......
 0bc0 91b07f0d 00000000 00000000 51000000  ............Q...
 0bd0 00000000 e70b0000 0169006d 0209c001  .........i.m....
 0be0 00000391 b07e000d 00000000 00000000  .....~..........
 0bf0 51000000 00000000 0b0c0000 0169006e  Q............i.n
 0c00 0209c001 00000391 b87e000d 00000000  .........~......
 0c10 00000000 bc000000 00000000 4f0c0000  ............O...
 0c20 03000000 0072020d 75020000 02914001  .....r..u.....@.
 0c30 656e6400 72020d75 02000002 91500300  end.r..u.....P..
 0c40 00000074 020d4e03 00000391 987f000d  ...t..N.........
 0c50 00000000 00000000 bc000000 00000000  ................
 0c60 930c0000 03000000 007c020d 75020000  .........|..u...
 0c70 02914001 656e6400 7c020d75 02000002  ..@.end.|..u....
 0c80 91500300 0000007e 020d4e03 00000391  .P.....~..N.....
 0c90 a07f000b 00000000 00000000 bc000000  ................
 0ca0 00000000 03000000 0086020d 75020000  ............u...
 0cb0 02914001 656e6400 86020d75 02000002  ..@.end....u....
 0cc0 91500300 00000088 020d4e03 00000391  .P........N.....
 0cd0 a87f0000 0b000000 00000000 00650400  .............e..
 0ce0 00000000 00016100 8f020e16 06000003  ......a.........
 0cf0 91e07e01 62009002 0e160600 000391e8  ..~.b...........
 0d00 7e030000 00009102 12260400 000391b0  ~........&......
 0d10 7f0d0000 00000000 00006e00 00000000  ..........n.....
 0d20 0000350d 00000169 00930209 c0010000  ..5....i........
 0d30 0391c07e 000d0000 00000000 00006e00  ...~..........n.
 0d40 00000000 0000590d 00000169 00940209  ......Y....i....
 0d50 c0010000 0391c87e 000d0000 00000000  .......~........
 0d60 0000ca00 00000000 00009d0d 00000300  ................
 0d70 00000098 020d7502 00000291 4001656e  ......u.....@.en
 0d80 64009802 0d750200 00029150 03000000  d....u.....P....
 0d90 009a020d 4e030000 0391f07e 000d0000  ....N......~....
 0da0 00000000 0000ca00 00000000 0000e10d  ................
 0db0 00000300 000000a2 020d7502 00000291  ..........u.....
 0dc0 4001656e 6400a202 0d750200 00029150  @.end....u.....P
 0dd0 03000000 00a4020d 4e030000 0391f87e  ........N......~
 0de0 000b0000 00000000 0000ca00 00000000  ................
 0df0 00000300 000000ac 020d7502 00000291  ..........u.....
 0e00 4001656e 6400ac02 0d750200 00029150  @.end....u.....P
 0e10 03000000 00ae020d 4e030000 0391807f  ........N.......
 0e20 00000007 4e020000 18000000 007f0100  ....N...........
 0e30 00000000 00000087 01000000 00000001  ................
 0e40 9c4e1000 000e6100 7f012516 06000001  .N....a...%.....
 0e50 550e6200 7f013616 06000001 540c0000  U.b...6.....T...
 0e60 00007f01 4c1b0600 0001500c 00000000  ....L.....P.....
 0e70 7f0164c0 01000001 51016c6f 0081011a  ..d.....Q.lo....
 0e80 bf030000 01660168 69008201 1abf0300  .....f.hi.......
 0e90 00016701 69008501 19c00100 0001530d  ..g.i.........S.
 0ea0 00000000 00000000 7a000000 00000000  ........z.......
 0eb0 7a0f0000 1f766100 8801bf03 00001f76  z....va........v
 0ec0 62008901 bf030000 1f6d756c 008c01bf  b........mul....
 0ed0 03000010 1f1b0000 00000000 00000000  ................
 0ee0 0b000000 00000000 880123f9 0e000005  ..........#.....
 0ef0 2e1b0000 0391b87e 00101f1b 00000000  .......~........
 0f00 00000000 00001500 00000000 00008901  ................
 0f10 231f0f00 00052e1b 00000391 b07e0010  #............~..
 0f20 b01a0000 00000000 00000000 1e000000  ................
 0f30 00000000 8c01244e 0f000005 cd1a0000  ......$N........
 0f40 0391807f 05c01a00 000391f0 7e0025db  ............~.%.
 0f50 1a000000 00000000 00000010 00000000  ................
 0f60 0000008e 011205f6 1a000003 91e07e05  ..............~.
 0f70 ea1a0000 0391d07e 00002640 1b000000  .......~..&@....
 0f80 00000000 00000004 00000000 00000081  ................
 0f90 0126401b 00000000 00000000 00000400  .&@.............
 0fa0 00000000 00008201 10db1a00 00000000  ................
 0fb0 00000000 000a0000 00000000 0091010e  ................
 0fc0 d60f0000 05f61a00 00029140 05ea1a00  ...........@....
 0fd0 000391b0 7f001003 1b000000 00000000  ................
 0fe0 00000012 00000000 00000094 0114fc0f  ................
 0ff0 00000512 1b000003 91c07e00 10771a00  ..........~..w..
 1000 00000000 00000000 00130000 00000000  ................
 1010 00940128 2b100000 05941a00 000391a0  ...(+...........
 1020 7f05871a 00000391 907f0025 031b0000  ...........%....
 1030 00000000 00000000 08000000 00000000  ................
 1040 94012805 121b0000 0391c07e 00003a00  ..(........~..:.
 1050 00000001 2d010600 00000000 000000fa  ....-...........
 1060 01000000 00000001 9cdc1200 000e6100  ..............a.
 1070 2d01255e 08000001 550e6200 2d01365e  -.%^....U.b.-.6^
 1080 08000001 540c0000 00002d01 4c630800  ....T.....-.Lc..
 1090 0001500c 00000000 2d0164c0 01000001  ..P.....-.d.....
 10a0 51016c6f 0030011a a2030000 01690168  Q.lo.0.......i.h
 10b0 69003101 1aa20300 00016a01 70610033  i.1.......j.pa.3
 10c0 011bdc12 0000015c 01706200 34011bdc  .......\.pb.4...
 10d0 12000001 5d016900 370119c0 01000001  ....].i.7.......
 10e0 530d0000 00000000 00003301 00000000  S.........3.....
 10f0 00008312 00001f76 61003a01 a2030000  .......va.:.....
 1100 1f766200 3b01a203 00002f00 00000041  .vb.;...../....A
 1110 01a20300 002f0000 00004801 a2030000  ...../....H.....
 1120 10001a00 00000000 00000000 000b0000  ................
 1130 00000000 003a0123 46110000 050f1a00  .....:.#F.......
 1140 00039188 7e001000 1a000000 00000000  ....~...........
 1150 0000000b 00000000 0000003b 01236c11  ...........;.#l.
 1160 0000050f 1a000003 91807e00 10d51900  ..........~.....
 1170 00000000 00000000 00100000 00000000  ................
 1180 00410128 9b110000 05f21900 000391a0  .A.(............
 1190 7f05e519 00000391 907f0010 211a0000  ............!...
 11a0 00000000 00000000 12000000 00000000  ................
 11b0 440112ca 11000005 3e1a0000 0391fc7d  D.......>......}
 11c0 05311a00 00039180 7f001021 1a000000  .1.........!....
 11d0 00000000 00000012 00000000 00000045  ...............E
 11e0 0112f911 0000053e 1a000003 91f87d05  .......>......}.
 11f0 311a0000 0391f07e 0010d519 00000000  1......~........
 1200 00000000 00001600 00000000 00004801  ..............H.
 1210 29281200 0005f219 00000391 e07e05e5  )(...........~..
 1220 19000003 91d07e00 104c1a00 00000000  ......~..L......
 1230 00000000 00140000 00000000 004a0112  .............J..
 1240 57120000 05691a00 000391c0 7e055c1a  W....i......~.\.
 1250 00000391 b07e0025 4c1a0000 00000000  .....~.%L.......
 1260 00000000 15000000 00000000 4b011205  ............K...
 1270 691a0000 0391a07e 055c1a00 00039190  i......~.\......
 1280 7e000026 a21a0000 00000000 00000000  ~..&............
 1290 04000000 00000000 300126a2 1a000000  ........0.&.....
 12a0 00000000 00000004 00000000 00000031  ...............1
 12b0 01254c1a 00000000 00000000 00000e00  .%L.............
 12c0 00000000 00004e01 0e05691a 00000291  ......N...i.....
 12d0 40055c1a 00000391 b07f0000 07a20300  @.\.............
 12e0 00130000 0000f000 00000000 00000025  ...............%
 12f0 03000000 00000001 9c721300 00046100  .........r....a.
 1300 f0211606 00000291 58046200 f0291606  .!......X.b..)..
 1310 00000291 50060000 0000f036 1b060000  ....P......6....
 1320 02914806 00000000 f045c001 00000291  ..H......E......
 1330 400d0000 00000000 0000a502 00000000  @...............
 1340 00005313 00000869 00f10ef6 01000002  ..S....i........
 1350 9168000b 00000000 00000000 64000000  .h..........d...
 1360 00000000 086900fb 0ef60100 0002916c  .....i.........l
 1370 00001300 000000e0 00000000 00000000  ................
 1380 25030000 00000000 019c0314 00000461  %..............a
 1390 00e0213d 07000002 91580462 00e0293d  ..!=.....X.b..)=
 13a0 07000002 91500600 000000e0 361b0600  .....P......6...
 13b0 00029148 06000000 00e045c0 01000002  ...H......E.....
 13c0 91400d00 00000000 000000a5 02000000  .@..............
 13d0 000000e4 13000008 6900e10e f6010000  ........i.......
 13e0 02916800 0b000000 00000000 00640000  ..h..........d..
 13f0 00000000 00086900 eb0ef601 00000291  ......i.........
 1400 6c000013 00000000 d0000000 00000000  l...............
 1410 00e60200 00000000 00019c94 14000004  ................
 1420 6100d021 5e080000 02915804 6200d029  a..!^.....X.b..)
 1430 5e080000 02915006 00000000 d0366308  ^.....P......6c.
 1440 00000291 48060000 0000d045 c0010000  ....H......E....
 1450 0291400d 00000000 00000000 6d020000  ..@.........m...
 1460 00000000 75140000 086900d1 0ef60100  ....u....i......
 1470 00029168 000b0000 00000000 00005d00  ...h..........].
 1480 00000000 00000869 00db0ef6 01000002  .......i........
 1490 916c0000 13000000 00c00000 00000000  .l..............
 14a0 0000d402 00000000 0000019c 25150000  ............%...
 14b0 046100c0 21840900 00029158 046200c0  .a..!......X.b..
 14c0 29840900 00029150 06000000 00c03663  )......P......6c
 14d0 08000002 91480600 000000c0 45c00100  .....H......E...
 14e0 00029140 0d000000 00000000 005d0200  ...@.........]..
 14f0 00000000 00061500 00086900 c10ef601  ..........i.....
 1500 00000291 68000b00 00000000 0000005b  ....h..........[
 1510 00000000 00000008 6900cb0e f6010000  ........i.......
 1520 02916c00 00130000 0000b000 00000000  ..l.............
 1530 000000a0 02000000 00000001 9cb61500  ................
 1540 00046100 b01fa50a 00000291 58046200  ..a.........X.b.
 1550 b026a50a 00000291 50060000 0000b033  .&......P......3
 1560 63080000 02914806 00000000 b042c001  c.....H......B..
 1570 00000291 400d0000 00000000 00002f02  ....@........./.
 1580 00000000 00009715 00000869 00b10ef6  ...........i....
 1590 01000002 9168000b 00000000 00000000  .....h..........
 15a0 55000000 00000000 086900bb 0ef60100  U........i......
 15b0 0002916c 00001300 000000aa 00000000  ...l............
 15c0 00000000 7c000000 00000000 019c2516  ....|.........%.
 15d0 00000461 00aa2016 06000002 91580462  ...a.. ......X.b
 15e0 00aa2816 06000002 91500600 000000aa  ..(......P......
 15f0 351b0600 00029148 06000000 00aa44c0  5......H......D.
 1600 01000002 91400b00 00000000 00000060  .....@.........`
 1610 00000000 00000008 6900ab11 c0010000  ........i.......
 1620 02916800 00130000 0000a500 00000000  ..h.............
 1630 0000007c 00000000 00000001 9c941600  ...|............
 1640 00046100 a5203d07 00000291 58046200  ..a.. =.....X.b.
 1650 a5283d07 00000291 50060000 0000a535  .(=.....P......5
 1660 1b060000 02914806 00000000 a544c001  ......H......D..
 1670 00000291 400b0000 00000000 00006000  ....@.........`.
 1680 00000000 00000869 00a611c0 01000002  .......i........
 1690 91680000 13000000 00a00000 00000000  .h..............
 16a0 00007500 00000000 0000019c 03170000  ..u.............
 16b0 046100a0 205e0800 00029158 046200a0  .a.. ^.....X.b..
 16c0 285e0800 00029150 06000000 00a03563  (^.....P......5c
 16d0 08000002 91480600 000000a0 44c00100  .....H......D...
 16e0 00029140 0b000000 00000000 00590000  ...@.........Y..
 16f0 00000000 00086900 a111c001 00000291  ......i.........
 1700 68000013 00000000 9b000000 00000000  h...............
 1710 00730000 00000000 00019c72 17000004  .s.........r....
 1720 61009b20 84090000 02915804 62009b28  a.. ......X.b..(
 1730 84090000 02915006 00000000 9b356308  ......P......5c.
 1740 00000291 48060000 00009b44 c0010000  ....H......D....
 1750 0291400b 00000000 00000000 57000000  ..@.........W...
 1760 00000000 0869009c 11c00100 00029168  .....i.........h
 1770 00001300 00000095 00000000 00000000  ................
 1780 6d000000 00000000 019ce117 00000461  m..............a
 1790 00951ea5 0a000002 91580462 009525a5  .........X.b..%.
 17a0 0a000002 91500600 00000095 32630800  .....P......2c..
 17b0 00029148 06000000 009541c0 01000002  ...H......A.....
 17c0 91400b00 00000000 00000051 00000000  .@.........Q....
 17d0 00000008 69009611 c0010000 02916800  ....i.........h.
 17e0 00200000 00008c00 00000000 00000094  . ..............
 17f0 00000000 00000001 9c451800 00046670  .........E....fp
 1800 008c23f8 02000002 91580476 6563008c  ..#......X.vec..
 1810 2c160600 00029150 06000000 008c38c0  ,......P......8.
 1820 01000002 91480b00 00000000 00000078  .....H.........x
 1830 00000000 00000008 69008d11 c0010000  ........i.......
 1840 02916800 00200000 00008300 00000000  ..h.. ..........
 1850 00000094 00000000 00000001 9ca91800  ................
 1860 00046670 008323f8 02000002 91580476  ..fp..#......X.v
 1870 65630083 2c3d0700 00029150 06000000  ec..,=.....P....
 1880 008338c0 01000002 91480b00 00000000  ..8......H......
 1890 00000078 00000000 00000008 69008411  ...x........i...
 18a0 c0010000 02916800 00200000 00007a00  ......h.. ....z.
 18b0 00000000 00000094 00000000 00000001  ................
 18c0 9c0d1900 00046670 007a23f8 02000002  ......fp.z#.....
 18d0 91580476 6563007a 2c5e0800 00029150  .X.vec.z,^.....P
 18e0 06000000 007a38c0 01000002 91480b00  .....z8......H..
 18f0 00000000 00000078 00000000 00000008  .......x........
 1900 69007b11 c0010000 02916800 00200000  i.{.......h.. ..
 1910 00007100 00000000 00000090 00000000  ..q.............
 1920 00000001 9c711900 00046670 007123f8  .....q....fp.q#.
 1930 02000002 91580476 65630071 2c840900  .....X.vec.q,...
 1940 00029150 06000000 007138c0 01000002  ...P.....q8.....
 1950 91480b00 00000000 00000074 00000000  .H.........t....
 1960 00000008 69007211 c0010000 02916800  ....i.r.......h.
 1970 00200000 00006800 00000000 0000008c  . ....h.........
 1980 00000000 00000001 9cd51900 00046670  ..............fp
 1990 006822f8 02000002 91580476 65630068  .h"......X.vec.h
 19a0 2aa50a00 00029150 06000000 006836c0  *......P.....h6.
 19b0 01000002 91480b00 00000000 00000070  .....H.........p
 19c0 00000000 00000008 69006911 c0010000  ........i.i.....
 19d0 02916800 00210000 0000044e 01a20300  ..h..!.....N....
 19e0 00001a00 00145f5f 5800044e 0118a203  ......__X..N....
 19f0 0000145f 5f590004 4e0125a2 03000000  ...__Y..N.%.....
 1a00 27000000 00036fa2 0300001c 1a000022  '.....o........"
 1a10 5f5f5000 036f211c 1a000000 07ae0300  __P..o!.........
 1a20 00210000 000002e7 04a20300 004c1a00  .!...........L..
 1a30 00145f5f 410002e7 0419a203 0000145f  ..__A.........._
 1a40 5f420002 e70422f6 01000000 21000000  _B....".....!...
 1a50 00022e04 a2030000 771a0000 145f5f41  ........w....__A
 1a60 00022e04 18a20300 00145f5f 4200022e  ..........__B...
 1a70 0425a203 00000021 00000000 02bc03bf  .%.....!........
 1a80 030000a2 1a000014 5f5f4100 02bc031a  ........__A.....
 1a90 bf030000 145f5f42 0002bc03 27bf0300  .....__B....'...
 1aa0 00003b00 00000002 1a0301a2 03000003  ..;.............
 1ab0 21000000 00020e01 bf030000 db1a0000  !...............
 1ac0 145f5f41 00020e01 15bf0300 00145f5f  .__A..........__
 1ad0 4200020e 0122bf03 00000027 00000000  B....".....'....
 1ae0 02f6bf03 0000031b 0000225f 5f410002  .........."__A..
 1af0 f615bf03 0000225f 5f420002 f622bf03  ......"__B..."..
 1b00 00000027 00000000 02b84e03 00001f1b  ...'......N.....
 1b10 0000225f 5f410002 b818bf03 00000027  .."__A.........'
 1b20 00000000 0281bf03 00003b1b 0000225f  ..........;..."_
 1b30 5f500002 811d3b1b 00000007 55030000  _P....;.....U...
 1b40 3c000000 00026c01 bf030000 0300      <.....l.......  
Contents of section .debug_abbrev:
 0000 01340003 083a2101 3b05390b 49130218  .4...:!.;.9.I...
 0010 0000020d 00030e3a 0b3b0b39 0b491338  .......:.;.9.I.8
 0020 0b000003 3400030e 3a21013b 05390b49  ....4...:!.;.9.I
 0030 13021800 00040500 03083a21 013b0b39  ..........:!.;.9
 0040 0b491302 18000005 05003113 02180000  .I........1.....
 0050 06050003 0e3a2101 3b0b390b 49130218  .....:!.;.9.I...
 0060 0000070f 000b2108 49130000 08340003  ......!.I....4..
 0070 083a2101 3b0b390b 49130218 00000916  .:!.;.9.I.......
 0080 00030e3a 0b3b0b39 0b491300 000a0500  ...:.;.9.I......
 0090 49130000 0b0b0111 01120700 000c0500  I...............
 00a0 030e3a21 013b0539 0b491302 1800000d  ..:!.;.9.I......
 00b0 0b011101 12070113 00000e05 0003083a  ...............:
 00c0 21013b05 390b4913 02180000 0f24000b  !.;.9.I......$..
 00d0 0b3e0b03 0e000010 1d013113 11011207  .>........1.....
 00e0 58210159 05570b01 13000011 0d00030e  X!.Y.W..........
 00f0 3a21013b 05390b49 13380b00 00120d00  :!.;.9.I.8......
 0100 03083a21 013b0539 0b491338 0b000013  ..:!.;.9.I.8....
 0110 2e013f19 030e3a21 013b0b39 21062719  ..?...:!.;.9!.'.
 0120 11011207 40187a19 01130000 14050003  ....@.z.........
 0130 083a0b3b 05390b49 13000015 37004913  .:.;.9.I....7.I.
 0140 00001601 01874219 49130113 00001721  ......B.I......!
 0150 002f0b00 00182e01 3f19030e 3a21013b  ./......?...:!.;
 0160 05392106 27191101 12074018 7c190113  .9!.'.....@.|...
 0170 00001916 0003083a 21013b0b 390b4913  .......:!.;.9.I.
 0180 00001a2e 01030e27 19341911 01120740  .......'.4.....@
 0190 187c1901 1300001b 05004913 34190218  .|........I.4...
 01a0 00001c0b 01551700 001d1301 0b0b3419  .....U........4.
 01b0 01130000 1e10000b 21084913 00001f34  ........!.I....4
 01c0 0003083a 21013b05 39211e49 13000020  ...:!.;.9!.I... 
 01d0 2e013f19 030e3a21 013b0b39 21062719  ..?...:!.;.9!.'.
 01e0 11011207 40187c19 01130000 212e013f  ....@.|.....!..?
 01f0 19030e3a 0b3b0539 21012719 49132021  ...:.;.9!.'.I. !
 0200 03341901 13000022 05000308 3a0b3b0b  .4....."....:.;.
 0210 390b4913 0000232e 013f1903 0e3a0b3b  9.I...#..?...:.;
 0220 05390b27 1949133c 19011300 00242e01  .9.'.I.<.....$..
 0230 3f19030e 3a0b3b0b 390b2719 49133c19  ?...:.;.9.'.I.<.
 0240 01130000 251d0131 13110112 07582101  ....%..1.....X!.
 0250 5905570b 0000261d 00311311 01120758  Y.W...&..1.....X
 0260 21015905 57211f00 00272e01 3f19030e  !.Y.W!...'..?...
 0270 3a0b3b0b 39210127 19491320 21033419  :.;.9!.'.I. !.4.
 0280 01130000 28260049 13000029 1300030e  ....(&.I...)....
 0290 3c190000 2a180000 002b1301 030e0b0b  <...*....+......
 02a0 3a0b3b0b 39210801 1300002c 01014913  :.;.9!.....,..I.
 02b0 01130000 2d210049 132f0b00 002e2e01  ....-!.I./......
 02c0 3f19030e 3a21103b 0539210d 27193c19  ?...:!.;.9!.'.<.
 02d0 01130000 2f340003 0e3a2101 3b053921  ..../4...:!.;.9!
 02e0 1e491300 00301101 250e130b 031f1b1f  .I...0..%.......
 02f0 11011207 10170000 3124000b 0b3e0b03  ........1$...>..
 0300 08000032 0f000b0b 00003316 00030e3a  ...2......3....:
 0310 0b3b0b39 0b000034 3400030e 3a0b3b0b  .;.9...44...:.;.
 0320 390b4913 3f193c19 00003516 00030e3a  9.I.?.<...5....:
 0330 0b3b0b39 0b491388 010b0000 362e003f  .;.9.I......6..?
 0340 19030e3a 0b3b0539 0b271949 133c1900  ...:.;.9.'.I.<..
 0350 00372e01 3f19030e 3a0b3b05 390b2719  .7..?...:.;.9.'.
 0360 8701193c 19011300 00382e01 3f19030e  ...<.....8..?...
 0370 3a0b3b05 390b6e0e 27194913 3c190113  :.;.9.n.'.I.<...
 0380 0000392e 013f1903 0e3a0b3b 05390b27  ..9..?...:.;.9.'
 0390 19491311 01120740 187c1901 1300003a  .I.....@.|.....:
 03a0 2e013f19 030e3a0b 3b05390b 27191101  ..?...:.;.9.'...
 03b0 12074018 7a190113 00003b2e 003f1903  ..@.z.....;..?..
 03c0 0e3a0b3b 05390b27 19491320 0b341900  .:.;.9.'.I. .4..
 03d0 003c2e00 3f19030e 3a0b3b0b 390b2719  .<..?...:.;.9.'.
 03e0 4913200b 34190000 00                 I. .4....       
Contents of section .debug_aranges:
 0000 2c000000 02000000 00000800 00000000  ,...............
 0010 00000000 00000000 f9280000 00000000  .........(......
 0020 00000000 00000000 00000000 00000000  ................
Contents of section .debug_rnglists:
 0000 3f000000 05000800 00000000 04bc48c5  ?.............H.
 0010 4804a249 e6490004 ad4ab64a 04934bdd  H..I.I...J.J..K.
 0020 4b0004a4 4cad4c04 8a4dd64d 00049b4e  K...L.L..M.M...N
 0030 a44e0488 4fe34f00 04a850b1 50049551  .N..O.O...P.P..Q
 0040 f05100                               .Q.             
Contents of section .debug_line:
 0000 830f0000 05000800 89000000 010101fb  ................
 0010 0e0d0001 01010100 00000100 00010101  ................
 0020 1f060000 00000000 00000000 00000000  ................
 0030 00000000 00000000 00000201 1f020f11  ................
 0040 00000000 01000000 00010000 00000200  ................
 0050 00000002 00000000 02000000 00030000  ................
 0060 00000300 00000002 00000000 04000000  ................
 0070 00030000 00000300 00000003 00000000  ................
 0080 04000000 00050000 00000500 00000005  ................
 0090 00000000 05053c00 09020000 00000000  ......<.........
 00a0 000003e7 00010511 08750505 82050d2f  .........u...../
 00b0 050c0226 12050d59 02231305 23000204  ...&...Y.#..#...
 00c0 029b051a 00020401 4a0501a4 053e4c05  ........J....>L.
 00d0 11087505 05820523 2f050d82 050c0222  ..u....#/......"
 00e0 12050d59 02231305 23000204 029b051a  ...Y.#..#.......
 00f0 00020401 4a0501a4 053e4c05 11087505  ....J....>L...u.
 0100 05820522 2f050dba 050c0222 12050d59  ..."/......"...Y
 0110 02231305 23000204 029b051a 00020401  .#..#...........
 0120 4a0501a4 053e4c05 11087505 05820522  J....>L...u...."
 0130 2f050dba 050c0222 12050d59 02231305  /......"...Y.#..
 0140 23000204 029b051a 00020401 4a0501a4  #...........J...
 0150 053e4c05 11087505 05820523 2f050dba  .>L...u....#/...
 0160 050c0222 12050d59 02231305 23000204  ..."...Y.#..#...
 0170 029b051a 00020401 4a0501a4 05474c05  ........J....GL.
 0180 11087505 05820511 00020403 2f051500  ..u........./...
 0190 02040374 051c0002 04030812 05190002  ...t............
 01a0 04030812 05110002 04035805 23000204  ..........X.#...
 01b0 03ab051a 00020401 4a0501a1 054a4c05  ........J....JL.
 01c0 11087505 05820511 00020403 2f051500  ..u........./...
 01d0 02040374 051c0002 0403084a 05190002  ...t.......J....
 01e0 0403082e 05110002 04035805 23000204  ..........X.#...
 01f0 03ab051a 00020401 4a0501a1 054a4b05  ........J....JK.
 0200 11087505 05820511 00020403 2f051500  ..u........./...
 0210 02040374 051c0002 0403084a 05190002  ...t.......J....
 0220 0403084a 05110002 04035805 23000204  ...J......X.#...
 0230 03ab051a 00020401 4a0501a1 054a4b05  ........J....JK.
 0240 11087505 05820511 00020403 2f051500  ..u........./...
 0250 02040366 051c0002 04030866 05190002  ...f.......f....
 0260 04030866 05110002 0403ba05 23000204  ...f........#...
 0270 0381051a 00020401 4a0501a1 054a4b05  ........J....JK.
 0280 11087505 05820511 00020403 2f051500  ..u........./...
 0290 02040366 051c0002 04030866 05190002  ...f.......f....
 02a0 04030866 05110002 0403ba05 23000204  ...f........#...
 02b0 0381051a 00020401 4a0501a1 05484c05  ........J....HL.
 02c0 0e087505 05740511 00020403 59051500  ..u..t......Y...
 02d0 02040374 051c0002 04030820 05190002  ...t....... ....
 02e0 04030820 05110002 04035800 020403ad  ... ......X.....
 02f0 05150002 04037405 20000204 03085805  ......t. .....X.
 0300 1d000204 03085805 11000204 03580002  ......X......X..
 0310 0403ad05 15000204 03740520 00020403  .........t. ....
 0320 0858051d 00020403 08580511 00020403  .X.......X......
 0330 58000204 03ad0515 00020403 74052000  X...........t. .
 0340 02040308 58051d00 02040308 58051100  ....X.......X...
 0350 02040358 00020403 ad051500 02040374  ...X...........t
 0360 05200002 04030858 051d0002 04030858  . .....X.......X
 0370 05110002 04035800 020403ad 05150002  ......X.........
 0380 04037405 20000204 03085805 1d000204  ..t. .....X.....
 0390 03085805 11000204 03580002 0403ad05  ..X......X......
 03a0 15000204 03740520 00020403 0858051d  .....t. .....X..
 03b0 00020403 08580511 00020403 58000204  .....X......X...
 03c0 03ad0515 00020403 74052000 02040308  ........t. .....
 03d0 58051d00 02040308 58051100 02040358  X.......X......X
 03e0 05210002 04030378 ac051700 0204014a  .!.....x.......J
 03f0 030ae405 0e4a0505 66051100 0204032f  .....J..f....../
 0400 05150002 04037405 1c000204 03082005  ......t....... .
 0410 19000204 03082005 11000204 03580537  ...... ......X.7
 0420 00020403 ab052e00 0204013c 0501af05  ...........<....
 0430 4b4c050e 08750505 74051100 02040359  KL...u..t......Y
 0440 05150002 04037405 1c000204 03085805  ......t.......X.
 0450 19000204 03083c05 11000204 03580002  ......<......X..
 0460 0403ad05 15000204 03740520 00020403  .........t. ....
 0470 0882051d 00020403 08660511 00020403  .........f......
 0480 58000204 03ad0515 00020403 74052000  X...........t. .
 0490 02040308 90051d00 02040308 74051100  ............t...
 04a0 02040358 00020403 ad051500 02040374  ...X...........t
 04b0 05200002 04030890 051d0002 04030874  . .............t
 04c0 05110002 04035800 020403ad 05150002  ......X.........
 04d0 04037405 20000204 03089005 1d000204  ..t. ...........
 04e0 03087405 11000204 03580002 0403ad05  ..t......X......
 04f0 15000204 03740520 00020403 0890051d  .....t. ........
 0500 00020403 08740511 00020403 58000204  .....t......X...
 0510 03ad0515 00020403 74052000 02040308  ........t. .....
 0520 90051d00 02040308 74051100 02040358  ........t......X
 0530 00020403 ad051500 02040374 05200002  ...........t. ..
 0540 04030890 051d0002 04030874 05110002  ...........t....
 0550 04035805 21000204 030378ac 05170002  ..X.!.....x.....
 0560 04014a03 0ae4050e 4a050566 05110002  ..J.....J..f....
 0570 04032f05 15000204 0374051c 00020403  ../......t......
 0580 08580519 00020403 083c0511 00020403  .X.......<......
 0590 58053700 020403ab 052e0002 04013c05  X.7...........<.
 05a0 01af054b 4c050e08 75050574 05110002  ...KL...u..t....
 05b0 04035905 15000204 0374051c 00020403  ..Y......t......
 05c0 08580519 00020403 08580511 00020403  .X.......X......
 05d0 58000204 03ad0515 00020403 74052000  X...........t. .
 05e0 02040308 82051d00 02040308 82051100  ................
 05f0 02040358 00020403 ad051500 02040374  ...X...........t
 0600 05200002 04030890 051d0002 04030890  . ..............
 0610 05110002 04035800 020403ad 05150002  ......X.........
 0620 04037405 20000204 03089005 1d000204  ..t. ...........
 0630 03089005 11000204 03580002 0403ad05  .........X......
 0640 15000204 03740520 00020403 0890051d  .....t. ........
 0650 00020403 08900511 00020403 58000204  ............X...
 0660 03ad0515 00020403 74052000 02040308  ........t. .....
 0670 90051d00 02040308 90051100 02040358  ...............X
 0680 00020403 ad051500 02040374 05200002  ...........t. ..
 0690 04030890 051d0002 04030890 05110002  ................
 06a0 04035800 020403ad 05150002 04037405  ..X...........t.
 06b0 20000204 03089005 1d000204 03089005   ...............
 06c0 11000204 03580521 00020403 0378ac05  .....X.!.....x..
 06d0 17000204 014a030a e4050e4a 05056605  .....J.....J..f.
 06e0 11000204 032f0515 00020403 74051c00  ...../......t...
 06f0 02040308 58051900 02040308 58051100  ....X.......X...
 0700 02040358 05370002 0403ab05 2e000204  ...X.7..........
 0710 013c0501 af054b4c 050e0875 05057405  .<....KL...u..t.
 0720 11000204 03590515 00020403 66051c00  .....Y......f...
 0730 02040308 74051900 02040308 74051100  ....t.......t...
 0740 020403ba 00020403 83051500 02040366  ...............f
 0750 05200002 0403089e 051d0002 0403089e  . ..............
 0760 05110002 0403ba00 02040383 05150002  ................
 0770 04036605 20000204 0308ac05 1d000204  ..f. ...........
 0780 0308ac05 11000204 03ba0002 04038305  ................
 0790 15000204 03660520 00020403 08ac051d  .....f. ........
 07a0 00020403 08ac0511 00020403 ba000204  ................
 07b0 03830515 00020403 66052000 02040308  ........f. .....
 07c0 ac051d00 02040308 ac051100 020403ba  ................
 07d0 00020403 83051500 02040366 05200002  ...........f. ..
 07e0 040308ac 051d0002 040308ac 05110002  ................
 07f0 0403ba00 02040383 05150002 04036605  ..............f.
 0800 20000204 0308ac05 1d000204 0308ac05   ...............
 0810 11000204 03ba0002 04038305 15000204  ................
 0820 03660520 00020403 08ac051d 00020403  .f. ............
 0830 08ac0511 00020403 ba052100 02040303  ..........!.....
 0840 78820517 00020401 4a030ae4 050e4a05  x.......J.....J.
 0850 05660511 00020403 2f051500 02040366  .f....../......f
 0860 051c0002 04030874 05190002 04030874  .......t.......t
 0870 05110002 0403ba05 37000204 0381052e  ........7.......
 0880 00020401 3c0501af 054b4c05 0e087505  ....<....KL...u.
 0890 05740511 00020403 59051500 02040366  .t......Y......f
 08a0 051c0002 04030874 05190002 04030874  .......t.......t
 08b0 05110002 0403ba00 02040383 05150002  ................
 08c0 04036605 20000204 03089e05 1d000204  ..f. ...........
 08d0 03089e05 11000204 03ba0002 04038305  ................
 08e0 15000204 03660520 00020403 08ac051d  .....f. ........
 08f0 00020403 08ac0511 00020403 ba000204  ................
 0900 03830515 00020403 66052000 02040308  ........f. .....
 0910 ac051d00 02040308 ac051100 020403ba  ................
 0920 00020403 83051500 02040366 05200002  ...........f. ..
 0930 040308ac 051d0002 040308ac 05110002  ................
 0940 0403ba00 02040383 05150002 04036605  ..............f.
 0950 20000204 0308ac05 1d000204 0308ac05   ...............
 0960 11000204 03ba0002 04038305 15000204  ................
 0970 03660520 00020403 08ac051d 00020403  .f. ............
 0980 08ac0511 00020403 ba000204 03830515  ................
 0990 00020403 66052000 02040308 ac051d00  ....f. .........
 09a0 02040308 ac051100 020403ba 05210002  .............!..
 09b0 04030378 82051700 0204014a 030ae405  ...x.......J....
 09c0 0e4a0505 66051100 0204032f 05150002  .J..f....../....
 09d0 04036605 1c000204 03087405 19000204  ..f.......t.....
 09e0 03087405 11000204 03ba0537 00020403  ..t........7....
 09f0 81052e00 0204013c 0501af05 4a4c08ac  .......<....JL..
 0a00 050ee505 0d830248 16050108 4b054d08  .......H....K.M.
 0a10 6808ac05 0ee5050d 83024816 0501084b  h.........H....K
 0a20 054d0868 08ac050e e5050d83 02481605  .M.h.........H..
 0a30 01084b05 4d086808 ac050ee5 050d5902  ..K.M.h.......Y.
 0a40 44160501 0813054d 086808ac 050ee505  D......M.h......
 0a50 0d590244 16050108 13056a08 68040205  .Y.D......j.h...
 0a60 1803ef03 08660401 051f0394 7c4a0402  .....f......|J..
 0a70 051803ec 034a0401 051f0395 7c4a051b  .....J......|J..
 0a80 4c3d0519 3f050959 053b0002 04025a05  L=..?..Y.;....Z.
 0a90 36000204 02740403 05140002 040203b7  6....t..........
 0aa0 7ed60401 05230002 040203c9 01ac053b  ~....#.........;
 0ab0 00020402 4b053600 02040274 04030514  ....K.6....t....
 0ac0 00020402 03b67ed6 04010523 00020402  ......~....#....
 0ad0 03ca01ac 04040514 00020402 0315d605  ................
 0ae0 0a000204 02e40401 05280002 04020371  .........(.....q
 0af0 20040205 13000204 0203a807 082e050a   ...............
 0b00 00020402 08120401 05120002 040203db  ................
 0b10 78200402 05130002 040203a5 07082e05  x ..............
 0b20 0a000204 02081204 01051200 02040203  ................
 0b30 dc782004 04051400 02040203 0b083c05  .x ...........<.
 0b40 0a000204 02084a04 01052900 02040203  ......J...).....
 0b50 78200402 05150002 040203e8 05087405  x ............t.
 0b60 23000204 02820521 00020402 82040105  #......!........
 0b70 12000204 02039a7a 4a040205 15000204  .......zJ.......
 0b80 0203e605 08740523 00020402 82052100  .....t.#......!.
 0b90 02040282 050a0002 04024a04 01051200  ..........J.....
 0ba0 02040203 9b7a2005 21000204 02036d4a  .....z .!.....mJ
 0bb0 05120002 04014a05 16000204 014a0402  ......J......J..
 0bc0 051503f8 05089e05 23580521 58040105  ........#X.!X...
 0bd0 0e039e7a 4a05114d 05143c05 2f58052d  ...zJ..M..<./X.-
 0be0 6605113c 05096905 15000204 022f0522  f..<..i....../."
 0bf0 00020402 3c051800 020402c8 05290002  ....<........)..
 0c00 04023c05 26000204 02f20515 00020402  ..<.&...........
 0c10 4a051b00 02040265 05120002 04013c05  J......e......<.
 0c20 05032958 056aca08 58040205 0a03ef7d  ..)X.j..X......}
 0c30 e4040105 1f039302 4a040205 0a03ed7d  ........J......}
 0c40 4a040105 1f039402 4a05194d 05095905  J.......J..M..Y.
 0c50 32000204 02300530 00020402 82040205  2....0.0........
 0c60 0a000204 0203fb7d 9e040105 23000204  .......}....#...
 0c70 02038502 ac053200 0204024b 05300002  ......2....K.0..
 0c80 04028204 02050a00 02040203 fa7d9e00  .............}..
 0c90 02040203 8d01084a 00020402 036808c8  .......J.....h..
 0ca0 04010512 00020402 039601f2 05210002  .............!..
 0cb0 04020378 4a051200 0204014a 05160002  ...xJ......J....
 0cc0 04014a04 02050a03 f27e082e 0401050e  ..J......~......
 0cd0 0399019e 04020517 03a97eba 05130384  ..........~.....
 0ce0 06082005 0a9e0517 03fc7990 04010526  .. .......y....&
 0cf0 03da0182 0511ba05 262e0511 6605094d  ........&...f..M
 0d00 05150002 04022f05 19000204 022e0520  ....../........ 
 0d10 00020402 e4051d00 020402e4 05150002  ................
 0d20 04020820 051b0002 04024905 12000204  ... ......I.....
 0d30 013c0501 03215808 a108ac05 0be50505  .<...!X.........
 0d40 9e050803 a6017405 09910510 02281305  ......t......(..
 0d50 1da00513 ac050cac 050b7505 09082105  ..........u...!.
 0d60 08088205 12830002 04010608 c8000204  ................
 0d70 02022d12 00020402 0608e500 02040106  ..-.............
 0d80 08c80002 0402022d 12000204 020608e5  .......-........
 0d90 05090002 04028400 02040306 c8000204  ................
 0da0 01023412 06f30002 040306c8 00020401  ..4.............
 0db0 02341205 0d06f5e5 081308c9 02631305  .4...........c..
 0dc0 1008a105 0d85e508 1308c902 63130510  ............c...
 0dd0 08a1050d 85e50813 08c90263 13050908  ...........c....
 0de0 a1083d05 10088305 0f088205 12830002  ..=.............
 0df0 04010602 24120002 0402022d 12000204  ....$......-....
 0e00 02060223 13000204 01060224 12000204  ...#.......$....
 0e10 02022d12 00020402 06022313 05090002  ..-.......#.....
 0e20 04025a00 02040306 c8000204 01025112  ..Z...........Q.
 0e30 06f30002 040306c8 00020401 02511205  .............Q..
 0e40 0d06f5e5 08130224 13026313 05100223  .......$..c....#
 0e50 15050d5b e5081302 24130263 13051002  ...[....$..c....
 0e60 2315050d 5be50813 02241302 63130509  #...[....$..c...
 0e70 02231508 91050a08 af051402 2513050c  .#..........%...
 0e80 77050159 050d03c7 7c085808 2e052700  w..Y....|.X...'.
 0e90 02040202 34120512 00020401 025d1405  ....4........]..
 0ea0 19000204 01081205 16000204 01081205  ................
 0eb0 0e000204 0158050d 08b80309 90082e05  .....X..........
 0ec0 27000204 02023412 05120002 0401025d  '.....4........]
 0ed0 14051900 02040108 4a051600 02040108  ........J.......
 0ee0 2e050e00 02040158 050d08b8 03099008  .......X........
 0ef0 2e052700 02040202 34120512 00020401  ..'.....4.......
 0f00 025d1405 19000204 01084a05 16000204  .]........J.....
 0f10 01084a05 0e000204 0158050d 08b80309  ..J......X......
 0f20 90082e05 27000204 02023212 05120002  ....'.....2.....
 0f30 04010264 14051900 02040108 66051600  ...d........f...
 0f40 02040108 66050e00 020401ba 050d08f0  ....f...........
 0f50 03099008 2e052700 02040202 32120512  ......'.....2...
 0f60 00020401 02641405 19000204 01086605  .....d........f.
 0f70 16000204 01086605 0e000204 01ba050d  ......f.........
 0f80 08f00209 000101                      .......         
Contents of section .debug_str:
 0000 7072696e 74660061 746f6c6c 0073686f  printf.atoll.sho
 0010 72742069 6e74005f 494f5f72 6561645f  rt int._IO_read_
 0020 70747200 6d616c6c 6f63005f 63686169  ptr.malloc._chai
 0030 6e00646f 7470726f 64756374 5f706c61  n.dotproduct_pla
 0040 696e5f66 33320073 7472636d 7000646f  in_f32.strcmp.do
 0050 7470726f 64756374 5f706172 616c6c65  tproduct_paralle
 0060 6c5f6633 32007369 7a655f74 00646174  l_f32.size_t.dat
 0070 615f7400 5f6d6d5f 6d756c5f 65706933  a_t._mm_mul_epi3
 0080 3200646f 7470726f 64756374 5f756e77  2.dotproduct_unw
 0090 696e645f 66333200 5f494f5f 6275665f  ind_f32._IO_buf_
 00a0 62617365 006c6f6e 67206c6f 6e672075  base.long long u
 00b0 6e736967 6e656420 696e7400 5f6d6d5f  nsigned int._mm_
 00c0 7365747a 65726f5f 73693132 38005f5f  setzero_si128.__
 00d0 696e7436 345f7400 646f7470 726f6475  int64_t.dotprodu
 00e0 63745f73 696d6466 00667265 65005f63  ct_simdf.free._c
 00f0 6f646563 7674006c 6f6e6720 6c6f6e67  odecvt.long long
 0100 20696e74 00736967 6e656420 63686172   int.signed char
 0110 005f6669 6c656e6f 005f494f 5f726561  ._fileno._IO_rea
 0120 645f656e 64006c6f 6e672069 6e74005f  d_end.long int._
 0130 666c6167 73005f77 6964655f 64617461  flags._wide_data
 0140 005f494f 5f627566 5f656e64 005f6375  ._IO_buf_end._cu
 0150 725f636f 6c756d6e 00646f74 70726f64  r_column.dotprod
 0160 7563745f 706c6169 6e5f6931 36005f49  uct_plain_i16._I
 0170 4f5f636f 64656376 7400646f 75626c65  O_codecvt.double
 0180 005f6f6c 645f6f66 66736574 005f6f66  ._old_offset._of
 0190 66736574 005f6d6d 5f637674 73645f66  fset._mm_cvtsd_f
 01a0 3634005f 5f706164 35007465 6d70005f  64.__pad5.temp._
 01b0 494f5f6d 61726b65 7200646f 7470726f  IO_marker.dotpro
 01c0 64756374 5f706172 616c6c65 6c5f6931  duct_parallel_i1
 01d0 362e5f6f 6d705f66 6e2e3000 756e7369  6._omp_fn.0.unsi
 01e0 676e6564 20696e74 005f6672 65657265  gned int._freere
 01f0 735f6275 66007665 635f6672 6f6d4669  s_buf.vec_fromFi
 0200 6c655374 7265616d 5f663332 00667072  leStream_f32.fpr
 0210 696e7466 00636c6f 636b5f67 65747469  intf.clock_getti
 0220 6d65005f 6d6d5f6d 756c5f70 64006c6f  me._mm_mul_pd.lo
 0230 6e672075 6e736967 6e656420 696e7400  ng unsigned int.
 0240 72616e64 005f494f 5f777269 74655f70  rand._IO_write_p
 0250 74720064 6f747072 6f647563 745f7369  tr.dotproduct_si
 0260 6d646900 73697a65 0073686f 72742075  mdi.size.short u
 0270 6e736967 6e656420 696e7400 656c6170  nsigned int.elap
 0280 73656400 5f5f7634 73690076 65635f66  sed.__v4si.vec_f
 0290 726f6d46 696c6553 74726561 6d5f6938  romFileStream_i8
 02a0 005f494f 5f736176 655f6261 7365005f  ._IO_save_base._
 02b0 5f69736f 6339395f 66736361 6e660064  _isoc99_fscanf.d
 02c0 6f747072 6f647563 745f706c 61696e5f  otproduct_plain_
 02d0 66363400 646f7470 726f6475 63745f70  f64.dotproduct_p
 02e0 6172616c 6c656c5f 66363400 646f7470  arallel_f64.dotp
 02f0 726f6475 63745f70 6172616c 6c656c5f  roduct_parallel_
 0300 69313600 5f6c6f63 6b005f6d 6f646500  i16._lock._mode.
 0310 646f7470 726f6475 63745f75 6e77696e  dotproduct_unwin
 0320 645f6636 34007363 616c6172 5f660073  d_f64.scalar_f.s
 0330 63616c61 725f6900 646f7470 726f6475  calar_i.dotprodu
 0340 63745f70 6c61696e 5f693332 005f5f6d  ct_plain_i32.__m
 0350 31323864 00646f74 70726f64 7563745f  128d.dotproduct_
 0360 70617261 6c6c656c 5f693332 0074765f  parallel_i32.tv_
 0370 6e736563 00646f74 70726f64 7563745f  nsec.dotproduct_
 0380 756e7769 6e645f69 33320074 765f7365  unwind_i32.tv_se
 0390 63005f5f 73797363 616c6c5f 736c6f6e  c.__syscall_slon
 03a0 675f7400 5f6d6d5f 756e7061 636b6869  g_t._mm_unpackhi
 03b0 5f706400 646f7470 726f6475 63745f70  _pd.dotproduct_p
 03c0 6172616c 6c656c5f 6938005f 494f5f6c  arallel_i8._IO_l
 03d0 6f636b5f 74005f49 4f5f4649 4c450074  ock_t._IO_FILE.t
 03e0 696d6500 6d756c5f 6576656e 005f5f6f  ime.mul_even.__o
 03f0 66665f74 0074696d 655f7400 666c6f61  ff_t.time_t.floa
 0400 74005f5f 6d313238 645f7500 646f7470  t.__m128d_u.dotp
 0410 726f6475 63745f70 6172616c 6c656c5f  roduct_parallel_
 0420 6636342e 5f6f6d70 5f666e2e 30005f6d  f64._omp_fn.0._m
 0430 61726b65 72730064 6f747072 6f647563  arkers.dotproduc
 0440 745f7061 72616c6c 656c5f66 33322e5f  t_parallel_f32._
 0450 6f6d705f 666e2e30 00737261 6e64005f  omp_fn.0.srand._
 0460 5f636c6f 636b6964 5f740075 6e736967  _clockid_t.unsig
 0470 6e656420 63686172 005f6d6d 5f616464  ned char._mm_add
 0480 5f706400 646f7470 726f6475 63745f75  _pd.dotproduct_u
 0490 6e77696e 645f6931 3600646f 7470726f  nwind_i16.dotpro
 04a0 64756374 5f706172 616c6c65 6c5f6933  duct_parallel_i3
 04b0 322e5f6f 6d705f66 6e2e3000 474e5520  2._omp_fn.0.GNU 
 04c0 43313720 31312e34 2e30202d 6d617263  C17 11.4.0 -marc
 04d0 683d7a6e 76657233 202d6d6d 6d78202d  h=znver3 -mmmx -
 04e0 6d706f70 636e7420 2d6d7373 65202d6d  mpopcnt -msse -m
 04f0 73736532 202d6d73 73653320 2d6d7373  sse2 -msse3 -mss
 0500 73653320 2d6d7373 65342e31 202d6d73  se3 -msse4.1 -ms
 0510 7365342e 32202d6d 61767820 2d6d6176  se4.2 -mavx -mav
 0520 7832202d 6d737365 3461202d 6d6e6f2d  x2 -msse4a -mno-
 0530 666d6134 202d6d6e 6f2d786f 70202d6d  fma4 -mno-xop -m
 0540 666d6120 2d6d6e6f 2d617678 35313266  fma -mno-avx512f
 0550 202d6d62 6d69202d 6d626d69 32202d6d   -mbmi -mbmi2 -m
 0560 61657320 2d6d7063 6c6d756c 202d6d6e  aes -mpclmul -mn
 0570 6f2d6176 78353132 766c202d 6d6e6f2d  o-avx512vl -mno-
 0580 61767835 31326277 202d6d6e 6f2d6176  avx512bw -mno-av
 0590 78353132 6471202d 6d6e6f2d 61767835  x512dq -mno-avx5
 05a0 31326364 202d6d6e 6f2d6176 78353132  12cd -mno-avx512
 05b0 6572202d 6d6e6f2d 61767835 31327066  er -mno-avx512pf
 05c0 202d6d6e 6f2d6176 78353132 76626d69   -mno-avx512vbmi
 05d0 202d6d6e 6f2d6176 78353132 69666d61   -mno-avx512ifma
 05e0 202d6d6e 6f2d6176 78353132 34766e6e   -mno-avx5124vnn
 05f0 6977202d 6d6e6f2d 61767835 31323466  iw -mno-avx5124f
 0600 6d617073 202d6d6e 6f2d6176 78353132  maps -mno-avx512
 0610 76706f70 636e7464 71202d6d 6e6f2d61  vpopcntdq -mno-a
 0620 76783531 3276626d 6932202d 6d6e6f2d  vx512vbmi2 -mno-
 0630 67666e69 202d6d76 70636c6d 756c7164  gfni -mvpclmulqd
 0640 71202d6d 6e6f2d61 76783531 32766e6e  q -mno-avx512vnn
 0650 69202d6d 6e6f2d61 76783531 32626974  i -mno-avx512bit
 0660 616c6720 2d6d6e6f 2d617678 35313262  alg -mno-avx512b
 0670 66313620 2d6d6e6f 2d617678 35313276  f16 -mno-avx512v
 0680 7032696e 74657273 65637420 2d6d6e6f  p2intersect -mno
 0690 2d33646e 6f77202d 6d616478 202d6d61  -3dnow -madx -ma
 06a0 626d202d 6d6e6f2d 636c6465 6d6f7465  bm -mno-cldemote
 06b0 202d6d63 6c666c75 73686f70 74202d6d   -mclflushopt -m
 06c0 636c7762 202d6d63 6c7a6572 6f202d6d  clwb -mclzero -m
 06d0 63783136 202d6d6e 6f2d656e 71636d64  cx16 -mno-enqcmd
 06e0 202d6d66 31366320 2d6d6673 67736261   -mf16c -mfsgsba
 06f0 7365202d 6d667873 72202d6d 6e6f2d68  se -mfxsr -mno-h
 0700 6c65202d 6d736168 66202d6d 6e6f2d6c  le -msahf -mno-l
 0710 7770202d 6d6c7a63 6e74202d 6d6d6f76  wp -mlzcnt -mmov
 0720 6265202d 6d6e6f2d 6d6f7664 69723634  be -mno-movdir64
 0730 62202d6d 6e6f2d6d 6f766469 7269202d  b -mno-movdiri -
 0740 6d6e6f2d 6d776169 7478202d 6d6e6f2d  mno-mwaitx -mno-
 0750 70636f6e 66696720 2d6d6e6f 2d706b75  pconfig -mno-pku
 0760 202d6d6e 6f2d7072 65666574 63687774   -mno-prefetchwt
 0770 31202d6d 70726663 6877202d 6d6e6f2d  1 -mprfchw -mno-
 0780 70747772 69746520 2d6d7264 70696420  ptwrite -mrdpid 
 0790 2d6d7264 726e6420 2d6d7264 73656564  -mrdrnd -mrdseed
 07a0 202d6d6e 6f2d7274 6d202d6d 6e6f2d73   -mno-rtm -mno-s
 07b0 65726961 6c697a65 202d6d6e 6f2d7367  erialize -mno-sg
 07c0 78202d6d 73686120 2d6d7368 73746b20  x -msha -mshstk 
 07d0 2d6d6e6f 2d74626d 202d6d6e 6f2d7473  -mno-tbm -mno-ts
 07e0 786c6474 726b202d 6d766165 73202d6d  xldtrk -mvaes -m
 07f0 6e6f2d77 61697470 6b67202d 6d6e6f2d  no-waitpkg -mno-
 0800 77626e6f 696e7664 202d6d78 73617665  wbnoinvd -mxsave
 0810 202d6d78 73617665 63202d6d 78736176   -mxsavec -mxsav
 0820 656f7074 202d6d78 73617665 73202d6d  eopt -mxsaves -m
 0830 6e6f2d61 6d782d74 696c6520 2d6d6e6f  no-amx-tile -mno
 0840 2d616d78 2d696e74 38202d6d 6e6f2d61  -amx-int8 -mno-a
 0850 6d782d62 66313620 2d6d6e6f 2d75696e  mx-bf16 -mno-uin
 0860 7472202d 6d6e6f2d 68726573 6574202d  tr -mno-hreset -
 0870 6d6e6f2d 6b6c202d 6d6e6f2d 77696465  mno-kl -mno-wide
 0880 6b6c202d 6d6e6f2d 61767876 6e6e6920  kl -mno-avxvnni 
 0890 2d2d7061 72616d3d 6c312d63 61636865  --param=l1-cache
 08a0 2d73697a 653d3332 202d2d70 6172616d  -size=32 --param
 08b0 3d6c312d 63616368 652d6c69 6e652d73  =l1-cache-line-s
 08c0 697a653d 3634202d 2d706172 616d3d6c  ize=64 --param=l
 08d0 322d6361 6368652d 73697a65 3d353132  2-cache-size=512
 08e0 202d6d74 756e653d 7a6e7665 7233202d   -mtune=znver3 -
 08f0 67202d4f 30202d66 6f70656e 6d70202d  g -O0 -fopenmp -
 0900 66617379 6e636872 6f6e6f75 732d756e  fasynchronous-un
 0910 77696e64 2d746162 6c657320 2d667374  wind-tables -fst
 0920 61636b2d 70726f74 6563746f 722d7374  ack-protector-st
 0930 726f6e67 202d6673 7461636b 2d636c61  rong -fstack-cla
 0940 73682d70 726f7465 6374696f 6e202d66  sh-protection -f
 0950 63662d70 726f7465 6374696f 6e005f66  cf-protection._f
 0960 6c616773 32007469 6d657370 6563005f  lags2.timespec._
 0970 76746162 6c655f6f 66667365 74004649  vtable_offset.FI
 0980 4c45005f 6d6d5f73 726c695f 65706936  LE._mm_srli_epi6
 0990 34005f6d 6d5f6c64 6471755f 73693132  4._mm_lddqu_si12
 09a0 38006673 63616e66 00766563 5f66726f  8.fscanf.vec_fro
 09b0 6d46696c 65537472 65616d5f 66363400  mFileStream_f64.
 09c0 5f6d6d5f 6c6f6164 755f7064 006c6f6e  _mm_loadu_pd.lon
 09d0 6720646f 75626c65 00636861 72005f6d  g double.char._m
 09e0 6d5f6164 645f6570 69363400 5f5f7469  m_add_epi64.__ti
 09f0 6d655f74 005f5f76 32646600 5f5f7632  me_t.__v2df.__v2
 0a00 64690076 65635f66 726f6d46 696c6553  di.vec_fromFileS
 0a10 74726561 6d5f6933 32005f5f 76326475  tream_i32.__v2du
 0a20 005f5f6f 66663634 5f74005f 494f5f72  .__off64_t._IO_r
 0a30 6561645f 62617365 005f5f6d 31323869  ead_base.__m128i
 0a40 005f494f 5f736176 655f656e 64007665  ._IO_save_end.ve
 0a50 635f6672 6f6d4669 6c655374 7265616d  c_fromFileStream
 0a60 5f693136 00646f74 70726f64 7563745f  _i16.dotproduct_
 0a70 70617261 6c6c656c 5f69382e 5f6f6d70  parallel_i8._omp
 0a80 5f666e2e 30005f6d 6d5f7365 747a6572  _fn.0._mm_setzer
 0a90 6f5f7064 005f494f 5f777269 74655f65  o_pd._IO_write_e
 0aa0 6e64005f 756e7573 65643200 73746465  nd._unused2.stde
 0ab0 72720061 72677600 6d656d73 65740065  rr.argv.memset.e
 0ac0 78697400 6d756c5f 6f646400 5f494f5f  xit.mul_odd._IO_
 0ad0 6261636b 75705f62 61736500 646f7470  backup_base.dotp
 0ae0 726f6475 63745f75 6e77696e 645f6938  roduct_unwind_i8
 0af0 00617267 63005f73 686f7274 62756600  .argc._shortbuf.
 0b00 5f667265 65726573 5f6c6973 74005f49  _freeres_list._I
 0b10 4f5f7769 64655f64 61746100 696e7436  O_wide_data.int6
 0b20 345f7400 73746172 7400636c 6f636b69  4_t.start.clocki
 0b30 645f7400 6d61696e 005f494f 5f777269  d_t.main._IO_wri
 0b40 74655f62 61736500 646f7470 726f6475  te_base.dotprodu
 0b50 63745f70 6c61696e 5f693800 72657375  ct_plain_i8.resu
 0b60 6c7400                               lt.             
Contents of section .debug_line_str:
 0000 2f686f6d 652f7a61 64646c65 2f636f64  /home/zaddle/cod
 0010 652f4350 502f7072 6f6a6563 7432002e  e/CPP/project2..
 0020 2f737263 2f646f74 70726f64 7563742e  /src/dotproduct.
 0030 63002f68 6f6d652f 7a616464 6c652f63  c./home/zaddle/c
 0040 6f64652f 4350502f 70726f6a 65637432  ode/CPP/project2
 0050 002e2f73 7263002f 7573722f 6c69622f  ../src./usr/lib/
 0060 6763632f 7838365f 36342d6c 696e7578  gcc/x86_64-linux
 0070 2d676e75 2f31312f 696e636c 75646500  -gnu/11/include.
 0080 2f757372 2f696e63 6c756465 2f783836  /usr/include/x86
 0090 5f36342d 6c696e75 782d676e 752f6269  _64-linux-gnu/bi
 00a0 74732f74 79706573 002f7573 722f696e  ts/types./usr/in
 00b0 636c7564 652f7838 365f3634 2d6c696e  clude/x86_64-lin
 00c0 75782d67 6e752f62 69747300 2f757372  ux-gnu/bits./usr
 00d0 2f696e63 6c756465 00646f74 70726f64  /include.dotprod
 00e0 7563742e 6300646f 7470726f 64756374  uct.c.dotproduct
 00f0 2e630065 6d6d696e 7472696e 2e680070  .c.emmintrin.h.p
 0100 6d6d696e 7472696e 2e680073 6d6d696e  mmintrin.h.smmin
 0110 7472696e 2e680073 74727563 745f4649  trin.h.struct_FI
 0120 4c452e68 0046494c 452e6800 73746464  LE.h.FILE.h.stdd
 0130 65662e68 00747970 65732e68 0074696d  ef.h.types.h.tim
 0140 655f742e 68007374 72756374 5f74696d  e_t.h.struct_tim
 0150 65737065 632e6800 636c6f63 6b69645f  espec.h.clockid_
 0160 742e6800 73746469 6e742d69 6e746e2e  t.h.stdint-intn.
 0170 68007374 64696f2e 68007469 6d652e68  h.stdio.h.time.h
 0180 00737472 696e672e 68007374 646c6962  .string.h.stdlib
 0190 2e6800                               .h.             
Contents of section .comment:
 0000 00474343 3a202855 62756e74 75203131  .GCC: (Ubuntu 11
 0010 2e342e30 2d317562 756e7475 317e3232  .4.0-1ubuntu1~22
 0020 2e303429 2031312e 342e3000           .04) 11.4.0.    
Contents of section .note.gnu.property:
 0000 04000000 10000000 05000000 474e5500  ............GNU.
 0010 020000c0 04000000 03000000 00000000  ................
Contents of section .eh_frame:
 0000 14000000 00000000 017a5200 01781001  .........zR..x..
 0010 1b0c0708 90010000 1c000000 1c000000  ................
 0020 00000000 8c000000 00450e10 8602430d  .........E....C.
 0030 0602830c 07080000 1c000000 3c000000  ............<...
 0040 00000000 90000000 00450e10 8602430d  .........E....C.
 0050 0602870c 07080000 1c000000 5c000000  ............\...
 0060 00000000 94000000 00450e10 8602430d  .........E....C.
 0070 06028b0c 07080000 1c000000 7c000000  ............|...
 0080 00000000 94000000 00450e10 8602430d  .........E....C.
 0090 06028b0c 07080000 1c000000 9c000000  ................
 00a0 00000000 94000000 00450e10 8602430d  .........E....C.
 00b0 06028b0c 07080000 1c000000 bc000000  ................
 00c0 00000000 6d000000 00450e10 8602430d  ....m....E....C.
 00d0 0602640c 07080000 1c000000 dc000000  ..d.............
 00e0 00000000 73000000 00450e10 8602430d  ....s....E....C.
 00f0 06026a0c 07080000 1c000000 fc000000  ..j.............
 0100 00000000 75000000 00450e10 8602430d  ....u....E....C.
 0110 06026c0c 07080000 1c000000 1c010000  ..l.............
 0120 00000000 7c000000 00450e10 8602430d  ....|....E....C.
 0130 0602730c 07080000 1c000000 3c010000  ..s.........<...
 0140 00000000 7c000000 00450e10 8602430d  ....|....E....C.
 0150 0602730c 07080000 1c000000 5c010000  ..s.........\...
 0160 00000000 a0020000 00450e10 8602430d  .........E....C.
 0170 06039702 0c070800 1c000000 7c010000  ............|...
 0180 00000000 d4020000 00450e10 8602430d  .........E....C.
 0190 0603cb02 0c070800 1c000000 9c010000  ................
 01a0 00000000 e6020000 00450e10 8602430d  .........E....C.
 01b0 0603dd02 0c070800 1c000000 bc010000  ................
 01c0 00000000 25030000 00450e10 8602430d  ....%....E....C.
 01d0 06031c03 0c070800 1c000000 dc010000  ................
 01e0 00000000 25030000 00450e10 8602430d  ....%....E....C.
 01f0 06031c03 0c070800 1c000000 fc010000  ................
 0200 00000000 a7000000 00450e10 8602430d  .........E....C.
 0210 06029e0c 07080000 1c000000 1c020000  ................
 0220 00000000 a7000000 00450e10 8602430d  .........E....C.
 0230 06029e0c 07080000 1c000000 3c020000  ............<...
 0240 00000000 a7000000 00450e10 8602430d  .........E....C.
 0250 06029e0c 07080000 1c000000 5c020000  ............\...
 0260 00000000 9c000000 00450e10 8602430d  .........E....C.
 0270 0602930c 07080000 1c000000 7c020000  ............|...
 0280 00000000 9c000000 00450e10 8602430d  .........E....C.
 0290 0602930c 07080000 24000000 9c020000  ........$.......
 02a0 00000000 fa010000 00450e10 8602430d  .........E....C.
 02b0 06498d03 8c048305 03e8010c 07080000  .I..............
 02c0 20000000 c4020000 00000000 87010000   ...............
 02d0 00450e10 8602430d 06488303 0376010c  .E....C..H...v..
 02e0 07080000 1c000000 e8020000 00000000  ................
 02f0 87090000 00450e10 8602430d 06037e09  .....E....C...~.
 0300 0c070800 20000000 08030000 00000000  .... ...........
 0310 f1000000 00450e10 8602430d 06478c03  .....E....C..G..
 0320 830402e1 0c070800 20000000 2c030000  ........ ...,...
 0330 00000000 f7000000 00450e10 8602430d  .........E....C.
 0340 06478c03 830402e7 0c070800 20000000  .G.......... ...
 0350 50030000 00000000 f9000000 00450e10  P............E..
 0360 8602430d 06478c03 830402e9 0c070800  ..C..G..........
 0370 20000000 74030000 00000000 0d010000   ...t...........
 0380 00450e10 8602430d 06478c03 830402fd  .E....C..G......
 0390 0c070800 20000000 98030000 00000000  .... ...........
 03a0 0d010000 00450e10 8602430d 06478c03  .....E....C..G..
 03b0 830402fd 0c070800                    ........        

Disassembly of section .text:

0000000000000000 <vec_fromFileStream_i8>:
       0:	f3 0f 1e fa          	endbr64 
       4:	55                   	push   %rbp
       5:	48 89 e5             	mov    %rsp,%rbp
       8:	48 83 ec 30          	sub    $0x30,%rsp
       c:	48 89 7d e8          	mov    %rdi,-0x18(%rbp)
      10:	48 89 75 e0          	mov    %rsi,-0x20(%rbp)
      14:	48 89 55 d8          	mov    %rdx,-0x28(%rbp)
      18:	48 c7 45 f8 00 00 00 	movq   $0x0,-0x8(%rbp)
      1f:	00 
      20:	eb 5c                	jmp    7e <vec_fromFileStream_i8+0x7e>
      22:	48 8b 55 e0          	mov    -0x20(%rbp),%rdx
      26:	48 8b 45 f8          	mov    -0x8(%rbp),%rax
      2a:	48 01 c2             	add    %rax,%rdx
      2d:	48 8b 45 e8          	mov    -0x18(%rbp),%rax
      31:	48 8d 0d 00 00 00 00 	lea    0x0(%rip),%rcx        # 38 <vec_fromFileStream_i8+0x38>
      38:	48 89 ce             	mov    %rcx,%rsi
      3b:	48 89 c7             	mov    %rax,%rdi
      3e:	b8 00 00 00 00       	mov    $0x0,%eax
      43:	e8 00 00 00 00       	call   48 <vec_fromFileStream_i8+0x48>
      48:	83 f8 01             	cmp    $0x1,%eax
      4b:	74 2d                	je     7a <vec_fromFileStream_i8+0x7a>
      4d:	48 8b 05 00 00 00 00 	mov    0x0(%rip),%rax        # 54 <vec_fromFileStream_i8+0x54>
      54:	48 89 c1             	mov    %rax,%rcx
      57:	ba 2a 00 00 00       	mov    $0x2a,%edx
      5c:	be 01 00 00 00       	mov    $0x1,%esi
      61:	48 8d 05 00 00 00 00 	lea    0x0(%rip),%rax        # 68 <vec_fromFileStream_i8+0x68>
      68:	48 89 c7             	mov    %rax,%rdi
      6b:	e8 00 00 00 00       	call   70 <vec_fromFileStream_i8+0x70>
      70:	bf 01 00 00 00       	mov    $0x1,%edi
      75:	e8 00 00 00 00       	call   7a <vec_fromFileStream_i8+0x7a>
      7a:	48 ff 45 f8          	incq   -0x8(%rbp)
      7e:	48 8b 45 f8          	mov    -0x8(%rbp),%rax
      82:	48 3b 45 d8          	cmp    -0x28(%rbp),%rax
      86:	72 9a                	jb     22 <vec_fromFileStream_i8+0x22>
      88:	90                   	nop
      89:	90                   	nop
      8a:	c9                   	leave  
      8b:	c3                   	ret    

000000000000008c <vec_fromFileStream_i16>:
      8c:	f3 0f 1e fa          	endbr64 
      90:	55                   	push   %rbp
      91:	48 89 e5             	mov    %rsp,%rbp
      94:	48 83 ec 30          	sub    $0x30,%rsp
      98:	48 89 7d e8          	mov    %rdi,-0x18(%rbp)
      9c:	48 89 75 e0          	mov    %rsi,-0x20(%rbp)
      a0:	48 89 55 d8          	mov    %rdx,-0x28(%rbp)
      a4:	48 c7 45 f8 00 00 00 	movq   $0x0,-0x8(%rbp)
      ab:	00 
      ac:	eb 60                	jmp    10e <vec_fromFileStream_i16+0x82>
      ae:	48 8b 45 f8          	mov    -0x8(%rbp),%rax
      b2:	48 8d 14 00          	lea    (%rax,%rax,1),%rdx
      b6:	48 8b 45 e0          	mov    -0x20(%rbp),%rax
      ba:	48 01 c2             	add    %rax,%rdx
      bd:	48 8b 45 e8          	mov    -0x18(%rbp),%rax
      c1:	48 8d 0d 00 00 00 00 	lea    0x0(%rip),%rcx        # c8 <vec_fromFileStream_i16+0x3c>
      c8:	48 89 ce             	mov    %rcx,%rsi
      cb:	48 89 c7             	mov    %rax,%rdi
      ce:	b8 00 00 00 00       	mov    $0x0,%eax
      d3:	e8 00 00 00 00       	call   d8 <vec_fromFileStream_i16+0x4c>
      d8:	83 f8 01             	cmp    $0x1,%eax
      db:	74 2d                	je     10a <vec_fromFileStream_i16+0x7e>
      dd:	48 8b 05 00 00 00 00 	mov    0x0(%rip),%rax        # e4 <vec_fromFileStream_i16+0x58>
      e4:	48 89 c1             	mov    %rax,%rcx
      e7:	ba 2b 00 00 00       	mov    $0x2b,%edx
      ec:	be 01 00 00 00       	mov    $0x1,%esi
      f1:	48 8d 05 00 00 00 00 	lea    0x0(%rip),%rax        # f8 <vec_fromFileStream_i16+0x6c>
      f8:	48 89 c7             	mov    %rax,%rdi
      fb:	e8 00 00 00 00       	call   100 <vec_fromFileStream_i16+0x74>
     100:	bf 01 00 00 00       	mov    $0x1,%edi
     105:	e8 00 00 00 00       	call   10a <vec_fromFileStream_i16+0x7e>
     10a:	48 ff 45 f8          	incq   -0x8(%rbp)
     10e:	48 8b 45 f8          	mov    -0x8(%rbp),%rax
     112:	48 3b 45 d8          	cmp    -0x28(%rbp),%rax
     116:	72 96                	jb     ae <vec_fromFileStream_i16+0x22>
     118:	90                   	nop
     119:	90                   	nop
     11a:	c9                   	leave  
     11b:	c3                   	ret    

000000000000011c <vec_fromFileStream_i32>:
     11c:	f3 0f 1e fa          	endbr64 
     120:	55                   	push   %rbp
     121:	48 89 e5             	mov    %rsp,%rbp
     124:	48 83 ec 30          	sub    $0x30,%rsp
     128:	48 89 7d e8          	mov    %rdi,-0x18(%rbp)
     12c:	48 89 75 e0          	mov    %rsi,-0x20(%rbp)
     130:	48 89 55 d8          	mov    %rdx,-0x28(%rbp)
     134:	48 c7 45 f8 00 00 00 	movq   $0x0,-0x8(%rbp)
     13b:	00 
     13c:	eb 64                	jmp    1a2 <vec_fromFileStream_i32+0x86>
     13e:	48 8b 45 f8          	mov    -0x8(%rbp),%rax
     142:	48 8d 14 85 00 00 00 	lea    0x0(,%rax,4),%rdx
     149:	00 
     14a:	48 8b 45 e0          	mov    -0x20(%rbp),%rax
     14e:	48 01 c2             	add    %rax,%rdx
     151:	48 8b 45 e8          	mov    -0x18(%rbp),%rax
     155:	48 8d 0d 00 00 00 00 	lea    0x0(%rip),%rcx        # 15c <vec_fromFileStream_i32+0x40>
     15c:	48 89 ce             	mov    %rcx,%rsi
     15f:	48 89 c7             	mov    %rax,%rdi
     162:	b8 00 00 00 00       	mov    $0x0,%eax
     167:	e8 00 00 00 00       	call   16c <vec_fromFileStream_i32+0x50>
     16c:	83 f8 01             	cmp    $0x1,%eax
     16f:	74 2d                	je     19e <vec_fromFileStream_i32+0x82>
     171:	48 8b 05 00 00 00 00 	mov    0x0(%rip),%rax        # 178 <vec_fromFileStream_i32+0x5c>
     178:	48 89 c1             	mov    %rax,%rcx
     17b:	ba 2b 00 00 00       	mov    $0x2b,%edx
     180:	be 01 00 00 00       	mov    $0x1,%esi
     185:	48 8d 05 00 00 00 00 	lea    0x0(%rip),%rax        # 18c <vec_fromFileStream_i32+0x70>
     18c:	48 89 c7             	mov    %rax,%rdi
     18f:	e8 00 00 00 00       	call   194 <vec_fromFileStream_i32+0x78>
     194:	bf 01 00 00 00       	mov    $0x1,%edi
     199:	e8 00 00 00 00       	call   19e <vec_fromFileStream_i32+0x82>
     19e:	48 ff 45 f8          	incq   -0x8(%rbp)
     1a2:	48 8b 45 f8          	mov    -0x8(%rbp),%rax
     1a6:	48 3b 45 d8          	cmp    -0x28(%rbp),%rax
     1aa:	72 92                	jb     13e <vec_fromFileStream_i32+0x22>
     1ac:	90                   	nop
     1ad:	90                   	nop
     1ae:	c9                   	leave  
     1af:	c3                   	ret    

00000000000001b0 <vec_fromFileStream_f32>:
     1b0:	f3 0f 1e fa          	endbr64 
     1b4:	55                   	push   %rbp
     1b5:	48 89 e5             	mov    %rsp,%rbp
     1b8:	48 83 ec 30          	sub    $0x30,%rsp
     1bc:	48 89 7d e8          	mov    %rdi,-0x18(%rbp)
     1c0:	48 89 75 e0          	mov    %rsi,-0x20(%rbp)
     1c4:	48 89 55 d8          	mov    %rdx,-0x28(%rbp)
     1c8:	48 c7 45 f8 00 00 00 	movq   $0x0,-0x8(%rbp)
     1cf:	00 
     1d0:	eb 64                	jmp    236 <vec_fromFileStream_f32+0x86>
     1d2:	48 8b 45 f8          	mov    -0x8(%rbp),%rax
     1d6:	48 8d 14 85 00 00 00 	lea    0x0(,%rax,4),%rdx
     1dd:	00 
     1de:	48 8b 45 e0          	mov    -0x20(%rbp),%rax
     1e2:	48 01 c2             	add    %rax,%rdx
     1e5:	48 8b 45 e8          	mov    -0x18(%rbp),%rax
     1e9:	48 8d 0d 00 00 00 00 	lea    0x0(%rip),%rcx        # 1f0 <vec_fromFileStream_f32+0x40>
     1f0:	48 89 ce             	mov    %rcx,%rsi
     1f3:	48 89 c7             	mov    %rax,%rdi
     1f6:	b8 00 00 00 00       	mov    $0x0,%eax
     1fb:	e8 00 00 00 00       	call   200 <vec_fromFileStream_f32+0x50>
     200:	83 f8 01             	cmp    $0x1,%eax
     203:	74 2d                	je     232 <vec_fromFileStream_f32+0x82>
     205:	48 8b 05 00 00 00 00 	mov    0x0(%rip),%rax        # 20c <vec_fromFileStream_f32+0x5c>
     20c:	48 89 c1             	mov    %rax,%rcx
     20f:	ba 2d 00 00 00       	mov    $0x2d,%edx
     214:	be 01 00 00 00       	mov    $0x1,%esi
     219:	48 8d 05 00 00 00 00 	lea    0x0(%rip),%rax        # 220 <vec_fromFileStream_f32+0x70>
     220:	48 89 c7             	mov    %rax,%rdi
     223:	e8 00 00 00 00       	call   228 <vec_fromFileStream_f32+0x78>
     228:	bf 01 00 00 00       	mov    $0x1,%edi
     22d:	e8 00 00 00 00       	call   232 <vec_fromFileStream_f32+0x82>
     232:	48 ff 45 f8          	incq   -0x8(%rbp)
     236:	48 8b 45 f8          	mov    -0x8(%rbp),%rax
     23a:	48 3b 45 d8          	cmp    -0x28(%rbp),%rax
     23e:	72 92                	jb     1d2 <vec_fromFileStream_f32+0x22>
     240:	90                   	nop
     241:	90                   	nop
     242:	c9                   	leave  
     243:	c3                   	ret    

0000000000000244 <vec_fromFileStream_f64>:
     244:	f3 0f 1e fa          	endbr64 
     248:	55                   	push   %rbp
     249:	48 89 e5             	mov    %rsp,%rbp
     24c:	48 83 ec 30          	sub    $0x30,%rsp
     250:	48 89 7d e8          	mov    %rdi,-0x18(%rbp)
     254:	48 89 75 e0          	mov    %rsi,-0x20(%rbp)
     258:	48 89 55 d8          	mov    %rdx,-0x28(%rbp)
     25c:	48 c7 45 f8 00 00 00 	movq   $0x0,-0x8(%rbp)
     263:	00 
     264:	eb 64                	jmp    2ca <vec_fromFileStream_f64+0x86>
     266:	48 8b 45 f8          	mov    -0x8(%rbp),%rax
     26a:	48 8d 14 c5 00 00 00 	lea    0x0(,%rax,8),%rdx
     271:	00 
     272:	48 8b 45 e0          	mov    -0x20(%rbp),%rax
     276:	48 01 c2             	add    %rax,%rdx
     279:	48 8b 45 e8          	mov    -0x18(%rbp),%rax
     27d:	48 8d 0d 00 00 00 00 	lea    0x0(%rip),%rcx        # 284 <vec_fromFileStream_f64+0x40>
     284:	48 89 ce             	mov    %rcx,%rsi
     287:	48 89 c7             	mov    %rax,%rdi
     28a:	b8 00 00 00 00       	mov    $0x0,%eax
     28f:	e8 00 00 00 00       	call   294 <vec_fromFileStream_f64+0x50>
     294:	83 f8 01             	cmp    $0x1,%eax
     297:	74 2d                	je     2c6 <vec_fromFileStream_f64+0x82>
     299:	48 8b 05 00 00 00 00 	mov    0x0(%rip),%rax        # 2a0 <vec_fromFileStream_f64+0x5c>
     2a0:	48 89 c1             	mov    %rax,%rcx
     2a3:	ba 2d 00 00 00       	mov    $0x2d,%edx
     2a8:	be 01 00 00 00       	mov    $0x1,%esi
     2ad:	48 8d 05 00 00 00 00 	lea    0x0(%rip),%rax        # 2b4 <vec_fromFileStream_f64+0x70>
     2b4:	48 89 c7             	mov    %rax,%rdi
     2b7:	e8 00 00 00 00       	call   2bc <vec_fromFileStream_f64+0x78>
     2bc:	bf 01 00 00 00       	mov    $0x1,%edi
     2c1:	e8 00 00 00 00       	call   2c6 <vec_fromFileStream_f64+0x82>
     2c6:	48 ff 45 f8          	incq   -0x8(%rbp)
     2ca:	48 8b 45 f8          	mov    -0x8(%rbp),%rax
     2ce:	48 3b 45 d8          	cmp    -0x28(%rbp),%rax
     2d2:	72 92                	jb     266 <vec_fromFileStream_f64+0x22>
     2d4:	90                   	nop
     2d5:	90                   	nop
     2d6:	c9                   	leave  
     2d7:	c3                   	ret    

00000000000002d8 <dotproduct_plain_i8>:
     2d8:	f3 0f 1e fa          	endbr64 
     2dc:	55                   	push   %rbp
     2dd:	48 89 e5             	mov    %rsp,%rbp
     2e0:	48 89 7d e8          	mov    %rdi,-0x18(%rbp)
     2e4:	48 89 75 e0          	mov    %rsi,-0x20(%rbp)
     2e8:	48 89 55 d8          	mov    %rdx,-0x28(%rbp)
     2ec:	48 89 4d d0          	mov    %rcx,-0x30(%rbp)
     2f0:	48 c7 45 f8 00 00 00 	movq   $0x0,-0x8(%rbp)
     2f7:	00 
     2f8:	eb 3d                	jmp    337 <dotproduct_plain_i8+0x5f>
     2fa:	48 8b 45 d8          	mov    -0x28(%rbp),%rax
     2fe:	48 8b 08             	mov    (%rax),%rcx
     301:	48 8b 55 e8          	mov    -0x18(%rbp),%rdx
     305:	48 8b 45 f8          	mov    -0x8(%rbp),%rax
     309:	48 01 d0             	add    %rdx,%rax
     30c:	0f b6 00             	movzbl (%rax),%eax
     30f:	0f be d0             	movsbl %al,%edx
     312:	48 8b 75 e0          	mov    -0x20(%rbp),%rsi
     316:	48 8b 45 f8          	mov    -0x8(%rbp),%rax
     31a:	48 01 f0             	add    %rsi,%rax
     31d:	0f b6 00             	movzbl (%rax),%eax
     320:	0f be c0             	movsbl %al,%eax
     323:	0f af c2             	imul   %edx,%eax
     326:	48 98                	cltq   
     328:	48 8d 14 01          	lea    (%rcx,%rax,1),%rdx
     32c:	48 8b 45 d8          	mov    -0x28(%rbp),%rax
     330:	48 89 10             	mov    %rdx,(%rax)
     333:	48 ff 45 f8          	incq   -0x8(%rbp)
     337:	48 8b 45 f8          	mov    -0x8(%rbp),%rax
     33b:	48 3b 45 d0          	cmp    -0x30(%rbp),%rax
     33f:	72 b9                	jb     2fa <dotproduct_plain_i8+0x22>
     341:	90                   	nop
     342:	90                   	nop
     343:	5d                   	pop    %rbp
     344:	c3                   	ret    

0000000000000345 <dotproduct_plain_i16>:
     345:	f3 0f 1e fa          	endbr64 
     349:	55                   	push   %rbp
     34a:	48 89 e5             	mov    %rsp,%rbp
     34d:	48 89 7d e8          	mov    %rdi,-0x18(%rbp)
     351:	48 89 75 e0          	mov    %rsi,-0x20(%rbp)
     355:	48 89 55 d8          	mov    %rdx,-0x28(%rbp)
     359:	48 89 4d d0          	mov    %rcx,-0x30(%rbp)
     35d:	48 c7 45 f8 00 00 00 	movq   $0x0,-0x8(%rbp)
     364:	00 
     365:	eb 43                	jmp    3aa <dotproduct_plain_i16+0x65>
     367:	48 8b 45 d8          	mov    -0x28(%rbp),%rax
     36b:	48 8b 08             	mov    (%rax),%rcx
     36e:	48 8b 45 f8          	mov    -0x8(%rbp),%rax
     372:	48 8d 14 00          	lea    (%rax,%rax,1),%rdx
     376:	48 8b 45 e8          	mov    -0x18(%rbp),%rax
     37a:	48 01 d0             	add    %rdx,%rax
     37d:	0f b7 00             	movzwl (%rax),%eax
     380:	0f bf d0             	movswl %ax,%edx
     383:	48 8b 45 f8          	mov    -0x8(%rbp),%rax
     387:	48 8d 34 00          	lea    (%rax,%rax,1),%rsi
     38b:	48 8b 45 e0          	mov    -0x20(%rbp),%rax
     38f:	48 01 f0             	add    %rsi,%rax
     392:	0f b7 00             	movzwl (%rax),%eax
     395:	98                   	cwtl   
     396:	0f af c2             	imul   %edx,%eax
     399:	48 98                	cltq   
     39b:	48 8d 14 01          	lea    (%rcx,%rax,1),%rdx
     39f:	48 8b 45 d8          	mov    -0x28(%rbp),%rax
     3a3:	48 89 10             	mov    %rdx,(%rax)
     3a6:	48 ff 45 f8          	incq   -0x8(%rbp)
     3aa:	48 8b 45 f8          	mov    -0x8(%rbp),%rax
     3ae:	48 3b 45 d0          	cmp    -0x30(%rbp),%rax
     3b2:	72 b3                	jb     367 <dotproduct_plain_i16+0x22>
     3b4:	90                   	nop
     3b5:	90                   	nop
     3b6:	5d                   	pop    %rbp
     3b7:	c3                   	ret    

00000000000003b8 <dotproduct_plain_i32>:
     3b8:	f3 0f 1e fa          	endbr64 
     3bc:	55                   	push   %rbp
     3bd:	48 89 e5             	mov    %rsp,%rbp
     3c0:	48 89 7d e8          	mov    %rdi,-0x18(%rbp)
     3c4:	48 89 75 e0          	mov    %rsi,-0x20(%rbp)
     3c8:	48 89 55 d8          	mov    %rdx,-0x28(%rbp)
     3cc:	48 89 4d d0          	mov    %rcx,-0x30(%rbp)
     3d0:	48 c7 45 f8 00 00 00 	movq   $0x0,-0x8(%rbp)
     3d7:	00 
     3d8:	eb 45                	jmp    41f <dotproduct_plain_i32+0x67>
     3da:	48 8b 45 d8          	mov    -0x28(%rbp),%rax
     3de:	48 8b 08             	mov    (%rax),%rcx
     3e1:	48 8b 45 f8          	mov    -0x8(%rbp),%rax
     3e5:	48 8d 14 85 00 00 00 	lea    0x0(,%rax,4),%rdx
     3ec:	00 
     3ed:	48 8b 45 e8          	mov    -0x18(%rbp),%rax
     3f1:	48 01 d0             	add    %rdx,%rax
     3f4:	8b 10                	mov    (%rax),%edx
     3f6:	48 8b 45 f8          	mov    -0x8(%rbp),%rax
     3fa:	48 8d 34 85 00 00 00 	lea    0x0(,%rax,4),%rsi
     401:	00 
     402:	48 8b 45 e0          	mov    -0x20(%rbp),%rax
     406:	48 01 f0             	add    %rsi,%rax
     409:	8b 00                	mov    (%rax),%eax
     40b:	0f af c2             	imul   %edx,%eax
     40e:	48 98                	cltq   
     410:	48 8d 14 01          	lea    (%rcx,%rax,1),%rdx
     414:	48 8b 45 d8          	mov    -0x28(%rbp),%rax
     418:	48 89 10             	mov    %rdx,(%rax)
     41b:	48 ff 45 f8          	incq   -0x8(%rbp)
     41f:	48 8b 45 f8          	mov    -0x8(%rbp),%rax
     423:	48 3b 45 d0          	cmp    -0x30(%rbp),%rax
     427:	72 b1                	jb     3da <dotproduct_plain_i32+0x22>
     429:	90                   	nop
     42a:	90                   	nop
     42b:	5d                   	pop    %rbp
     42c:	c3                   	ret    

000000000000042d <dotproduct_plain_f32>:
     42d:	f3 0f 1e fa          	endbr64 
     431:	55                   	push   %rbp
     432:	48 89 e5             	mov    %rsp,%rbp
     435:	48 89 7d e8          	mov    %rdi,-0x18(%rbp)
     439:	48 89 75 e0          	mov    %rsi,-0x20(%rbp)
     43d:	48 89 55 d8          	mov    %rdx,-0x28(%rbp)
     441:	48 89 4d d0          	mov    %rcx,-0x30(%rbp)
     445:	48 c7 45 f8 00 00 00 	movq   $0x0,-0x8(%rbp)
     44c:	00 
     44d:	eb 4c                	jmp    49b <dotproduct_plain_f32+0x6e>
     44f:	48 8b 45 d8          	mov    -0x28(%rbp),%rax
     453:	db 28                	fldt   (%rax)
     455:	48 8b 45 f8          	mov    -0x8(%rbp),%rax
     459:	48 8d 14 85 00 00 00 	lea    0x0(,%rax,4),%rdx
     460:	00 
     461:	48 8b 45 e8          	mov    -0x18(%rbp),%rax
     465:	48 01 d0             	add    %rdx,%rax
     468:	c5 fa 10 08          	vmovss (%rax),%xmm1
     46c:	48 8b 45 f8          	mov    -0x8(%rbp),%rax
     470:	48 8d 14 85 00 00 00 	lea    0x0(,%rax,4),%rdx
     477:	00 
     478:	48 8b 45 e0          	mov    -0x20(%rbp),%rax
     47c:	48 01 d0             	add    %rdx,%rax
     47f:	c5 fa 10 00          	vmovss (%rax),%xmm0
     483:	c5 f2 59 d0          	vmulss %xmm0,%xmm1,%xmm2
     487:	c5 fa 11 55 cc       	vmovss %xmm2,-0x34(%rbp)
     48c:	d9 45 cc             	flds   -0x34(%rbp)
     48f:	de c1                	faddp  %st,%st(1)
     491:	48 8b 45 d8          	mov    -0x28(%rbp),%rax
     495:	db 38                	fstpt  (%rax)
     497:	48 ff 45 f8          	incq   -0x8(%rbp)
     49b:	48 8b 45 f8          	mov    -0x8(%rbp),%rax
     49f:	48 3b 45 d0          	cmp    -0x30(%rbp),%rax
     4a3:	72 aa                	jb     44f <dotproduct_plain_f32+0x22>
     4a5:	90                   	nop
     4a6:	90                   	nop
     4a7:	5d                   	pop    %rbp
     4a8:	c3                   	ret    

00000000000004a9 <dotproduct_plain_f64>:
     4a9:	f3 0f 1e fa          	endbr64 
     4ad:	55                   	push   %rbp
     4ae:	48 89 e5             	mov    %rsp,%rbp
     4b1:	48 89 7d e8          	mov    %rdi,-0x18(%rbp)
     4b5:	48 89 75 e0          	mov    %rsi,-0x20(%rbp)
     4b9:	48 89 55 d8          	mov    %rdx,-0x28(%rbp)
     4bd:	48 89 4d d0          	mov    %rcx,-0x30(%rbp)
     4c1:	48 c7 45 f8 00 00 00 	movq   $0x0,-0x8(%rbp)
     4c8:	00 
     4c9:	eb 4c                	jmp    517 <dotproduct_plain_f64+0x6e>
     4cb:	48 8b 45 d8          	mov    -0x28(%rbp),%rax
     4cf:	db 28                	fldt   (%rax)
     4d1:	48 8b 45 f8          	mov    -0x8(%rbp),%rax
     4d5:	48 8d 14 c5 00 00 00 	lea    0x0(,%rax,8),%rdx
     4dc:	00 
     4dd:	48 8b 45 e8          	mov    -0x18(%rbp),%rax
     4e1:	48 01 d0             	add    %rdx,%rax
     4e4:	c5 fb 10 08          	vmovsd (%rax),%xmm1
     4e8:	48 8b 45 f8          	mov    -0x8(%rbp),%rax
     4ec:	48 8d 14 c5 00 00 00 	lea    0x0(,%rax,8),%rdx
     4f3:	00 
     4f4:	48 8b 45 e0          	mov    -0x20(%rbp),%rax
     4f8:	48 01 d0             	add    %rdx,%rax
     4fb:	c5 fb 10 00          	vmovsd (%rax),%xmm0
     4ff:	c5 f3 59 d0          	vmulsd %xmm0,%xmm1,%xmm2
     503:	c5 fb 11 55 c8       	vmovsd %xmm2,-0x38(%rbp)
     508:	dd 45 c8             	fldl   -0x38(%rbp)
     50b:	de c1                	faddp  %st,%st(1)
     50d:	48 8b 45 d8          	mov    -0x28(%rbp),%rax
     511:	db 38                	fstpt  (%rax)
     513:	48 ff 45 f8          	incq   -0x8(%rbp)
     517:	48 8b 45 f8          	mov    -0x8(%rbp),%rax
     51b:	48 3b 45 d0          	cmp    -0x30(%rbp),%rax
     51f:	72 aa                	jb     4cb <dotproduct_plain_f64+0x22>
     521:	90                   	nop
     522:	90                   	nop
     523:	5d                   	pop    %rbp
     524:	c3                   	ret    

0000000000000525 <dotproduct_unwind_i8>:
     525:	f3 0f 1e fa          	endbr64 
     529:	55                   	push   %rbp
     52a:	48 89 e5             	mov    %rsp,%rbp
     52d:	48 89 7d e8          	mov    %rdi,-0x18(%rbp)
     531:	48 89 75 e0          	mov    %rsi,-0x20(%rbp)
     535:	48 89 55 d8          	mov    %rdx,-0x28(%rbp)
     539:	48 89 4d d0          	mov    %rcx,-0x30(%rbp)
     53d:	c7 45 f8 00 00 00 00 	movl   $0x0,-0x8(%rbp)
     544:	e9 14 02 00 00       	jmp    75d <dotproduct_unwind_i8+0x238>
     549:	48 8b 45 d8          	mov    -0x28(%rbp),%rax
     54d:	48 8b 08             	mov    (%rax),%rcx
     550:	8b 45 f8             	mov    -0x8(%rbp),%eax
     553:	48 98                	cltq   
     555:	48 8b 55 e8          	mov    -0x18(%rbp),%rdx
     559:	48 01 d0             	add    %rdx,%rax
     55c:	0f b6 00             	movzbl (%rax),%eax
     55f:	0f be d0             	movsbl %al,%edx
     562:	8b 45 f8             	mov    -0x8(%rbp),%eax
     565:	48 98                	cltq   
     567:	48 8b 75 e0          	mov    -0x20(%rbp),%rsi
     56b:	48 01 f0             	add    %rsi,%rax
     56e:	0f b6 00             	movzbl (%rax),%eax
     571:	0f be c0             	movsbl %al,%eax
     574:	0f af c2             	imul   %edx,%eax
     577:	48 98                	cltq   
     579:	48 8d 14 01          	lea    (%rcx,%rax,1),%rdx
     57d:	48 8b 45 d8          	mov    -0x28(%rbp),%rax
     581:	48 89 10             	mov    %rdx,(%rax)
     584:	48 8b 45 d8          	mov    -0x28(%rbp),%rax
     588:	48 8b 08             	mov    (%rax),%rcx
     58b:	8b 45 f8             	mov    -0x8(%rbp),%eax
     58e:	48 98                	cltq   
     590:	48 8d 50 01          	lea    0x1(%rax),%rdx
     594:	48 8b 45 e8          	mov    -0x18(%rbp),%rax
     598:	48 01 d0             	add    %rdx,%rax
     59b:	0f b6 00             	movzbl (%rax),%eax
     59e:	0f be d0             	movsbl %al,%edx
     5a1:	8b 45 f8             	mov    -0x8(%rbp),%eax
     5a4:	48 98                	cltq   
     5a6:	48 8d 70 01          	lea    0x1(%rax),%rsi
     5aa:	48 8b 45 e0          	mov    -0x20(%rbp),%rax
     5ae:	48 01 f0             	add    %rsi,%rax
     5b1:	0f b6 00             	movzbl (%rax),%eax
     5b4:	0f be c0             	movsbl %al,%eax
     5b7:	0f af c2             	imul   %edx,%eax
     5ba:	48 98                	cltq   
     5bc:	48 8d 14 01          	lea    (%rcx,%rax,1),%rdx
     5c0:	48 8b 45 d8          	mov    -0x28(%rbp),%rax
     5c4:	48 89 10             	mov    %rdx,(%rax)
     5c7:	48 8b 45 d8          	mov    -0x28(%rbp),%rax
     5cb:	48 8b 08             	mov    (%rax),%rcx
     5ce:	8b 45 f8             	mov    -0x8(%rbp),%eax
     5d1:	48 98                	cltq   
     5d3:	48 8d 50 02          	lea    0x2(%rax),%rdx
     5d7:	48 8b 45 e8          	mov    -0x18(%rbp),%rax
     5db:	48 01 d0             	add    %rdx,%rax
     5de:	0f b6 00             	movzbl (%rax),%eax
     5e1:	0f be d0             	movsbl %al,%edx
     5e4:	8b 45 f8             	mov    -0x8(%rbp),%eax
     5e7:	48 98                	cltq   
     5e9:	48 8d 70 02          	lea    0x2(%rax),%rsi
     5ed:	48 8b 45 e0          	mov    -0x20(%rbp),%rax
     5f1:	48 01 f0             	add    %rsi,%rax
     5f4:	0f b6 00             	movzbl (%rax),%eax
     5f7:	0f be c0             	movsbl %al,%eax
     5fa:	0f af c2             	imul   %edx,%eax
     5fd:	48 98                	cltq   
     5ff:	48 8d 14 01          	lea    (%rcx,%rax,1),%rdx
     603:	48 8b 45 d8          	mov    -0x28(%rbp),%rax
     607:	48 89 10             	mov    %rdx,(%rax)
     60a:	48 8b 45 d8          	mov    -0x28(%rbp),%rax
     60e:	48 8b 08             	mov    (%rax),%rcx
     611:	8b 45 f8             	mov    -0x8(%rbp),%eax
     614:	48 98                	cltq   
     616:	48 8d 50 03          	lea    0x3(%rax),%rdx
     61a:	48 8b 45 e8          	mov    -0x18(%rbp),%rax
     61e:	48 01 d0             	add    %rdx,%rax
     621:	0f b6 00             	movzbl (%rax),%eax
     624:	0f be d0             	movsbl %al,%edx
     627:	8b 45 f8             	mov    -0x8(%rbp),%eax
     62a:	48 98                	cltq   
     62c:	48 8d 70 03          	lea    0x3(%rax),%rsi
     630:	48 8b 45 e0          	mov    -0x20(%rbp),%rax
     634:	48 01 f0             	add    %rsi,%rax
     637:	0f b6 00             	movzbl (%rax),%eax
     63a:	0f be c0             	movsbl %al,%eax
     63d:	0f af c2             	imul   %edx,%eax
     640:	48 98                	cltq   
     642:	48 8d 14 01          	lea    (%rcx,%rax,1),%rdx
     646:	48 8b 45 d8          	mov    -0x28(%rbp),%rax
     64a:	48 89 10             	mov    %rdx,(%rax)
     64d:	48 8b 45 d8          	mov    -0x28(%rbp),%rax
     651:	48 8b 08             	mov    (%rax),%rcx
     654:	8b 45 f8             	mov    -0x8(%rbp),%eax
     657:	48 98                	cltq   
     659:	48 8d 50 04          	lea    0x4(%rax),%rdx
     65d:	48 8b 45 e8          	mov    -0x18(%rbp),%rax
     661:	48 01 d0             	add    %rdx,%rax
     664:	0f b6 00             	movzbl (%rax),%eax
     667:	0f be d0             	movsbl %al,%edx
     66a:	8b 45 f8             	mov    -0x8(%rbp),%eax
     66d:	48 98                	cltq   
     66f:	48 8d 70 04          	lea    0x4(%rax),%rsi
     673:	48 8b 45 e0          	mov    -0x20(%rbp),%rax
     677:	48 01 f0             	add    %rsi,%rax
     67a:	0f b6 00             	movzbl (%rax),%eax
     67d:	0f be c0             	movsbl %al,%eax
     680:	0f af c2             	imul   %edx,%eax
     683:	48 98                	cltq   
     685:	48 8d 14 01          	lea    (%rcx,%rax,1),%rdx
     689:	48 8b 45 d8          	mov    -0x28(%rbp),%rax
     68d:	48 89 10             	mov    %rdx,(%rax)
     690:	48 8b 45 d8          	mov    -0x28(%rbp),%rax
     694:	48 8b 08             	mov    (%rax),%rcx
     697:	8b 45 f8             	mov    -0x8(%rbp),%eax
     69a:	48 98                	cltq   
     69c:	48 8d 50 05          	lea    0x5(%rax),%rdx
     6a0:	48 8b 45 e8          	mov    -0x18(%rbp),%rax
     6a4:	48 01 d0             	add    %rdx,%rax
     6a7:	0f b6 00             	movzbl (%rax),%eax
     6aa:	0f be d0             	movsbl %al,%edx
     6ad:	8b 45 f8             	mov    -0x8(%rbp),%eax
     6b0:	48 98                	cltq   
     6b2:	48 8d 70 05          	lea    0x5(%rax),%rsi
     6b6:	48 8b 45 e0          	mov    -0x20(%rbp),%rax
     6ba:	48 01 f0             	add    %rsi,%rax
     6bd:	0f b6 00             	movzbl (%rax),%eax
     6c0:	0f be c0             	movsbl %al,%eax
     6c3:	0f af c2             	imul   %edx,%eax
     6c6:	48 98                	cltq   
     6c8:	48 8d 14 01          	lea    (%rcx,%rax,1),%rdx
     6cc:	48 8b 45 d8          	mov    -0x28(%rbp),%rax
     6d0:	48 89 10             	mov    %rdx,(%rax)
     6d3:	48 8b 45 d8          	mov    -0x28(%rbp),%rax
     6d7:	48 8b 08             	mov    (%rax),%rcx
     6da:	8b 45 f8             	mov    -0x8(%rbp),%eax
     6dd:	48 98                	cltq   
     6df:	48 8d 50 06          	lea    0x6(%rax),%rdx
     6e3:	48 8b 45 e8          	mov    -0x18(%rbp),%rax
     6e7:	48 01 d0             	add    %rdx,%rax
     6ea:	0f b6 00             	movzbl (%rax),%eax
     6ed:	0f be d0             	movsbl %al,%edx
     6f0:	8b 45 f8             	mov    -0x8(%rbp),%eax
     6f3:	48 98                	cltq   
     6f5:	48 8d 70 06          	lea    0x6(%rax),%rsi
     6f9:	48 8b 45 e0          	mov    -0x20(%rbp),%rax
     6fd:	48 01 f0             	add    %rsi,%rax
     700:	0f b6 00             	movzbl (%rax),%eax
     703:	0f be c0             	movsbl %al,%eax
     706:	0f af c2             	imul   %edx,%eax
     709:	48 98                	cltq   
     70b:	48 8d 14 01          	lea    (%rcx,%rax,1),%rdx
     70f:	48 8b 45 d8          	mov    -0x28(%rbp),%rax
     713:	48 89 10             	mov    %rdx,(%rax)
     716:	48 8b 45 d8          	mov    -0x28(%rbp),%rax
     71a:	48 8b 08             	mov    (%rax),%rcx
     71d:	8b 45 f8             	mov    -0x8(%rbp),%eax
     720:	48 98                	cltq   
     722:	48 8d 50 07          	lea    0x7(%rax),%rdx
     726:	48 8b 45 e8          	mov    -0x18(%rbp),%rax
     72a:	48 01 d0             	add    %rdx,%rax
     72d:	0f b6 00             	movzbl (%rax),%eax
     730:	0f be d0             	movsbl %al,%edx
     733:	8b 45 f8             	mov    -0x8(%rbp),%eax
     736:	48 98                	cltq   
     738:	48 8d 70 07          	lea    0x7(%rax),%rsi
     73c:	48 8b 45 e0          	mov    -0x20(%rbp),%rax
     740:	48 01 f0             	add    %rsi,%rax
     743:	0f b6 00             	movzbl (%rax),%eax
     746:	0f be c0             	movsbl %al,%eax
     749:	0f af c2             	imul   %edx,%eax
     74c:	48 98                	cltq   
     74e:	48 8d 14 01          	lea    (%rcx,%rax,1),%rdx
     752:	48 8b 45 d8          	mov    -0x28(%rbp),%rax
     756:	48 89 10             	mov    %rdx,(%rax)
     759:	83 45 f8 08          	addl   $0x8,-0x8(%rbp)
     75d:	8b 45 f8             	mov    -0x8(%rbp),%eax
     760:	48 98                	cltq   
     762:	48 39 45 d0          	cmp    %rax,-0x30(%rbp)
     766:	0f 87 dd fd ff ff    	ja     549 <dotproduct_unwind_i8+0x24>
     76c:	48 8b 45 d0          	mov    -0x30(%rbp),%rax
     770:	83 e0 f8             	and    $0xfffffff8,%eax
     773:	89 45 fc             	mov    %eax,-0x4(%rbp)
     776:	eb 3e                	jmp    7b6 <dotproduct_unwind_i8+0x291>
     778:	48 8b 45 d8          	mov    -0x28(%rbp),%rax
     77c:	48 8b 08             	mov    (%rax),%rcx
     77f:	8b 45 fc             	mov    -0x4(%rbp),%eax
     782:	48 98                	cltq   
     784:	48 8b 55 e8          	mov    -0x18(%rbp),%rdx
     788:	48 01 d0             	add    %rdx,%rax
     78b:	0f b6 00             	movzbl (%rax),%eax
     78e:	0f be d0             	movsbl %al,%edx
     791:	8b 45 fc             	mov    -0x4(%rbp),%eax
     794:	48 98                	cltq   
     796:	48 8b 75 e0          	mov    -0x20(%rbp),%rsi
     79a:	48 01 f0             	add    %rsi,%rax
     79d:	0f b6 00             	movzbl (%rax),%eax
     7a0:	0f be c0             	movsbl %al,%eax
     7a3:	0f af c2             	imul   %edx,%eax
     7a6:	48 98                	cltq   
     7a8:	48 8d 14 01          	lea    (%rcx,%rax,1),%rdx
     7ac:	48 8b 45 d8          	mov    -0x28(%rbp),%rax
     7b0:	48 89 10             	mov    %rdx,(%rax)
     7b3:	ff 45 fc             	incl   -0x4(%rbp)
     7b6:	8b 45 fc             	mov    -0x4(%rbp),%eax
     7b9:	48 98                	cltq   
     7bb:	48 39 45 d0          	cmp    %rax,-0x30(%rbp)
     7bf:	77 b7                	ja     778 <dotproduct_unwind_i8+0x253>
     7c1:	90                   	nop
     7c2:	90                   	nop
     7c3:	5d                   	pop    %rbp
     7c4:	c3                   	ret    

00000000000007c5 <dotproduct_unwind_i16>:
     7c5:	f3 0f 1e fa          	endbr64 
     7c9:	55                   	push   %rbp
     7ca:	48 89 e5             	mov    %rsp,%rbp
     7cd:	48 89 7d e8          	mov    %rdi,-0x18(%rbp)
     7d1:	48 89 75 e0          	mov    %rsi,-0x20(%rbp)
     7d5:	48 89 55 d8          	mov    %rdx,-0x28(%rbp)
     7d9:	48 89 4d d0          	mov    %rcx,-0x30(%rbp)
     7dd:	c7 45 f8 00 00 00 00 	movl   $0x0,-0x8(%rbp)
     7e4:	e9 42 02 00 00       	jmp    a2b <dotproduct_unwind_i16+0x266>
     7e9:	48 8b 45 d8          	mov    -0x28(%rbp),%rax
     7ed:	48 8b 08             	mov    (%rax),%rcx
     7f0:	8b 45 f8             	mov    -0x8(%rbp),%eax
     7f3:	48 98                	cltq   
     7f5:	48 8d 14 00          	lea    (%rax,%rax,1),%rdx
     7f9:	48 8b 45 e8          	mov    -0x18(%rbp),%rax
     7fd:	48 01 d0             	add    %rdx,%rax
     800:	0f b7 00             	movzwl (%rax),%eax
     803:	0f bf d0             	movswl %ax,%edx
     806:	8b 45 f8             	mov    -0x8(%rbp),%eax
     809:	48 98                	cltq   
     80b:	48 8d 34 00          	lea    (%rax,%rax,1),%rsi
     80f:	48 8b 45 e0          	mov    -0x20(%rbp),%rax
     813:	48 01 f0             	add    %rsi,%rax
     816:	0f b7 00             	movzwl (%rax),%eax
     819:	98                   	cwtl   
     81a:	0f af c2             	imul   %edx,%eax
     81d:	48 98                	cltq   
     81f:	48 8d 14 01          	lea    (%rcx,%rax,1),%rdx
     823:	48 8b 45 d8          	mov    -0x28(%rbp),%rax
     827:	48 89 10             	mov    %rdx,(%rax)
     82a:	48 8b 45 d8          	mov    -0x28(%rbp),%rax
     82e:	48 8b 08             	mov    (%rax),%rcx
     831:	8b 45 f8             	mov    -0x8(%rbp),%eax
     834:	48 98                	cltq   
     836:	48 ff c0             	inc    %rax
     839:	48 8d 14 00          	lea    (%rax,%rax,1),%rdx
     83d:	48 8b 45 e8          	mov    -0x18(%rbp),%rax
     841:	48 01 d0             	add    %rdx,%rax
     844:	0f b7 00             	movzwl (%rax),%eax
     847:	0f bf d0             	movswl %ax,%edx
     84a:	8b 45 f8             	mov    -0x8(%rbp),%eax
     84d:	48 98                	cltq   
     84f:	48 ff c0             	inc    %rax
     852:	48 8d 34 00          	lea    (%rax,%rax,1),%rsi
     856:	48 8b 45 e0          	mov    -0x20(%rbp),%rax
     85a:	48 01 f0             	add    %rsi,%rax
     85d:	0f b7 00             	movzwl (%rax),%eax
     860:	98                   	cwtl   
     861:	0f af c2             	imul   %edx,%eax
     864:	48 98                	cltq   
     866:	48 8d 14 01          	lea    (%rcx,%rax,1),%rdx
     86a:	48 8b 45 d8          	mov    -0x28(%rbp),%rax
     86e:	48 89 10             	mov    %rdx,(%rax)
     871:	48 8b 45 d8          	mov    -0x28(%rbp),%rax
     875:	48 8b 08             	mov    (%rax),%rcx
     878:	8b 45 f8             	mov    -0x8(%rbp),%eax
     87b:	48 98                	cltq   
     87d:	48 83 c0 02          	add    $0x2,%rax
     881:	48 8d 14 00          	lea    (%rax,%rax,1),%rdx
     885:	48 8b 45 e8          	mov    -0x18(%rbp),%rax
     889:	48 01 d0             	add    %rdx,%rax
     88c:	0f b7 00             	movzwl (%rax),%eax
     88f:	0f bf d0             	movswl %ax,%edx
     892:	8b 45 f8             	mov    -0x8(%rbp),%eax
     895:	48 98                	cltq   
     897:	48 83 c0 02          	add    $0x2,%rax
     89b:	48 8d 34 00          	lea    (%rax,%rax,1),%rsi
     89f:	48 8b 45 e0          	mov    -0x20(%rbp),%rax
     8a3:	48 01 f0             	add    %rsi,%rax
     8a6:	0f b7 00             	movzwl (%rax),%eax
     8a9:	98                   	cwtl   
     8aa:	0f af c2             	imul   %edx,%eax
     8ad:	48 98                	cltq   
     8af:	48 8d 14 01          	lea    (%rcx,%rax,1),%rdx
     8b3:	48 8b 45 d8          	mov    -0x28(%rbp),%rax
     8b7:	48 89 10             	mov    %rdx,(%rax)
     8ba:	48 8b 45 d8          	mov    -0x28(%rbp),%rax
     8be:	48 8b 08             	mov    (%rax),%rcx
     8c1:	8b 45 f8             	mov    -0x8(%rbp),%eax
     8c4:	48 98                	cltq   
     8c6:	48 83 c0 03          	add    $0x3,%rax
     8ca:	48 8d 14 00          	lea    (%rax,%rax,1),%rdx
     8ce:	48 8b 45 e8          	mov    -0x18(%rbp),%rax
     8d2:	48 01 d0             	add    %rdx,%rax
     8d5:	0f b7 00             	movzwl (%rax),%eax
     8d8:	0f bf d0             	movswl %ax,%edx
     8db:	8b 45 f8             	mov    -0x8(%rbp),%eax
     8de:	48 98                	cltq   
     8e0:	48 83 c0 03          	add    $0x3,%rax
     8e4:	48 8d 34 00          	lea    (%rax,%rax,1),%rsi
     8e8:	48 8b 45 e0          	mov    -0x20(%rbp),%rax
     8ec:	48 01 f0             	add    %rsi,%rax
     8ef:	0f b7 00             	movzwl (%rax),%eax
     8f2:	98                   	cwtl   
     8f3:	0f af c2             	imul   %edx,%eax
     8f6:	48 98                	cltq   
     8f8:	48 8d 14 01          	lea    (%rcx,%rax,1),%rdx
     8fc:	48 8b 45 d8          	mov    -0x28(%rbp),%rax
     900:	48 89 10             	mov    %rdx,(%rax)
     903:	48 8b 45 d8          	mov    -0x28(%rbp),%rax
     907:	48 8b 08             	mov    (%rax),%rcx
     90a:	8b 45 f8             	mov    -0x8(%rbp),%eax
     90d:	48 98                	cltq   
     90f:	48 83 c0 04          	add    $0x4,%rax
     913:	48 8d 14 00          	lea    (%rax,%rax,1),%rdx
     917:	48 8b 45 e8          	mov    -0x18(%rbp),%rax
     91b:	48 01 d0             	add    %rdx,%rax
     91e:	0f b7 00             	movzwl (%rax),%eax
     921:	0f bf d0             	movswl %ax,%edx
     924:	8b 45 f8             	mov    -0x8(%rbp),%eax
     927:	48 98                	cltq   
     929:	48 83 c0 04          	add    $0x4,%rax
     92d:	48 8d 34 00          	lea    (%rax,%rax,1),%rsi
     931:	48 8b 45 e0          	mov    -0x20(%rbp),%rax
     935:	48 01 f0             	add    %rsi,%rax
     938:	0f b7 00             	movzwl (%rax),%eax
     93b:	98                   	cwtl   
     93c:	0f af c2             	imul   %edx,%eax
     93f:	48 98                	cltq   
     941:	48 8d 14 01          	lea    (%rcx,%rax,1),%rdx
     945:	48 8b 45 d8          	mov    -0x28(%rbp),%rax
     949:	48 89 10             	mov    %rdx,(%rax)
     94c:	48 8b 45 d8          	mov    -0x28(%rbp),%rax
     950:	48 8b 08             	mov    (%rax),%rcx
     953:	8b 45 f8             	mov    -0x8(%rbp),%eax
     956:	48 98                	cltq   
     958:	48 83 c0 05          	add    $0x5,%rax
     95c:	48 8d 14 00          	lea    (%rax,%rax,1),%rdx
     960:	48 8b 45 e8          	mov    -0x18(%rbp),%rax
     964:	48 01 d0             	add    %rdx,%rax
     967:	0f b7 00             	movzwl (%rax),%eax
     96a:	0f bf d0             	movswl %ax,%edx
     96d:	8b 45 f8             	mov    -0x8(%rbp),%eax
     970:	48 98                	cltq   
     972:	48 83 c0 05          	add    $0x5,%rax
     976:	48 8d 34 00          	lea    (%rax,%rax,1),%rsi
     97a:	48 8b 45 e0          	mov    -0x20(%rbp),%rax
     97e:	48 01 f0             	add    %rsi,%rax
     981:	0f b7 00             	movzwl (%rax),%eax
     984:	98                   	cwtl   
     985:	0f af c2             	imul   %edx,%eax
     988:	48 98                	cltq   
     98a:	48 8d 14 01          	lea    (%rcx,%rax,1),%rdx
     98e:	48 8b 45 d8          	mov    -0x28(%rbp),%rax
     992:	48 89 10             	mov    %rdx,(%rax)
     995:	48 8b 45 d8          	mov    -0x28(%rbp),%rax
     999:	48 8b 08             	mov    (%rax),%rcx
     99c:	8b 45 f8             	mov    -0x8(%rbp),%eax
     99f:	48 98                	cltq   
     9a1:	48 83 c0 06          	add    $0x6,%rax
     9a5:	48 8d 14 00          	lea    (%rax,%rax,1),%rdx
     9a9:	48 8b 45 e8          	mov    -0x18(%rbp),%rax
     9ad:	48 01 d0             	add    %rdx,%rax
     9b0:	0f b7 00             	movzwl (%rax),%eax
     9b3:	0f bf d0             	movswl %ax,%edx
     9b6:	8b 45 f8             	mov    -0x8(%rbp),%eax
     9b9:	48 98                	cltq   
     9bb:	48 83 c0 06          	add    $0x6,%rax
     9bf:	48 8d 34 00          	lea    (%rax,%rax,1),%rsi
     9c3:	48 8b 45 e0          	mov    -0x20(%rbp),%rax
     9c7:	48 01 f0             	add    %rsi,%rax
     9ca:	0f b7 00             	movzwl (%rax),%eax
     9cd:	98                   	cwtl   
     9ce:	0f af c2             	imul   %edx,%eax
     9d1:	48 98                	cltq   
     9d3:	48 8d 14 01          	lea    (%rcx,%rax,1),%rdx
     9d7:	48 8b 45 d8          	mov    -0x28(%rbp),%rax
     9db:	48 89 10             	mov    %rdx,(%rax)
     9de:	48 8b 45 d8          	mov    -0x28(%rbp),%rax
     9e2:	48 8b 08             	mov    (%rax),%rcx
     9e5:	8b 45 f8             	mov    -0x8(%rbp),%eax
     9e8:	48 98                	cltq   
     9ea:	48 83 c0 07          	add    $0x7,%rax
     9ee:	48 8d 14 00          	lea    (%rax,%rax,1),%rdx
     9f2:	48 8b 45 e8          	mov    -0x18(%rbp),%rax
     9f6:	48 01 d0             	add    %rdx,%rax
     9f9:	0f b7 00             	movzwl (%rax),%eax
     9fc:	0f bf d0             	movswl %ax,%edx
     9ff:	8b 45 f8             	mov    -0x8(%rbp),%eax
     a02:	48 98                	cltq   
     a04:	48 83 c0 07          	add    $0x7,%rax
     a08:	48 8d 34 00          	lea    (%rax,%rax,1),%rsi
     a0c:	48 8b 45 e0          	mov    -0x20(%rbp),%rax
     a10:	48 01 f0             	add    %rsi,%rax
     a13:	0f b7 00             	movzwl (%rax),%eax
     a16:	98                   	cwtl   
     a17:	0f af c2             	imul   %edx,%eax
     a1a:	48 98                	cltq   
     a1c:	48 8d 14 01          	lea    (%rcx,%rax,1),%rdx
     a20:	48 8b 45 d8          	mov    -0x28(%rbp),%rax
     a24:	48 89 10             	mov    %rdx,(%rax)
     a27:	83 45 f8 08          	addl   $0x8,-0x8(%rbp)
     a2b:	8b 45 f8             	mov    -0x8(%rbp),%eax
     a2e:	48 98                	cltq   
     a30:	48 39 45 d0          	cmp    %rax,-0x30(%rbp)
     a34:	0f 87 af fd ff ff    	ja     7e9 <dotproduct_unwind_i16+0x24>
     a3a:	48 8b 45 d0          	mov    -0x30(%rbp),%rax
     a3e:	83 e0 f8             	and    $0xfffffff8,%eax
     a41:	89 45 fc             	mov    %eax,-0x4(%rbp)
     a44:	eb 44                	jmp    a8a <dotproduct_unwind_i16+0x2c5>
     a46:	48 8b 45 d8          	mov    -0x28(%rbp),%rax
     a4a:	48 8b 08             	mov    (%rax),%rcx
     a4d:	8b 45 fc             	mov    -0x4(%rbp),%eax
     a50:	48 98                	cltq   
     a52:	48 8d 14 00          	lea    (%rax,%rax,1),%rdx
     a56:	48 8b 45 e8          	mov    -0x18(%rbp),%rax
     a5a:	48 01 d0             	add    %rdx,%rax
     a5d:	0f b7 00             	movzwl (%rax),%eax
     a60:	0f bf d0             	movswl %ax,%edx
     a63:	8b 45 fc             	mov    -0x4(%rbp),%eax
     a66:	48 98                	cltq   
     a68:	48 8d 34 00          	lea    (%rax,%rax,1),%rsi
     a6c:	48 8b 45 e0          	mov    -0x20(%rbp),%rax
     a70:	48 01 f0             	add    %rsi,%rax
     a73:	0f b7 00             	movzwl (%rax),%eax
     a76:	98                   	cwtl   
     a77:	0f af c2             	imul   %edx,%eax
     a7a:	48 98                	cltq   
     a7c:	48 8d 14 01          	lea    (%rcx,%rax,1),%rdx
     a80:	48 8b 45 d8          	mov    -0x28(%rbp),%rax
     a84:	48 89 10             	mov    %rdx,(%rax)
     a87:	ff 45 fc             	incl   -0x4(%rbp)
     a8a:	8b 45 fc             	mov    -0x4(%rbp),%eax
     a8d:	48 98                	cltq   
     a8f:	48 39 45 d0          	cmp    %rax,-0x30(%rbp)
     a93:	77 b1                	ja     a46 <dotproduct_unwind_i16+0x281>
     a95:	90                   	nop
     a96:	90                   	nop
     a97:	5d                   	pop    %rbp
     a98:	c3                   	ret    

0000000000000a99 <dotproduct_unwind_i32>:
     a99:	f3 0f 1e fa          	endbr64 
     a9d:	55                   	push   %rbp
     a9e:	48 89 e5             	mov    %rsp,%rbp
     aa1:	48 89 7d e8          	mov    %rdi,-0x18(%rbp)
     aa5:	48 89 75 e0          	mov    %rsi,-0x20(%rbp)
     aa9:	48 89 55 d8          	mov    %rdx,-0x28(%rbp)
     aad:	48 89 4d d0          	mov    %rcx,-0x30(%rbp)
     ab1:	c7 45 f8 00 00 00 00 	movl   $0x0,-0x8(%rbp)
     ab8:	e9 52 02 00 00       	jmp    d0f <dotproduct_unwind_i32+0x276>
     abd:	48 8b 45 d8          	mov    -0x28(%rbp),%rax
     ac1:	48 8b 08             	mov    (%rax),%rcx
     ac4:	8b 45 f8             	mov    -0x8(%rbp),%eax
     ac7:	48 98                	cltq   
     ac9:	48 8d 14 85 00 00 00 	lea    0x0(,%rax,4),%rdx
     ad0:	00 
     ad1:	48 8b 45 e8          	mov    -0x18(%rbp),%rax
     ad5:	48 01 d0             	add    %rdx,%rax
     ad8:	8b 10                	mov    (%rax),%edx
     ada:	8b 45 f8             	mov    -0x8(%rbp),%eax
     add:	48 98                	cltq   
     adf:	48 8d 34 85 00 00 00 	lea    0x0(,%rax,4),%rsi
     ae6:	00 
     ae7:	48 8b 45 e0          	mov    -0x20(%rbp),%rax
     aeb:	48 01 f0             	add    %rsi,%rax
     aee:	8b 00                	mov    (%rax),%eax
     af0:	0f af c2             	imul   %edx,%eax
     af3:	48 98                	cltq   
     af5:	48 8d 14 01          	lea    (%rcx,%rax,1),%rdx
     af9:	48 8b 45 d8          	mov    -0x28(%rbp),%rax
     afd:	48 89 10             	mov    %rdx,(%rax)
     b00:	48 8b 45 d8          	mov    -0x28(%rbp),%rax
     b04:	48 8b 08             	mov    (%rax),%rcx
     b07:	8b 45 f8             	mov    -0x8(%rbp),%eax
     b0a:	48 98                	cltq   
     b0c:	48 ff c0             	inc    %rax
     b0f:	48 8d 14 85 00 00 00 	lea    0x0(,%rax,4),%rdx
     b16:	00 
     b17:	48 8b 45 e8          	mov    -0x18(%rbp),%rax
     b1b:	48 01 d0             	add    %rdx,%rax
     b1e:	8b 10                	mov    (%rax),%edx
     b20:	8b 45 f8             	mov    -0x8(%rbp),%eax
     b23:	48 98                	cltq   
     b25:	48 ff c0             	inc    %rax
     b28:	48 8d 34 85 00 00 00 	lea    0x0(,%rax,4),%rsi
     b2f:	00 
     b30:	48 8b 45 e0          	mov    -0x20(%rbp),%rax
     b34:	48 01 f0             	add    %rsi,%rax
     b37:	8b 00                	mov    (%rax),%eax
     b39:	0f af c2             	imul   %edx,%eax
     b3c:	48 98                	cltq   
     b3e:	48 8d 14 01          	lea    (%rcx,%rax,1),%rdx
     b42:	48 8b 45 d8          	mov    -0x28(%rbp),%rax
     b46:	48 89 10             	mov    %rdx,(%rax)
     b49:	48 8b 45 d8          	mov    -0x28(%rbp),%rax
     b4d:	48 8b 08             	mov    (%rax),%rcx
     b50:	8b 45 f8             	mov    -0x8(%rbp),%eax
     b53:	48 98                	cltq   
     b55:	48 83 c0 02          	add    $0x2,%rax
     b59:	48 8d 14 85 00 00 00 	lea    0x0(,%rax,4),%rdx
     b60:	00 
     b61:	48 8b 45 e8          	mov    -0x18(%rbp),%rax
     b65:	48 01 d0             	add    %rdx,%rax
     b68:	8b 10                	mov    (%rax),%edx
     b6a:	8b 45 f8             	mov    -0x8(%rbp),%eax
     b6d:	48 98                	cltq   
     b6f:	48 83 c0 02          	add    $0x2,%rax
     b73:	48 8d 34 85 00 00 00 	lea    0x0(,%rax,4),%rsi
     b7a:	00 
     b7b:	48 8b 45 e0          	mov    -0x20(%rbp),%rax
     b7f:	48 01 f0             	add    %rsi,%rax
     b82:	8b 00                	mov    (%rax),%eax
     b84:	0f af c2             	imul   %edx,%eax
     b87:	48 98                	cltq   
     b89:	48 8d 14 01          	lea    (%rcx,%rax,1),%rdx
     b8d:	48 8b 45 d8          	mov    -0x28(%rbp),%rax
     b91:	48 89 10             	mov    %rdx,(%rax)
     b94:	48 8b 45 d8          	mov    -0x28(%rbp),%rax
     b98:	48 8b 08             	mov    (%rax),%rcx
     b9b:	8b 45 f8             	mov    -0x8(%rbp),%eax
     b9e:	48 98                	cltq   
     ba0:	48 83 c0 03          	add    $0x3,%rax
     ba4:	48 8d 14 85 00 00 00 	lea    0x0(,%rax,4),%rdx
     bab:	00 
     bac:	48 8b 45 e8          	mov    -0x18(%rbp),%rax
     bb0:	48 01 d0             	add    %rdx,%rax
     bb3:	8b 10                	mov    (%rax),%edx
     bb5:	8b 45 f8             	mov    -0x8(%rbp),%eax
     bb8:	48 98                	cltq   
     bba:	48 83 c0 03          	add    $0x3,%rax
     bbe:	48 8d 34 85 00 00 00 	lea    0x0(,%rax,4),%rsi
     bc5:	00 
     bc6:	48 8b 45 e0          	mov    -0x20(%rbp),%rax
     bca:	48 01 f0             	add    %rsi,%rax
     bcd:	8b 00                	mov    (%rax),%eax
     bcf:	0f af c2             	imul   %edx,%eax
     bd2:	48 98                	cltq   
     bd4:	48 8d 14 01          	lea    (%rcx,%rax,1),%rdx
     bd8:	48 8b 45 d8          	mov    -0x28(%rbp),%rax
     bdc:	48 89 10             	mov    %rdx,(%rax)
     bdf:	48 8b 45 d8          	mov    -0x28(%rbp),%rax
     be3:	48 8b 08             	mov    (%rax),%rcx
     be6:	8b 45 f8             	mov    -0x8(%rbp),%eax
     be9:	48 98                	cltq   
     beb:	48 83 c0 04          	add    $0x4,%rax
     bef:	48 8d 14 85 00 00 00 	lea    0x0(,%rax,4),%rdx
     bf6:	00 
     bf7:	48 8b 45 e8          	mov    -0x18(%rbp),%rax
     bfb:	48 01 d0             	add    %rdx,%rax
     bfe:	8b 10                	mov    (%rax),%edx
     c00:	8b 45 f8             	mov    -0x8(%rbp),%eax
     c03:	48 98                	cltq   
     c05:	48 83 c0 04          	add    $0x4,%rax
     c09:	48 8d 34 85 00 00 00 	lea    0x0(,%rax,4),%rsi
     c10:	00 
     c11:	48 8b 45 e0          	mov    -0x20(%rbp),%rax
     c15:	48 01 f0             	add    %rsi,%rax
     c18:	8b 00                	mov    (%rax),%eax
     c1a:	0f af c2             	imul   %edx,%eax
     c1d:	48 98                	cltq   
     c1f:	48 8d 14 01          	lea    (%rcx,%rax,1),%rdx
     c23:	48 8b 45 d8          	mov    -0x28(%rbp),%rax
     c27:	48 89 10             	mov    %rdx,(%rax)
     c2a:	48 8b 45 d8          	mov    -0x28(%rbp),%rax
     c2e:	48 8b 08             	mov    (%rax),%rcx
     c31:	8b 45 f8             	mov    -0x8(%rbp),%eax
     c34:	48 98                	cltq   
     c36:	48 83 c0 05          	add    $0x5,%rax
     c3a:	48 8d 14 85 00 00 00 	lea    0x0(,%rax,4),%rdx
     c41:	00 
     c42:	48 8b 45 e8          	mov    -0x18(%rbp),%rax
     c46:	48 01 d0             	add    %rdx,%rax
     c49:	8b 10                	mov    (%rax),%edx
     c4b:	8b 45 f8             	mov    -0x8(%rbp),%eax
     c4e:	48 98                	cltq   
     c50:	48 83 c0 05          	add    $0x5,%rax
     c54:	48 8d 34 85 00 00 00 	lea    0x0(,%rax,4),%rsi
     c5b:	00 
     c5c:	48 8b 45 e0          	mov    -0x20(%rbp),%rax
     c60:	48 01 f0             	add    %rsi,%rax
     c63:	8b 00                	mov    (%rax),%eax
     c65:	0f af c2             	imul   %edx,%eax
     c68:	48 98                	cltq   
     c6a:	48 8d 14 01          	lea    (%rcx,%rax,1),%rdx
     c6e:	48 8b 45 d8          	mov    -0x28(%rbp),%rax
     c72:	48 89 10             	mov    %rdx,(%rax)
     c75:	48 8b 45 d8          	mov    -0x28(%rbp),%rax
     c79:	48 8b 08             	mov    (%rax),%rcx
     c7c:	8b 45 f8             	mov    -0x8(%rbp),%eax
     c7f:	48 98                	cltq   
     c81:	48 83 c0 06          	add    $0x6,%rax
     c85:	48 8d 14 85 00 00 00 	lea    0x0(,%rax,4),%rdx
     c8c:	00 
     c8d:	48 8b 45 e8          	mov    -0x18(%rbp),%rax
     c91:	48 01 d0             	add    %rdx,%rax
     c94:	8b 10                	mov    (%rax),%edx
     c96:	8b 45 f8             	mov    -0x8(%rbp),%eax
     c99:	48 98                	cltq   
     c9b:	48 83 c0 06          	add    $0x6,%rax
     c9f:	48 8d 34 85 00 00 00 	lea    0x0(,%rax,4),%rsi
     ca6:	00 
     ca7:	48 8b 45 e0          	mov    -0x20(%rbp),%rax
     cab:	48 01 f0             	add    %rsi,%rax
     cae:	8b 00                	mov    (%rax),%eax
     cb0:	0f af c2             	imul   %edx,%eax
     cb3:	48 98                	cltq   
     cb5:	48 8d 14 01          	lea    (%rcx,%rax,1),%rdx
     cb9:	48 8b 45 d8          	mov    -0x28(%rbp),%rax
     cbd:	48 89 10             	mov    %rdx,(%rax)
     cc0:	48 8b 45 d8          	mov    -0x28(%rbp),%rax
     cc4:	48 8b 08             	mov    (%rax),%rcx
     cc7:	8b 45 f8             	mov    -0x8(%rbp),%eax
     cca:	48 98                	cltq   
     ccc:	48 83 c0 07          	add    $0x7,%rax
     cd0:	48 8d 14 85 00 00 00 	lea    0x0(,%rax,4),%rdx
     cd7:	00 
     cd8:	48 8b 45 e8          	mov    -0x18(%rbp),%rax
     cdc:	48 01 d0             	add    %rdx,%rax
     cdf:	8b 10                	mov    (%rax),%edx
     ce1:	8b 45 f8             	mov    -0x8(%rbp),%eax
     ce4:	48 98                	cltq   
     ce6:	48 83 c0 07          	add    $0x7,%rax
     cea:	48 8d 34 85 00 00 00 	lea    0x0(,%rax,4),%rsi
     cf1:	00 
     cf2:	48 8b 45 e0          	mov    -0x20(%rbp),%rax
     cf6:	48 01 f0             	add    %rsi,%rax
     cf9:	8b 00                	mov    (%rax),%eax
     cfb:	0f af c2             	imul   %edx,%eax
     cfe:	48 98                	cltq   
     d00:	48 8d 14 01          	lea    (%rcx,%rax,1),%rdx
     d04:	48 8b 45 d8          	mov    -0x28(%rbp),%rax
     d08:	48 89 10             	mov    %rdx,(%rax)
     d0b:	83 45 f8 08          	addl   $0x8,-0x8(%rbp)
     d0f:	8b 45 f8             	mov    -0x8(%rbp),%eax
     d12:	48 98                	cltq   
     d14:	48 39 45 d0          	cmp    %rax,-0x30(%rbp)
     d18:	0f 87 9f fd ff ff    	ja     abd <dotproduct_unwind_i32+0x24>
     d1e:	48 8b 45 d0          	mov    -0x30(%rbp),%rax
     d22:	83 e0 f8             	and    $0xfffffff8,%eax
     d25:	89 45 fc             	mov    %eax,-0x4(%rbp)
     d28:	eb 46                	jmp    d70 <dotproduct_unwind_i32+0x2d7>
     d2a:	48 8b 45 d8          	mov    -0x28(%rbp),%rax
     d2e:	48 8b 08             	mov    (%rax),%rcx
     d31:	8b 45 fc             	mov    -0x4(%rbp),%eax
     d34:	48 98                	cltq   
     d36:	48 8d 14 85 00 00 00 	lea    0x0(,%rax,4),%rdx
     d3d:	00 
     d3e:	48 8b 45 e8          	mov    -0x18(%rbp),%rax
     d42:	48 01 d0             	add    %rdx,%rax
     d45:	8b 10                	mov    (%rax),%edx
     d47:	8b 45 fc             	mov    -0x4(%rbp),%eax
     d4a:	48 98                	cltq   
     d4c:	48 8d 34 85 00 00 00 	lea    0x0(,%rax,4),%rsi
     d53:	00 
     d54:	48 8b 45 e0          	mov    -0x20(%rbp),%rax
     d58:	48 01 f0             	add    %rsi,%rax
     d5b:	8b 00                	mov    (%rax),%eax
     d5d:	0f af c2             	imul   %edx,%eax
     d60:	48 98                	cltq   
     d62:	48 8d 14 01          	lea    (%rcx,%rax,1),%rdx
     d66:	48 8b 45 d8          	mov    -0x28(%rbp),%rax
     d6a:	48 89 10             	mov    %rdx,(%rax)
     d6d:	ff 45 fc             	incl   -0x4(%rbp)
     d70:	8b 45 fc             	mov    -0x4(%rbp),%eax
     d73:	48 98                	cltq   
     d75:	48 39 45 d0          	cmp    %rax,-0x30(%rbp)
     d79:	77 af                	ja     d2a <dotproduct_unwind_i32+0x291>
     d7b:	90                   	nop
     d7c:	90                   	nop
     d7d:	5d                   	pop    %rbp
     d7e:	c3                   	ret    

0000000000000d7f <dotproduct_unwind_f32>:
     d7f:	f3 0f 1e fa          	endbr64 
     d83:	55                   	push   %rbp
     d84:	48 89 e5             	mov    %rsp,%rbp
     d87:	48 89 7d e8          	mov    %rdi,-0x18(%rbp)
     d8b:	48 89 75 e0          	mov    %rsi,-0x20(%rbp)
     d8f:	48 89 55 d8          	mov    %rdx,-0x28(%rbp)
     d93:	48 89 4d d0          	mov    %rcx,-0x30(%rbp)
     d97:	c7 45 f8 00 00 00 00 	movl   $0x0,-0x8(%rbp)
     d9e:	e9 8a 02 00 00       	jmp    102d <dotproduct_unwind_f32+0x2ae>
     da3:	48 8b 45 d8          	mov    -0x28(%rbp),%rax
     da7:	db 28                	fldt   (%rax)
     da9:	8b 45 f8             	mov    -0x8(%rbp),%eax
     dac:	48 98                	cltq   
     dae:	48 8d 14 85 00 00 00 	lea    0x0(,%rax,4),%rdx
     db5:	00 
     db6:	48 8b 45 e8          	mov    -0x18(%rbp),%rax
     dba:	48 01 d0             	add    %rdx,%rax
     dbd:	c5 fa 10 08          	vmovss (%rax),%xmm1
     dc1:	8b 45 f8             	mov    -0x8(%rbp),%eax
     dc4:	48 98                	cltq   
     dc6:	48 8d 14 85 00 00 00 	lea    0x0(,%rax,4),%rdx
     dcd:	00 
     dce:	48 8b 45 e0          	mov    -0x20(%rbp),%rax
     dd2:	48 01 d0             	add    %rdx,%rax
     dd5:	c5 fa 10 00          	vmovss (%rax),%xmm0
     dd9:	c5 f2 59 d0          	vmulss %xmm0,%xmm1,%xmm2
     ddd:	c5 fa 11 55 cc       	vmovss %xmm2,-0x34(%rbp)
     de2:	d9 45 cc             	flds   -0x34(%rbp)
     de5:	de c1                	faddp  %st,%st(1)
     de7:	48 8b 45 d8          	mov    -0x28(%rbp),%rax
     deb:	db 38                	fstpt  (%rax)
     ded:	48 8b 45 d8          	mov    -0x28(%rbp),%rax
     df1:	db 28                	fldt   (%rax)
     df3:	8b 45 f8             	mov    -0x8(%rbp),%eax
     df6:	48 98                	cltq   
     df8:	48 ff c0             	inc    %rax
     dfb:	48 8d 14 85 00 00 00 	lea    0x0(,%rax,4),%rdx
     e02:	00 
     e03:	48 8b 45 e8          	mov    -0x18(%rbp),%rax
     e07:	48 01 d0             	add    %rdx,%rax
     e0a:	c5 fa 10 08          	vmovss (%rax),%xmm1
     e0e:	8b 45 f8             	mov    -0x8(%rbp),%eax
     e11:	48 98                	cltq   
     e13:	48 ff c0             	inc    %rax
     e16:	48 8d 14 85 00 00 00 	lea    0x0(,%rax,4),%rdx
     e1d:	00 
     e1e:	48 8b 45 e0          	mov    -0x20(%rbp),%rax
     e22:	48 01 d0             	add    %rdx,%rax
     e25:	c5 fa 10 00          	vmovss (%rax),%xmm0
     e29:	c5 f2 59 d8          	vmulss %xmm0,%xmm1,%xmm3
     e2d:	c5 fa 11 5d cc       	vmovss %xmm3,-0x34(%rbp)
     e32:	d9 45 cc             	flds   -0x34(%rbp)
     e35:	de c1                	faddp  %st,%st(1)
     e37:	48 8b 45 d8          	mov    -0x28(%rbp),%rax
     e3b:	db 38                	fstpt  (%rax)
     e3d:	48 8b 45 d8          	mov    -0x28(%rbp),%rax
     e41:	db 28                	fldt   (%rax)
     e43:	8b 45 f8             	mov    -0x8(%rbp),%eax
     e46:	48 98                	cltq   
     e48:	48 83 c0 02          	add    $0x2,%rax
     e4c:	48 8d 14 85 00 00 00 	lea    0x0(,%rax,4),%rdx
     e53:	00 
     e54:	48 8b 45 e8          	mov    -0x18(%rbp),%rax
     e58:	48 01 d0             	add    %rdx,%rax
     e5b:	c5 fa 10 08          	vmovss (%rax),%xmm1
     e5f:	8b 45 f8             	mov    -0x8(%rbp),%eax
     e62:	48 98                	cltq   
     e64:	48 83 c0 02          	add    $0x2,%rax
     e68:	48 8d 14 85 00 00 00 	lea    0x0(,%rax,4),%rdx
     e6f:	00 
     e70:	48 8b 45 e0          	mov    -0x20(%rbp),%rax
     e74:	48 01 d0             	add    %rdx,%rax
     e77:	c5 fa 10 00          	vmovss (%rax),%xmm0
     e7b:	c5 f2 59 e0          	vmulss %xmm0,%xmm1,%xmm4
     e7f:	c5 fa 11 65 cc       	vmovss %xmm4,-0x34(%rbp)
     e84:	d9 45 cc             	flds   -0x34(%rbp)
     e87:	de c1                	faddp  %st,%st(1)
     e89:	48 8b 45 d8          	mov    -0x28(%rbp),%rax
     e8d:	db 38                	fstpt  (%rax)
     e8f:	48 8b 45 d8          	mov    -0x28(%rbp),%rax
     e93:	db 28                	fldt   (%rax)
     e95:	8b 45 f8             	mov    -0x8(%rbp),%eax
     e98:	48 98                	cltq   
     e9a:	48 83 c0 03          	add    $0x3,%rax
     e9e:	48 8d 14 85 00 00 00 	lea    0x0(,%rax,4),%rdx
     ea5:	00 
     ea6:	48 8b 45 e8          	mov    -0x18(%rbp),%rax
     eaa:	48 01 d0             	add    %rdx,%rax
     ead:	c5 fa 10 08          	vmovss (%rax),%xmm1
     eb1:	8b 45 f8             	mov    -0x8(%rbp),%eax
     eb4:	48 98                	cltq   
     eb6:	48 83 c0 03          	add    $0x3,%rax
     eba:	48 8d 14 85 00 00 00 	lea    0x0(,%rax,4),%rdx
     ec1:	00 
     ec2:	48 8b 45 e0          	mov    -0x20(%rbp),%rax
     ec6:	48 01 d0             	add    %rdx,%rax
     ec9:	c5 fa 10 00          	vmovss (%rax),%xmm0
     ecd:	c5 f2 59 e8          	vmulss %xmm0,%xmm1,%xmm5
     ed1:	c5 fa 11 6d cc       	vmovss %xmm5,-0x34(%rbp)
     ed6:	d9 45 cc             	flds   -0x34(%rbp)
     ed9:	de c1                	faddp  %st,%st(1)
     edb:	48 8b 45 d8          	mov    -0x28(%rbp),%rax
     edf:	db 38                	fstpt  (%rax)
     ee1:	48 8b 45 d8          	mov    -0x28(%rbp),%rax
     ee5:	db 28                	fldt   (%rax)
     ee7:	8b 45 f8             	mov    -0x8(%rbp),%eax
     eea:	48 98                	cltq   
     eec:	48 83 c0 04          	add    $0x4,%rax
     ef0:	48 8d 14 85 00 00 00 	lea    0x0(,%rax,4),%rdx
     ef7:	00 
     ef8:	48 8b 45 e8          	mov    -0x18(%rbp),%rax
     efc:	48 01 d0             	add    %rdx,%rax
     eff:	c5 fa 10 08          	vmovss (%rax),%xmm1
     f03:	8b 45 f8             	mov    -0x8(%rbp),%eax
     f06:	48 98                	cltq   
     f08:	48 83 c0 04          	add    $0x4,%rax
     f0c:	48 8d 14 85 00 00 00 	lea    0x0(,%rax,4),%rdx
     f13:	00 
     f14:	48 8b 45 e0          	mov    -0x20(%rbp),%rax
     f18:	48 01 d0             	add    %rdx,%rax
     f1b:	c5 fa 10 00          	vmovss (%rax),%xmm0
     f1f:	c5 f2 59 f0          	vmulss %xmm0,%xmm1,%xmm6
     f23:	c5 fa 11 75 cc       	vmovss %xmm6,-0x34(%rbp)
     f28:	d9 45 cc             	flds   -0x34(%rbp)
     f2b:	de c1                	faddp  %st,%st(1)
     f2d:	48 8b 45 d8          	mov    -0x28(%rbp),%rax
     f31:	db 38                	fstpt  (%rax)
     f33:	48 8b 45 d8          	mov    -0x28(%rbp),%rax
     f37:	db 28                	fldt   (%rax)
     f39:	8b 45 f8             	mov    -0x8(%rbp),%eax
     f3c:	48 98                	cltq   
     f3e:	48 83 c0 05          	add    $0x5,%rax
     f42:	48 8d 14 85 00 00 00 	lea    0x0(,%rax,4),%rdx
     f49:	00 
     f4a:	48 8b 45 e8          	mov    -0x18(%rbp),%rax
     f4e:	48 01 d0             	add    %rdx,%rax
     f51:	c5 fa 10 08          	vmovss (%rax),%xmm1
     f55:	8b 45 f8             	mov    -0x8(%rbp),%eax
     f58:	48 98                	cltq   
     f5a:	48 83 c0 05          	add    $0x5,%rax
     f5e:	48 8d 14 85 00 00 00 	lea    0x0(,%rax,4),%rdx
     f65:	00 
     f66:	48 8b 45 e0          	mov    -0x20(%rbp),%rax
     f6a:	48 01 d0             	add    %rdx,%rax
     f6d:	c5 fa 10 00          	vmovss (%rax),%xmm0
     f71:	c5 f2 59 f8          	vmulss %xmm0,%xmm1,%xmm7
     f75:	c5 fa 11 7d cc       	vmovss %xmm7,-0x34(%rbp)
     f7a:	d9 45 cc             	flds   -0x34(%rbp)
     f7d:	de c1                	faddp  %st,%st(1)
     f7f:	48 8b 45 d8          	mov    -0x28(%rbp),%rax
     f83:	db 38                	fstpt  (%rax)
     f85:	48 8b 45 d8          	mov    -0x28(%rbp),%rax
     f89:	db 28                	fldt   (%rax)
     f8b:	8b 45 f8             	mov    -0x8(%rbp),%eax
     f8e:	48 98                	cltq   
     f90:	48 83 c0 06          	add    $0x6,%rax
     f94:	48 8d 14 85 00 00 00 	lea    0x0(,%rax,4),%rdx
     f9b:	00 
     f9c:	48 8b 45 e8          	mov    -0x18(%rbp),%rax
     fa0:	48 01 d0             	add    %rdx,%rax
     fa3:	c5 fa 10 08          	vmovss (%rax),%xmm1
     fa7:	8b 45 f8             	mov    -0x8(%rbp),%eax
     faa:	48 98                	cltq   
     fac:	48 83 c0 06          	add    $0x6,%rax
     fb0:	48 8d 14 85 00 00 00 	lea    0x0(,%rax,4),%rdx
     fb7:	00 
     fb8:	48 8b 45 e0          	mov    -0x20(%rbp),%rax
     fbc:	48 01 d0             	add    %rdx,%rax
     fbf:	c5 fa 10 00          	vmovss (%rax),%xmm0
     fc3:	c5 f2 59 d0          	vmulss %xmm0,%xmm1,%xmm2
     fc7:	c5 fa 11 55 cc       	vmovss %xmm2,-0x34(%rbp)
     fcc:	d9 45 cc             	flds   -0x34(%rbp)
     fcf:	de c1                	faddp  %st,%st(1)
     fd1:	48 8b 45 d8          	mov    -0x28(%rbp),%rax
     fd5:	db 38                	fstpt  (%rax)
     fd7:	48 8b 45 d8          	mov    -0x28(%rbp),%rax
     fdb:	db 28                	fldt   (%rax)
     fdd:	8b 45 f8             	mov    -0x8(%rbp),%eax
     fe0:	48 98                	cltq   
     fe2:	48 83 c0 07          	add    $0x7,%rax
     fe6:	48 8d 14 85 00 00 00 	lea    0x0(,%rax,4),%rdx
     fed:	00 
     fee:	48 8b 45 e8          	mov    -0x18(%rbp),%rax
     ff2:	48 01 d0             	add    %rdx,%rax
     ff5:	c5 fa 10 08          	vmovss (%rax),%xmm1
     ff9:	8b 45 f8             	mov    -0x8(%rbp),%eax
     ffc:	48 98                	cltq   
     ffe:	48 83 c0 07          	add    $0x7,%rax
    1002:	48 8d 14 85 00 00 00 	lea    0x0(,%rax,4),%rdx
    1009:	00 
    100a:	48 8b 45 e0          	mov    -0x20(%rbp),%rax
    100e:	48 01 d0             	add    %rdx,%rax
    1011:	c5 fa 10 00          	vmovss (%rax),%xmm0
    1015:	c5 f2 59 d8          	vmulss %xmm0,%xmm1,%xmm3
    1019:	c5 fa 11 5d cc       	vmovss %xmm3,-0x34(%rbp)
    101e:	d9 45 cc             	flds   -0x34(%rbp)
    1021:	de c1                	faddp  %st,%st(1)
    1023:	48 8b 45 d8          	mov    -0x28(%rbp),%rax
    1027:	db 38                	fstpt  (%rax)
    1029:	83 45 f8 08          	addl   $0x8,-0x8(%rbp)
    102d:	8b 45 f8             	mov    -0x8(%rbp),%eax
    1030:	48 98                	cltq   
    1032:	48 39 45 d0          	cmp    %rax,-0x30(%rbp)
    1036:	0f 87 67 fd ff ff    	ja     da3 <dotproduct_unwind_f32+0x24>
    103c:	48 8b 45 d0          	mov    -0x30(%rbp),%rax
    1040:	83 e0 f8             	and    $0xfffffff8,%eax
    1043:	89 45 fc             	mov    %eax,-0x4(%rbp)
    1046:	eb 4d                	jmp    1095 <dotproduct_unwind_f32+0x316>
    1048:	48 8b 45 d8          	mov    -0x28(%rbp),%rax
    104c:	db 28                	fldt   (%rax)
    104e:	8b 45 fc             	mov    -0x4(%rbp),%eax
    1051:	48 98                	cltq   
    1053:	48 8d 14 85 00 00 00 	lea    0x0(,%rax,4),%rdx
    105a:	00 
    105b:	48 8b 45 e8          	mov    -0x18(%rbp),%rax
    105f:	48 01 d0             	add    %rdx,%rax
    1062:	c5 fa 10 08          	vmovss (%rax),%xmm1
    1066:	8b 45 fc             	mov    -0x4(%rbp),%eax
    1069:	48 98                	cltq   
    106b:	48 8d 14 85 00 00 00 	lea    0x0(,%rax,4),%rdx
    1072:	00 
    1073:	48 8b 45 e0          	mov    -0x20(%rbp),%rax
    1077:	48 01 d0             	add    %rdx,%rax
    107a:	c5 fa 10 00          	vmovss (%rax),%xmm0
    107e:	c5 f2 59 e0          	vmulss %xmm0,%xmm1,%xmm4
    1082:	c5 fa 11 65 cc       	vmovss %xmm4,-0x34(%rbp)
    1087:	d9 45 cc             	flds   -0x34(%rbp)
    108a:	de c1                	faddp  %st,%st(1)
    108c:	48 8b 45 d8          	mov    -0x28(%rbp),%rax
    1090:	db 38                	fstpt  (%rax)
    1092:	ff 45 fc             	incl   -0x4(%rbp)
    1095:	8b 45 fc             	mov    -0x4(%rbp),%eax
    1098:	48 98                	cltq   
    109a:	48 39 45 d0          	cmp    %rax,-0x30(%rbp)
    109e:	77 a8                	ja     1048 <dotproduct_unwind_f32+0x2c9>
    10a0:	90                   	nop
    10a1:	90                   	nop
    10a2:	5d                   	pop    %rbp
    10a3:	c3                   	ret    

00000000000010a4 <dotproduct_unwind_f64>:
    10a4:	f3 0f 1e fa          	endbr64 
    10a8:	55                   	push   %rbp
    10a9:	48 89 e5             	mov    %rsp,%rbp
    10ac:	48 89 7d e8          	mov    %rdi,-0x18(%rbp)
    10b0:	48 89 75 e0          	mov    %rsi,-0x20(%rbp)
    10b4:	48 89 55 d8          	mov    %rdx,-0x28(%rbp)
    10b8:	48 89 4d d0          	mov    %rcx,-0x30(%rbp)
    10bc:	c7 45 f8 00 00 00 00 	movl   $0x0,-0x8(%rbp)
    10c3:	e9 8a 02 00 00       	jmp    1352 <dotproduct_unwind_f64+0x2ae>
    10c8:	48 8b 45 d8          	mov    -0x28(%rbp),%rax
    10cc:	db 28                	fldt   (%rax)
    10ce:	8b 45 f8             	mov    -0x8(%rbp),%eax
    10d1:	48 98                	cltq   
    10d3:	48 8d 14 c5 00 00 00 	lea    0x0(,%rax,8),%rdx
    10da:	00 
    10db:	48 8b 45 e8          	mov    -0x18(%rbp),%rax
    10df:	48 01 d0             	add    %rdx,%rax
    10e2:	c5 fb 10 08          	vmovsd (%rax),%xmm1
    10e6:	8b 45 f8             	mov    -0x8(%rbp),%eax
    10e9:	48 98                	cltq   
    10eb:	48 8d 14 c5 00 00 00 	lea    0x0(,%rax,8),%rdx
    10f2:	00 
    10f3:	48 8b 45 e0          	mov    -0x20(%rbp),%rax
    10f7:	48 01 d0             	add    %rdx,%rax
    10fa:	c5 fb 10 00          	vmovsd (%rax),%xmm0
    10fe:	c5 f3 59 d0          	vmulsd %xmm0,%xmm1,%xmm2
    1102:	c5 fb 11 55 c8       	vmovsd %xmm2,-0x38(%rbp)
    1107:	dd 45 c8             	fldl   -0x38(%rbp)
    110a:	de c1                	faddp  %st,%st(1)
    110c:	48 8b 45 d8          	mov    -0x28(%rbp),%rax
    1110:	db 38                	fstpt  (%rax)
    1112:	48 8b 45 d8          	mov    -0x28(%rbp),%rax
    1116:	db 28                	fldt   (%rax)
    1118:	8b 45 f8             	mov    -0x8(%rbp),%eax
    111b:	48 98                	cltq   
    111d:	48 ff c0             	inc    %rax
    1120:	48 8d 14 c5 00 00 00 	lea    0x0(,%rax,8),%rdx
    1127:	00 
    1128:	48 8b 45 e8          	mov    -0x18(%rbp),%rax
    112c:	48 01 d0             	add    %rdx,%rax
    112f:	c5 fb 10 08          	vmovsd (%rax),%xmm1
    1133:	8b 45 f8             	mov    -0x8(%rbp),%eax
    1136:	48 98                	cltq   
    1138:	48 ff c0             	inc    %rax
    113b:	48 8d 14 c5 00 00 00 	lea    0x0(,%rax,8),%rdx
    1142:	00 
    1143:	48 8b 45 e0          	mov    -0x20(%rbp),%rax
    1147:	48 01 d0             	add    %rdx,%rax
    114a:	c5 fb 10 00          	vmovsd (%rax),%xmm0
    114e:	c5 f3 59 d8          	vmulsd %xmm0,%xmm1,%xmm3
    1152:	c5 fb 11 5d c8       	vmovsd %xmm3,-0x38(%rbp)
    1157:	dd 45 c8             	fldl   -0x38(%rbp)
    115a:	de c1                	faddp  %st,%st(1)
    115c:	48 8b 45 d8          	mov    -0x28(%rbp),%rax
    1160:	db 38                	fstpt  (%rax)
    1162:	48 8b 45 d8          	mov    -0x28(%rbp),%rax
    1166:	db 28                	fldt   (%rax)
    1168:	8b 45 f8             	mov    -0x8(%rbp),%eax
    116b:	48 98                	cltq   
    116d:	48 83 c0 02          	add    $0x2,%rax
    1171:	48 8d 14 c5 00 00 00 	lea    0x0(,%rax,8),%rdx
    1178:	00 
    1179:	48 8b 45 e8          	mov    -0x18(%rbp),%rax
    117d:	48 01 d0             	add    %rdx,%rax
    1180:	c5 fb 10 08          	vmovsd (%rax),%xmm1
    1184:	8b 45 f8             	mov    -0x8(%rbp),%eax
    1187:	48 98                	cltq   
    1189:	48 83 c0 02          	add    $0x2,%rax
    118d:	48 8d 14 c5 00 00 00 	lea    0x0(,%rax,8),%rdx
    1194:	00 
    1195:	48 8b 45 e0          	mov    -0x20(%rbp),%rax
    1199:	48 01 d0             	add    %rdx,%rax
    119c:	c5 fb 10 00          	vmovsd (%rax),%xmm0
    11a0:	c5 f3 59 e0          	vmulsd %xmm0,%xmm1,%xmm4
    11a4:	c5 fb 11 65 c8       	vmovsd %xmm4,-0x38(%rbp)
    11a9:	dd 45 c8             	fldl   -0x38(%rbp)
    11ac:	de c1                	faddp  %st,%st(1)
    11ae:	48 8b 45 d8          	mov    -0x28(%rbp),%rax
    11b2:	db 38                	fstpt  (%rax)
    11b4:	48 8b 45 d8          	mov    -0x28(%rbp),%rax
    11b8:	db 28                	fldt   (%rax)
    11ba:	8b 45 f8             	mov    -0x8(%rbp),%eax
    11bd:	48 98                	cltq   
    11bf:	48 83 c0 03          	add    $0x3,%rax
    11c3:	48 8d 14 c5 00 00 00 	lea    0x0(,%rax,8),%rdx
    11ca:	00 
    11cb:	48 8b 45 e8          	mov    -0x18(%rbp),%rax
    11cf:	48 01 d0             	add    %rdx,%rax
    11d2:	c5 fb 10 08          	vmovsd (%rax),%xmm1
    11d6:	8b 45 f8             	mov    -0x8(%rbp),%eax
    11d9:	48 98                	cltq   
    11db:	48 83 c0 03          	add    $0x3,%rax
    11df:	48 8d 14 c5 00 00 00 	lea    0x0(,%rax,8),%rdx
    11e6:	00 
    11e7:	48 8b 45 e0          	mov    -0x20(%rbp),%rax
    11eb:	48 01 d0             	add    %rdx,%rax
    11ee:	c5 fb 10 00          	vmovsd (%rax),%xmm0
    11f2:	c5 f3 59 e8          	vmulsd %xmm0,%xmm1,%xmm5
    11f6:	c5 fb 11 6d c8       	vmovsd %xmm5,-0x38(%rbp)
    11fb:	dd 45 c8             	fldl   -0x38(%rbp)
    11fe:	de c1                	faddp  %st,%st(1)
    1200:	48 8b 45 d8          	mov    -0x28(%rbp),%rax
    1204:	db 38                	fstpt  (%rax)
    1206:	48 8b 45 d8          	mov    -0x28(%rbp),%rax
    120a:	db 28                	fldt   (%rax)
    120c:	8b 45 f8             	mov    -0x8(%rbp),%eax
    120f:	48 98                	cltq   
    1211:	48 83 c0 04          	add    $0x4,%rax
    1215:	48 8d 14 c5 00 00 00 	lea    0x0(,%rax,8),%rdx
    121c:	00 
    121d:	48 8b 45 e8          	mov    -0x18(%rbp),%rax
    1221:	48 01 d0             	add    %rdx,%rax
    1224:	c5 fb 10 08          	vmovsd (%rax),%xmm1
    1228:	8b 45 f8             	mov    -0x8(%rbp),%eax
    122b:	48 98                	cltq   
    122d:	48 83 c0 04          	add    $0x4,%rax
    1231:	48 8d 14 c5 00 00 00 	lea    0x0(,%rax,8),%rdx
    1238:	00 
    1239:	48 8b 45 e0          	mov    -0x20(%rbp),%rax
    123d:	48 01 d0             	add    %rdx,%rax
    1240:	c5 fb 10 00          	vmovsd (%rax),%xmm0
    1244:	c5 f3 59 f0          	vmulsd %xmm0,%xmm1,%xmm6
    1248:	c5 fb 11 75 c8       	vmovsd %xmm6,-0x38(%rbp)
    124d:	dd 45 c8             	fldl   -0x38(%rbp)
    1250:	de c1                	faddp  %st,%st(1)
    1252:	48 8b 45 d8          	mov    -0x28(%rbp),%rax
    1256:	db 38                	fstpt  (%rax)
    1258:	48 8b 45 d8          	mov    -0x28(%rbp),%rax
    125c:	db 28                	fldt   (%rax)
    125e:	8b 45 f8             	mov    -0x8(%rbp),%eax
    1261:	48 98                	cltq   
    1263:	48 83 c0 05          	add    $0x5,%rax
    1267:	48 8d 14 c5 00 00 00 	lea    0x0(,%rax,8),%rdx
    126e:	00 
    126f:	48 8b 45 e8          	mov    -0x18(%rbp),%rax
    1273:	48 01 d0             	add    %rdx,%rax
    1276:	c5 fb 10 08          	vmovsd (%rax),%xmm1
    127a:	8b 45 f8             	mov    -0x8(%rbp),%eax
    127d:	48 98                	cltq   
    127f:	48 83 c0 05          	add    $0x5,%rax
    1283:	48 8d 14 c5 00 00 00 	lea    0x0(,%rax,8),%rdx
    128a:	00 
    128b:	48 8b 45 e0          	mov    -0x20(%rbp),%rax
    128f:	48 01 d0             	add    %rdx,%rax
    1292:	c5 fb 10 00          	vmovsd (%rax),%xmm0
    1296:	c5 f3 59 f8          	vmulsd %xmm0,%xmm1,%xmm7
    129a:	c5 fb 11 7d c8       	vmovsd %xmm7,-0x38(%rbp)
    129f:	dd 45 c8             	fldl   -0x38(%rbp)
    12a2:	de c1                	faddp  %st,%st(1)
    12a4:	48 8b 45 d8          	mov    -0x28(%rbp),%rax
    12a8:	db 38                	fstpt  (%rax)
    12aa:	48 8b 45 d8          	mov    -0x28(%rbp),%rax
    12ae:	db 28                	fldt   (%rax)
    12b0:	8b 45 f8             	mov    -0x8(%rbp),%eax
    12b3:	48 98                	cltq   
    12b5:	48 83 c0 06          	add    $0x6,%rax
    12b9:	48 8d 14 c5 00 00 00 	lea    0x0(,%rax,8),%rdx
    12c0:	00 
    12c1:	48 8b 45 e8          	mov    -0x18(%rbp),%rax
    12c5:	48 01 d0             	add    %rdx,%rax
    12c8:	c5 fb 10 08          	vmovsd (%rax),%xmm1
    12cc:	8b 45 f8             	mov    -0x8(%rbp),%eax
    12cf:	48 98                	cltq   
    12d1:	48 83 c0 06          	add    $0x6,%rax
    12d5:	48 8d 14 c5 00 00 00 	lea    0x0(,%rax,8),%rdx
    12dc:	00 
    12dd:	48 8b 45 e0          	mov    -0x20(%rbp),%rax
    12e1:	48 01 d0             	add    %rdx,%rax
    12e4:	c5 fb 10 00          	vmovsd (%rax),%xmm0
    12e8:	c5 f3 59 d0          	vmulsd %xmm0,%xmm1,%xmm2
    12ec:	c5 fb 11 55 c8       	vmovsd %xmm2,-0x38(%rbp)
    12f1:	dd 45 c8             	fldl   -0x38(%rbp)
    12f4:	de c1                	faddp  %st,%st(1)
    12f6:	48 8b 45 d8          	mov    -0x28(%rbp),%rax
    12fa:	db 38                	fstpt  (%rax)
    12fc:	48 8b 45 d8          	mov    -0x28(%rbp),%rax
    1300:	db 28                	fldt   (%rax)
    1302:	8b 45 f8             	mov    -0x8(%rbp),%eax
    1305:	48 98                	cltq   
    1307:	48 83 c0 07          	add    $0x7,%rax
    130b:	48 8d 14 c5 00 00 00 	lea    0x0(,%rax,8),%rdx
    1312:	00 
    1313:	48 8b 45 e8          	mov    -0x18(%rbp),%rax
    1317:	48 01 d0             	add    %rdx,%rax
    131a:	c5 fb 10 08          	vmovsd (%rax),%xmm1
    131e:	8b 45 f8             	mov    -0x8(%rbp),%eax
    1321:	48 98                	cltq   
    1323:	48 83 c0 07          	add    $0x7,%rax
    1327:	48 8d 14 c5 00 00 00 	lea    0x0(,%rax,8),%rdx
    132e:	00 
    132f:	48 8b 45 e0          	mov    -0x20(%rbp),%rax
    1333:	48 01 d0             	add    %rdx,%rax
    1336:	c5 fb 10 00          	vmovsd (%rax),%xmm0
    133a:	c5 f3 59 d8          	vmulsd %xmm0,%xmm1,%xmm3
    133e:	c5 fb 11 5d c8       	vmovsd %xmm3,-0x38(%rbp)
    1343:	dd 45 c8             	fldl   -0x38(%rbp)
    1346:	de c1                	faddp  %st,%st(1)
    1348:	48 8b 45 d8          	mov    -0x28(%rbp),%rax
    134c:	db 38                	fstpt  (%rax)
    134e:	83 45 f8 08          	addl   $0x8,-0x8(%rbp)
    1352:	8b 45 f8             	mov    -0x8(%rbp),%eax
    1355:	48 98                	cltq   
    1357:	48 39 45 d0          	cmp    %rax,-0x30(%rbp)
    135b:	0f 87 67 fd ff ff    	ja     10c8 <dotproduct_unwind_f64+0x24>
    1361:	48 8b 45 d0          	mov    -0x30(%rbp),%rax
    1365:	83 e0 f8             	and    $0xfffffff8,%eax
    1368:	89 45 fc             	mov    %eax,-0x4(%rbp)
    136b:	eb 4d                	jmp    13ba <dotproduct_unwind_f64+0x316>
    136d:	48 8b 45 d8          	mov    -0x28(%rbp),%rax
    1371:	db 28                	fldt   (%rax)
    1373:	8b 45 fc             	mov    -0x4(%rbp),%eax
    1376:	48 98                	cltq   
    1378:	48 8d 14 c5 00 00 00 	lea    0x0(,%rax,8),%rdx
    137f:	00 
    1380:	48 8b 45 e8          	mov    -0x18(%rbp),%rax
    1384:	48 01 d0             	add    %rdx,%rax
    1387:	c5 fb 10 08          	vmovsd (%rax),%xmm1
    138b:	8b 45 fc             	mov    -0x4(%rbp),%eax
    138e:	48 98                	cltq   
    1390:	48 8d 14 c5 00 00 00 	lea    0x0(,%rax,8),%rdx
    1397:	00 
    1398:	48 8b 45 e0          	mov    -0x20(%rbp),%rax
    139c:	48 01 d0             	add    %rdx,%rax
    139f:	c5 fb 10 00          	vmovsd (%rax),%xmm0
    13a3:	c5 f3 59 e0          	vmulsd %xmm0,%xmm1,%xmm4
    13a7:	c5 fb 11 65 c8       	vmovsd %xmm4,-0x38(%rbp)
    13ac:	dd 45 c8             	fldl   -0x38(%rbp)
    13af:	de c1                	faddp  %st,%st(1)
    13b1:	48 8b 45 d8          	mov    -0x28(%rbp),%rax
    13b5:	db 38                	fstpt  (%rax)
    13b7:	ff 45 fc             	incl   -0x4(%rbp)
    13ba:	8b 45 fc             	mov    -0x4(%rbp),%eax
    13bd:	48 98                	cltq   
    13bf:	48 39 45 d0          	cmp    %rax,-0x30(%rbp)
    13c3:	77 a8                	ja     136d <dotproduct_unwind_f64+0x2c9>
    13c5:	90                   	nop
    13c6:	90                   	nop
    13c7:	5d                   	pop    %rbp
    13c8:	c3                   	ret    

00000000000013c9 <dotproduct_parallel_i8>:
    13c9:	f3 0f 1e fa          	endbr64 
    13cd:	55                   	push   %rbp
    13ce:	48 89 e5             	mov    %rsp,%rbp
    13d1:	48 83 ec 60          	sub    $0x60,%rsp
    13d5:	48 89 7d b8          	mov    %rdi,-0x48(%rbp)
    13d9:	48 89 75 b0          	mov    %rsi,-0x50(%rbp)
    13dd:	48 89 55 a8          	mov    %rdx,-0x58(%rbp)
    13e1:	48 89 4d a0          	mov    %rcx,-0x60(%rbp)
    13e5:	64 48 8b 04 25 28 00 	mov    %fs:0x28,%rax
    13ec:	00 00 
    13ee:	48 89 45 f8          	mov    %rax,-0x8(%rbp)
    13f2:	31 c0                	xor    %eax,%eax
    13f4:	48 c7 45 c8 00 00 00 	movq   $0x0,-0x38(%rbp)
    13fb:	00 
    13fc:	48 8b 45 c8          	mov    -0x38(%rbp),%rax
    1400:	48 89 45 e8          	mov    %rax,-0x18(%rbp)
    1404:	48 8b 45 a0          	mov    -0x60(%rbp),%rax
    1408:	48 89 45 e0          	mov    %rax,-0x20(%rbp)
    140c:	48 8b 45 b0          	mov    -0x50(%rbp),%rax
    1410:	48 89 45 d8          	mov    %rax,-0x28(%rbp)
    1414:	48 8b 45 b8          	mov    -0x48(%rbp),%rax
    1418:	48 89 45 d0          	mov    %rax,-0x30(%rbp)
    141c:	48 8d 45 d0          	lea    -0x30(%rbp),%rax
    1420:	b9 00 00 00 00       	mov    $0x0,%ecx
    1425:	ba 00 00 00 00       	mov    $0x0,%edx
    142a:	48 89 c6             	mov    %rax,%rsi
    142d:	48 8d 05 ca 0f 00 00 	lea    0xfca(%rip),%rax        # 23fe <dotproduct_parallel_i8._omp_fn.0>
    1434:	48 89 c7             	mov    %rax,%rdi
    1437:	e8 00 00 00 00       	call   143c <dotproduct_parallel_i8+0x73>
    143c:	48 8b 45 e8          	mov    -0x18(%rbp),%rax
    1440:	48 89 45 c8          	mov    %rax,-0x38(%rbp)
    1444:	48 8b 45 a8          	mov    -0x58(%rbp),%rax
    1448:	48 8b 10             	mov    (%rax),%rdx
    144b:	48 8b 45 c8          	mov    -0x38(%rbp),%rax
    144f:	48 01 c2             	add    %rax,%rdx
    1452:	48 8b 45 a8          	mov    -0x58(%rbp),%rax
    1456:	48 89 10             	mov    %rdx,(%rax)
    1459:	90                   	nop
    145a:	48 8b 45 f8          	mov    -0x8(%rbp),%rax
    145e:	64 48 2b 04 25 28 00 	sub    %fs:0x28,%rax
    1465:	00 00 
    1467:	74 05                	je     146e <dotproduct_parallel_i8+0xa5>
    1469:	e8 00 00 00 00       	call   146e <dotproduct_parallel_i8+0xa5>
    146e:	c9                   	leave  
    146f:	c3                   	ret    

0000000000001470 <dotproduct_parallel_i16>:
    1470:	f3 0f 1e fa          	endbr64 
    1474:	55                   	push   %rbp
    1475:	48 89 e5             	mov    %rsp,%rbp
    1478:	48 83 ec 60          	sub    $0x60,%rsp
    147c:	48 89 7d b8          	mov    %rdi,-0x48(%rbp)
    1480:	48 89 75 b0          	mov    %rsi,-0x50(%rbp)
    1484:	48 89 55 a8          	mov    %rdx,-0x58(%rbp)
    1488:	48 89 4d a0          	mov    %rcx,-0x60(%rbp)
    148c:	64 48 8b 04 25 28 00 	mov    %fs:0x28,%rax
    1493:	00 00 
    1495:	48 89 45 f8          	mov    %rax,-0x8(%rbp)
    1499:	31 c0                	xor    %eax,%eax
    149b:	48 c7 45 c8 00 00 00 	movq   $0x0,-0x38(%rbp)
    14a2:	00 
    14a3:	48 8b 45 c8          	mov    -0x38(%rbp),%rax
    14a7:	48 89 45 e8          	mov    %rax,-0x18(%rbp)
    14ab:	48 8b 45 a0          	mov    -0x60(%rbp),%rax
    14af:	48 89 45 e0          	mov    %rax,-0x20(%rbp)
    14b3:	48 8b 45 b0          	mov    -0x50(%rbp),%rax
    14b7:	48 89 45 d8          	mov    %rax,-0x28(%rbp)
    14bb:	48 8b 45 b8          	mov    -0x48(%rbp),%rax
    14bf:	48 89 45 d0          	mov    %rax,-0x30(%rbp)
    14c3:	48 8d 45 d0          	lea    -0x30(%rbp),%rax
    14c7:	b9 00 00 00 00       	mov    $0x0,%ecx
    14cc:	ba 00 00 00 00       	mov    $0x0,%edx
    14d1:	48 89 c6             	mov    %rax,%rsi
    14d4:	48 8d 05 14 10 00 00 	lea    0x1014(%rip),%rax        # 24ef <dotproduct_parallel_i16._omp_fn.0>
    14db:	48 89 c7             	mov    %rax,%rdi
    14de:	e8 00 00 00 00       	call   14e3 <dotproduct_parallel_i16+0x73>
    14e3:	48 8b 45 e8          	mov    -0x18(%rbp),%rax
    14e7:	48 89 45 c8          	mov    %rax,-0x38(%rbp)
    14eb:	48 8b 45 a8          	mov    -0x58(%rbp),%rax
    14ef:	48 8b 10             	mov    (%rax),%rdx
    14f2:	48 8b 45 c8          	mov    -0x38(%rbp),%rax
    14f6:	48 01 c2             	add    %rax,%rdx
    14f9:	48 8b 45 a8          	mov    -0x58(%rbp),%rax
    14fd:	48 89 10             	mov    %rdx,(%rax)
    1500:	90                   	nop
    1501:	48 8b 45 f8          	mov    -0x8(%rbp),%rax
    1505:	64 48 2b 04 25 28 00 	sub    %fs:0x28,%rax
    150c:	00 00 
    150e:	74 05                	je     1515 <dotproduct_parallel_i16+0xa5>
    1510:	e8 00 00 00 00       	call   1515 <dotproduct_parallel_i16+0xa5>
    1515:	c9                   	leave  
    1516:	c3                   	ret    

0000000000001517 <dotproduct_parallel_i32>:
    1517:	f3 0f 1e fa          	endbr64 
    151b:	55                   	push   %rbp
    151c:	48 89 e5             	mov    %rsp,%rbp
    151f:	48 83 ec 60          	sub    $0x60,%rsp
    1523:	48 89 7d b8          	mov    %rdi,-0x48(%rbp)
    1527:	48 89 75 b0          	mov    %rsi,-0x50(%rbp)
    152b:	48 89 55 a8          	mov    %rdx,-0x58(%rbp)
    152f:	48 89 4d a0          	mov    %rcx,-0x60(%rbp)
    1533:	64 48 8b 04 25 28 00 	mov    %fs:0x28,%rax
    153a:	00 00 
    153c:	48 89 45 f8          	mov    %rax,-0x8(%rbp)
    1540:	31 c0                	xor    %eax,%eax
    1542:	48 c7 45 c8 00 00 00 	movq   $0x0,-0x38(%rbp)
    1549:	00 
    154a:	48 8b 45 c8          	mov    -0x38(%rbp),%rax
    154e:	48 89 45 e8          	mov    %rax,-0x18(%rbp)
    1552:	48 8b 45 a0          	mov    -0x60(%rbp),%rax
    1556:	48 89 45 e0          	mov    %rax,-0x20(%rbp)
    155a:	48 8b 45 b0          	mov    -0x50(%rbp),%rax
    155e:	48 89 45 d8          	mov    %rax,-0x28(%rbp)
    1562:	48 8b 45 b8          	mov    -0x48(%rbp),%rax
    1566:	48 89 45 d0          	mov    %rax,-0x30(%rbp)
    156a:	48 8d 45 d0          	lea    -0x30(%rbp),%rax
    156e:	b9 00 00 00 00       	mov    $0x0,%ecx
    1573:	ba 00 00 00 00       	mov    $0x0,%edx
    1578:	48 89 c6             	mov    %rax,%rsi
    157b:	48 8d 05 64 10 00 00 	lea    0x1064(%rip),%rax        # 25e6 <dotproduct_parallel_i32._omp_fn.0>
    1582:	48 89 c7             	mov    %rax,%rdi
    1585:	e8 00 00 00 00       	call   158a <dotproduct_parallel_i32+0x73>
    158a:	48 8b 45 e8          	mov    -0x18(%rbp),%rax
    158e:	48 89 45 c8          	mov    %rax,-0x38(%rbp)
    1592:	48 8b 45 a8          	mov    -0x58(%rbp),%rax
    1596:	48 8b 10             	mov    (%rax),%rdx
    1599:	48 8b 45 c8          	mov    -0x38(%rbp),%rax
    159d:	48 01 c2             	add    %rax,%rdx
    15a0:	48 8b 45 a8          	mov    -0x58(%rbp),%rax
    15a4:	48 89 10             	mov    %rdx,(%rax)
    15a7:	90                   	nop
    15a8:	48 8b 45 f8          	mov    -0x8(%rbp),%rax
    15ac:	64 48 2b 04 25 28 00 	sub    %fs:0x28,%rax
    15b3:	00 00 
    15b5:	74 05                	je     15bc <dotproduct_parallel_i32+0xa5>
    15b7:	e8 00 00 00 00       	call   15bc <dotproduct_parallel_i32+0xa5>
    15bc:	c9                   	leave  
    15bd:	c3                   	ret    

00000000000015be <dotproduct_parallel_f32>:
    15be:	f3 0f 1e fa          	endbr64 
    15c2:	55                   	push   %rbp
    15c3:	48 89 e5             	mov    %rsp,%rbp
    15c6:	48 83 ec 70          	sub    $0x70,%rsp
    15ca:	48 89 7d a8          	mov    %rdi,-0x58(%rbp)
    15ce:	48 89 75 a0          	mov    %rsi,-0x60(%rbp)
    15d2:	48 89 55 98          	mov    %rdx,-0x68(%rbp)
    15d6:	48 89 4d 90          	mov    %rcx,-0x70(%rbp)
    15da:	64 48 8b 04 25 28 00 	mov    %fs:0x28,%rax
    15e1:	00 00 
    15e3:	48 89 45 f8          	mov    %rax,-0x8(%rbp)
    15e7:	31 c0                	xor    %eax,%eax
    15e9:	d9 ee                	fldz   
    15eb:	db 7d b0             	fstpt  -0x50(%rbp)
    15ee:	db 6d b0             	fldt   -0x50(%rbp)
    15f1:	db 7d c0             	fstpt  -0x40(%rbp)
    15f4:	48 8b 45 90          	mov    -0x70(%rbp),%rax
    15f8:	48 89 45 e0          	mov    %rax,-0x20(%rbp)
    15fc:	48 8b 45 a0          	mov    -0x60(%rbp),%rax
    1600:	48 89 45 d8          	mov    %rax,-0x28(%rbp)
    1604:	48 8b 45 a8          	mov    -0x58(%rbp),%rax
    1608:	48 89 45 d0          	mov    %rax,-0x30(%rbp)
    160c:	48 8d 45 c0          	lea    -0x40(%rbp),%rax
    1610:	b9 00 00 00 00       	mov    $0x0,%ecx
    1615:	ba 00 00 00 00       	mov    $0x0,%edx
    161a:	48 89 c6             	mov    %rax,%rsi
    161d:	48 8d 05 bb 10 00 00 	lea    0x10bb(%rip),%rax        # 26df <dotproduct_parallel_f32._omp_fn.0>
    1624:	48 89 c7             	mov    %rax,%rdi
    1627:	e8 00 00 00 00       	call   162c <dotproduct_parallel_f32+0x6e>
    162c:	db 6d c0             	fldt   -0x40(%rbp)
    162f:	db 7d b0             	fstpt  -0x50(%rbp)
    1632:	48 8b 45 98          	mov    -0x68(%rbp),%rax
    1636:	db 28                	fldt   (%rax)
    1638:	db 6d b0             	fldt   -0x50(%rbp)
    163b:	de c1                	faddp  %st,%st(1)
    163d:	48 8b 45 98          	mov    -0x68(%rbp),%rax
    1641:	db 38                	fstpt  (%rax)
    1643:	90                   	nop
    1644:	48 8b 45 f8          	mov    -0x8(%rbp),%rax
    1648:	64 48 2b 04 25 28 00 	sub    %fs:0x28,%rax
    164f:	00 00 
    1651:	74 05                	je     1658 <dotproduct_parallel_f32+0x9a>
    1653:	e8 00 00 00 00       	call   1658 <dotproduct_parallel_f32+0x9a>
    1658:	c9                   	leave  
    1659:	c3                   	ret    

000000000000165a <dotproduct_parallel_f64>:
    165a:	f3 0f 1e fa          	endbr64 
    165e:	55                   	push   %rbp
    165f:	48 89 e5             	mov    %rsp,%rbp
    1662:	48 83 ec 70          	sub    $0x70,%rsp
    1666:	48 89 7d a8          	mov    %rdi,-0x58(%rbp)
    166a:	48 89 75 a0          	mov    %rsi,-0x60(%rbp)
    166e:	48 89 55 98          	mov    %rdx,-0x68(%rbp)
    1672:	48 89 4d 90          	mov    %rcx,-0x70(%rbp)
    1676:	64 48 8b 04 25 28 00 	mov    %fs:0x28,%rax
    167d:	00 00 
    167f:	48 89 45 f8          	mov    %rax,-0x8(%rbp)
    1683:	31 c0                	xor    %eax,%eax
    1685:	d9 ee                	fldz   
    1687:	db 7d b0             	fstpt  -0x50(%rbp)
    168a:	db 6d b0             	fldt   -0x50(%rbp)
    168d:	db 7d c0             	fstpt  -0x40(%rbp)
    1690:	48 8b 45 90          	mov    -0x70(%rbp),%rax
    1694:	48 89 45 e0          	mov    %rax,-0x20(%rbp)
    1698:	48 8b 45 a0          	mov    -0x60(%rbp),%rax
    169c:	48 89 45 d8          	mov    %rax,-0x28(%rbp)
    16a0:	48 8b 45 a8          	mov    -0x58(%rbp),%rax
    16a4:	48 89 45 d0          	mov    %rax,-0x30(%rbp)
    16a8:	48 8d 45 c0          	lea    -0x40(%rbp),%rax
    16ac:	b9 00 00 00 00       	mov    $0x0,%ecx
    16b1:	ba 00 00 00 00       	mov    $0x0,%edx
    16b6:	48 89 c6             	mov    %rax,%rsi
    16b9:	48 8d 05 2c 11 00 00 	lea    0x112c(%rip),%rax        # 27ec <dotproduct_parallel_f64._omp_fn.0>
    16c0:	48 89 c7             	mov    %rax,%rdi
    16c3:	e8 00 00 00 00       	call   16c8 <dotproduct_parallel_f64+0x6e>
    16c8:	db 6d c0             	fldt   -0x40(%rbp)
    16cb:	db 7d b0             	fstpt  -0x50(%rbp)
    16ce:	48 8b 45 98          	mov    -0x68(%rbp),%rax
    16d2:	db 28                	fldt   (%rax)
    16d4:	db 6d b0             	fldt   -0x50(%rbp)
    16d7:	de c1                	faddp  %st,%st(1)
    16d9:	48 8b 45 98          	mov    -0x68(%rbp),%rax
    16dd:	db 38                	fstpt  (%rax)
    16df:	90                   	nop
    16e0:	48 8b 45 f8          	mov    -0x8(%rbp),%rax
    16e4:	64 48 2b 04 25 28 00 	sub    %fs:0x28,%rax
    16eb:	00 00 
    16ed:	74 05                	je     16f4 <dotproduct_parallel_f64+0x9a>
    16ef:	e8 00 00 00 00       	call   16f4 <dotproduct_parallel_f64+0x9a>
    16f4:	c9                   	leave  
    16f5:	c3                   	ret    

00000000000016f6 <dotproduct_simdi>:
    16f6:	f3 0f 1e fa          	endbr64 
    16fa:	55                   	push   %rbp
    16fb:	48 89 e5             	mov    %rsp,%rbp
    16fe:	41 55                	push   %r13
    1700:	41 54                	push   %r12
    1702:	53                   	push   %rbx
    1703:	48 83 ec 70          	sub    $0x70,%rsp
    1707:	48 89 d0             	mov    %rdx,%rax
    170a:	48 89 ca             	mov    %rcx,%rdx
    170d:	c5 f9 ef c0          	vpxor  %xmm0,%xmm0,%xmm0
    1711:	c5 79 6f c0          	vmovdqa %xmm0,%xmm8
    1715:	c5 f9 ef c0          	vpxor  %xmm0,%xmm0,%xmm0
    1719:	c5 79 6f c8          	vmovdqa %xmm0,%xmm9
    171d:	49 89 fc             	mov    %rdi,%r12
    1720:	49 89 f5             	mov    %rsi,%r13
    1723:	bb 00 00 00 00       	mov    $0x0,%ebx
    1728:	e9 37 01 00 00       	jmp    1864 <dotproduct_simdi+0x16e>
    172d:	48 89 d9             	mov    %rbx,%rcx
    1730:	48 c1 e9 02          	shr    $0x2,%rcx
    1734:	48 c1 e1 04          	shl    $0x4,%rcx
    1738:	4c 01 e1             	add    %r12,%rcx
    173b:	48 89 8d 18 ff ff ff 	mov    %rcx,-0xe8(%rbp)
    1742:	48 8b 8d 18 ff ff ff 	mov    -0xe8(%rbp),%rcx
    1749:	c5 fb f0 01          	vlddqu (%rcx),%xmm0
    174d:	c5 f9 6f d0          	vmovdqa %xmm0,%xmm2
    1751:	48 89 d9             	mov    %rbx,%rcx
    1754:	48 c1 e9 02          	shr    $0x2,%rcx
    1758:	48 c1 e1 04          	shl    $0x4,%rcx
    175c:	4c 01 e9             	add    %r13,%rcx
    175f:	48 89 8d 10 ff ff ff 	mov    %rcx,-0xf0(%rbp)
    1766:	48 8b 8d 10 ff ff ff 	mov    -0xf0(%rbp),%rcx
    176d:	c5 fb f0 01          	vlddqu (%rcx),%xmm0
    1771:	c5 f9 6f d8          	vmovdqa %xmm0,%xmm3
    1775:	c5 f9 7f 55 a0       	vmovdqa %xmm2,-0x60(%rbp)
    177a:	c5 f9 7f 5d b0       	vmovdqa %xmm3,-0x50(%rbp)
    177f:	c5 f9 6f 45 b0       	vmovdqa -0x50(%rbp),%xmm0
    1784:	c5 f9 6f 4d a0       	vmovdqa -0x60(%rbp),%xmm1
    1789:	c4 e2 71 28 c0       	vpmuldq %xmm0,%xmm1,%xmm0
    178e:	90                   	nop
    178f:	c5 f9 6f e0          	vmovdqa %xmm0,%xmm4
    1793:	c5 f9 7f 55 90       	vmovdqa %xmm2,-0x70(%rbp)
    1798:	c7 85 0c ff ff ff 20 	movl   $0x20,-0xf4(%rbp)
    179f:	00 00 00 
    17a2:	c5 f9 6f 4d 90       	vmovdqa -0x70(%rbp),%xmm1
    17a7:	c5 f9 6e 85 0c ff ff 	vmovd  -0xf4(%rbp),%xmm0
    17ae:	ff 
    17af:	c5 f1 d3 c0          	vpsrlq %xmm0,%xmm1,%xmm0
    17b3:	90                   	nop
    17b4:	c5 f9 6f e8          	vmovdqa %xmm0,%xmm5
    17b8:	c5 f9 7f 5d 80       	vmovdqa %xmm3,-0x80(%rbp)
    17bd:	c7 85 08 ff ff ff 20 	movl   $0x20,-0xf8(%rbp)
    17c4:	00 00 00 
    17c7:	c5 f9 6f 4d 80       	vmovdqa -0x80(%rbp),%xmm1
    17cc:	c5 f9 6e 85 08 ff ff 	vmovd  -0xf8(%rbp),%xmm0
    17d3:	ff 
    17d4:	c5 f1 d3 c0          	vpsrlq %xmm0,%xmm1,%xmm0
    17d8:	90                   	nop
    17d9:	c5 f9 6f f0          	vmovdqa %xmm0,%xmm6
    17dd:	c5 f9 7f ad 60 ff ff 	vmovdqa %xmm5,-0xa0(%rbp)
    17e4:	ff 
    17e5:	c5 f9 7f b5 70 ff ff 	vmovdqa %xmm6,-0x90(%rbp)
    17ec:	ff 
    17ed:	c5 f9 6f 85 70 ff ff 	vmovdqa -0x90(%rbp),%xmm0
    17f4:	ff 
    17f5:	c5 f9 6f 8d 60 ff ff 	vmovdqa -0xa0(%rbp),%xmm1
    17fc:	ff 
    17fd:	c4 e2 71 28 c0       	vpmuldq %xmm0,%xmm1,%xmm0
    1802:	90                   	nop
    1803:	c5 f9 6f e8          	vmovdqa %xmm0,%xmm5
    1807:	c5 79 7f c7          	vmovdqa %xmm8,%xmm7
    180b:	c5 f9 7f bd 40 ff ff 	vmovdqa %xmm7,-0xc0(%rbp)
    1812:	ff 
    1813:	c5 f9 7f a5 50 ff ff 	vmovdqa %xmm4,-0xb0(%rbp)
    181a:	ff 
    181b:	c5 f9 6f 8d 40 ff ff 	vmovdqa -0xc0(%rbp),%xmm1
    1822:	ff 
    1823:	c5 f9 6f 85 50 ff ff 	vmovdqa -0xb0(%rbp),%xmm0
    182a:	ff 
    182b:	c5 f1 d4 c0          	vpaddq %xmm0,%xmm1,%xmm0
    182f:	c5 79 6f c0          	vmovdqa %xmm0,%xmm8
    1833:	c5 79 7f cf          	vmovdqa %xmm9,%xmm7
    1837:	c5 f9 7f bd 20 ff ff 	vmovdqa %xmm7,-0xe0(%rbp)
    183e:	ff 
    183f:	c5 f9 7f ad 30 ff ff 	vmovdqa %xmm5,-0xd0(%rbp)
    1846:	ff 
    1847:	c5 f9 6f 8d 20 ff ff 	vmovdqa -0xe0(%rbp),%xmm1
    184e:	ff 
    184f:	c5 f9 6f 85 30 ff ff 	vmovdqa -0xd0(%rbp),%xmm0
    1856:	ff 
    1857:	c5 f1 d4 c0          	vpaddq %xmm0,%xmm1,%xmm0
    185b:	90                   	nop
    185c:	c5 79 6f c8          	vmovdqa %xmm0,%xmm9
    1860:	48 83 c3 04          	add    $0x4,%rbx
    1864:	48 8d 4b 03          	lea    0x3(%rbx),%rcx
    1868:	48 39 ca             	cmp    %rcx,%rdx
    186b:	0f 83 bc fe ff ff    	jae    172d <dotproduct_simdi+0x37>
    1871:	c5 79 7f c6          	vmovdqa %xmm8,%xmm6
    1875:	c5 f9 7f 75 c0       	vmovdqa %xmm6,-0x40(%rbp)
    187a:	c5 79 7f cf          	vmovdqa %xmm9,%xmm7
    187e:	c5 f9 7f 7d d0       	vmovdqa %xmm7,-0x30(%rbp)
    1883:	c5 f9 6f 4d c0       	vmovdqa -0x40(%rbp),%xmm1
    1888:	c5 f9 6f 45 d0       	vmovdqa -0x30(%rbp),%xmm0
    188d:	c5 f1 d4 c0          	vpaddq %xmm0,%xmm1,%xmm0
    1891:	c5 f9 6f e0          	vmovdqa %xmm0,%xmm4
    1895:	4c 8b 00             	mov    (%rax),%r8
    1898:	c4 c1 f9 7e e1       	vmovq  %xmm4,%r9
    189d:	c4 e3 f9 16 e1 01    	vpextrq $0x1,%xmm4,%rcx
    18a3:	4c 01 c9             	add    %r9,%rcx
    18a6:	4c 01 c1             	add    %r8,%rcx
    18a9:	48 89 08             	mov    %rcx,(%rax)
    18ac:	eb 30                	jmp    18de <dotproduct_simdi+0x1e8>
    18ae:	4c 8b 08             	mov    (%rax),%r9
    18b1:	48 8d 0c 9d 00 00 00 	lea    0x0(,%rbx,4),%rcx
    18b8:	00 
    18b9:	48 01 f9             	add    %rdi,%rcx
    18bc:	8b 09                	mov    (%rcx),%ecx
    18be:	4c 63 c1             	movslq %ecx,%r8
    18c1:	48 8d 0c 9d 00 00 00 	lea    0x0(,%rbx,4),%rcx
    18c8:	00 
    18c9:	48 01 f1             	add    %rsi,%rcx
    18cc:	8b 09                	mov    (%rcx),%ecx
    18ce:	48 63 c9             	movslq %ecx,%rcx
    18d1:	49 0f af c8          	imul   %r8,%rcx
    18d5:	4c 01 c9             	add    %r9,%rcx
    18d8:	48 89 08             	mov    %rcx,(%rax)
    18db:	48 ff c3             	inc    %rbx
    18de:	48 39 d3             	cmp    %rdx,%rbx
    18e1:	72 cb                	jb     18ae <dotproduct_simdi+0x1b8>
    18e3:	90                   	nop
    18e4:	90                   	nop
    18e5:	48 83 c4 70          	add    $0x70,%rsp
    18e9:	5b                   	pop    %rbx
    18ea:	41 5c                	pop    %r12
    18ec:	41 5d                	pop    %r13
    18ee:	5d                   	pop    %rbp
    18ef:	c3                   	ret    

00000000000018f0 <dotproduct_simdf>:
    18f0:	f3 0f 1e fa          	endbr64 
    18f4:	55                   	push   %rbp
    18f5:	48 89 e5             	mov    %rsp,%rbp
    18f8:	53                   	push   %rbx
    18f9:	48 81 ec c8 00 00 00 	sub    $0xc8,%rsp
    1900:	48 89 d0             	mov    %rdx,%rax
    1903:	48 89 ca             	mov    %rcx,%rdx
    1906:	64 48 8b 0c 25 28 00 	mov    %fs:0x28,%rcx
    190d:	00 00 
    190f:	48 89 4d e8          	mov    %rcx,-0x18(%rbp)
    1913:	31 c9                	xor    %ecx,%ecx
    1915:	c5 f9 57 c0          	vxorpd %xmm0,%xmm0,%xmm0
    1919:	c5 f9 28 e8          	vmovapd %xmm0,%xmm5
    191d:	c5 f9 57 c0          	vxorpd %xmm0,%xmm0,%xmm0
    1921:	c5 f9 28 f0          	vmovapd %xmm0,%xmm6
    1925:	bb 00 00 00 00       	mov    $0x0,%ebx
    192a:	eb 7e                	jmp    19aa <dotproduct_simdf+0xba>
    192c:	48 8d 0c dd 00 00 00 	lea    0x0(,%rbx,8),%rcx
    1933:	00 
    1934:	48 01 f9             	add    %rdi,%rcx
    1937:	48 89 8d 48 ff ff ff 	mov    %rcx,-0xb8(%rbp)
    193e:	48 8b 8d 48 ff ff ff 	mov    -0xb8(%rbp),%rcx
    1945:	c5 f9 10 01          	vmovupd (%rcx),%xmm0
    1949:	c5 f9 28 d8          	vmovapd %xmm0,%xmm3
    194d:	48 8d 0c dd 00 00 00 	lea    0x0(,%rbx,8),%rcx
    1954:	00 
    1955:	48 01 f1             	add    %rsi,%rcx
    1958:	48 89 8d 40 ff ff ff 	mov    %rcx,-0xc0(%rbp)
    195f:	48 8b 8d 40 ff ff ff 	mov    -0xc0(%rbp),%rcx
    1966:	c5 f9 10 01          	vmovupd (%rcx),%xmm0
    196a:	c5 f9 29 5d 80       	vmovapd %xmm3,-0x80(%rbp)
    196f:	c5 f9 29 45 90       	vmovapd %xmm0,-0x70(%rbp)
    1974:	c5 f9 28 45 80       	vmovapd -0x80(%rbp),%xmm0
    1979:	c5 f9 59 45 90       	vmulpd -0x70(%rbp),%xmm0,%xmm0
    197e:	c5 f9 28 e5          	vmovapd %xmm5,%xmm4
    1982:	c5 f9 29 a5 60 ff ff 	vmovapd %xmm4,-0xa0(%rbp)
    1989:	ff 
    198a:	c5 f9 29 85 70 ff ff 	vmovapd %xmm0,-0x90(%rbp)
    1991:	ff 
    1992:	c5 f9 28 85 60 ff ff 	vmovapd -0xa0(%rbp),%xmm0
    1999:	ff 
    199a:	c5 f9 58 85 70 ff ff 	vaddpd -0x90(%rbp),%xmm0,%xmm0
    19a1:	ff 
    19a2:	c5 f9 28 e8          	vmovapd %xmm0,%xmm5
    19a6:	48 83 c3 02          	add    $0x2,%rbx
    19aa:	48 8d 4b 01          	lea    0x1(%rbx),%rcx
    19ae:	48 39 ca             	cmp    %rcx,%rdx
    19b1:	0f 83 75 ff ff ff    	jae    192c <dotproduct_simdf+0x3c>
    19b7:	c5 f9 29 6d c0       	vmovapd %xmm5,-0x40(%rbp)
    19bc:	c5 f9 29 75 d0       	vmovapd %xmm6,-0x30(%rbp)
    19c1:	c5 f9 28 45 c0       	vmovapd -0x40(%rbp),%xmm0
    19c6:	c5 f9 58 45 d0       	vaddpd -0x30(%rbp),%xmm0,%xmm0
    19cb:	c5 f9 28 d0          	vmovapd %xmm0,%xmm2
    19cf:	c5 f9 29 95 50 ff ff 	vmovapd %xmm2,-0xb0(%rbp)
    19d6:	ff 
    19d7:	c5 fb 10 8d 50 ff ff 	vmovsd -0xb0(%rbp),%xmm1
    19de:	ff 
    19df:	c5 f9 29 55 a0       	vmovapd %xmm2,-0x60(%rbp)
    19e4:	c5 f9 29 55 b0       	vmovapd %xmm2,-0x50(%rbp)
    19e9:	c5 f9 28 45 b0       	vmovapd -0x50(%rbp),%xmm0
    19ee:	c5 f9 12 45 a8       	vmovlpd -0x58(%rbp),%xmm0,%xmm0
    19f3:	90                   	nop
    19f4:	c5 f9 29 85 50 ff ff 	vmovapd %xmm0,-0xb0(%rbp)
    19fb:	ff 
    19fc:	c5 fb 10 85 50 ff ff 	vmovsd -0xb0(%rbp),%xmm0
    1a03:	ff 
    1a04:	c5 f3 58 f8          	vaddsd %xmm0,%xmm1,%xmm7
    1a08:	c5 fb 11 bd 38 ff ff 	vmovsd %xmm7,-0xc8(%rbp)
    1a0f:	ff 
    1a10:	db 28                	fldt   (%rax)
    1a12:	dd 85 38 ff ff ff    	fldl   -0xc8(%rbp)
    1a18:	de c1                	faddp  %st,%st(1)
    1a1a:	db 38                	fstpt  (%rax)
    1a1c:	eb 39                	jmp    1a57 <dotproduct_simdf+0x167>
    1a1e:	db 28                	fldt   (%rax)
    1a20:	48 8d 0c dd 00 00 00 	lea    0x0(,%rbx,8),%rcx
    1a27:	00 
    1a28:	48 01 f9             	add    %rdi,%rcx
    1a2b:	c5 fb 10 09          	vmovsd (%rcx),%xmm1
    1a2f:	48 8d 0c dd 00 00 00 	lea    0x0(,%rbx,8),%rcx
    1a36:	00 
    1a37:	48 01 f1             	add    %rsi,%rcx
    1a3a:	c5 fb 10 01          	vmovsd (%rcx),%xmm0
    1a3e:	c5 f3 59 e0          	vmulsd %xmm0,%xmm1,%xmm4
    1a42:	c5 fb 11 a5 38 ff ff 	vmovsd %xmm4,-0xc8(%rbp)
    1a49:	ff 
    1a4a:	dd 85 38 ff ff ff    	fldl   -0xc8(%rbp)
    1a50:	de c1                	faddp  %st,%st(1)
    1a52:	db 38                	fstpt  (%rax)
    1a54:	48 ff c3             	inc    %rbx
    1a57:	48 39 d3             	cmp    %rdx,%rbx
    1a5a:	72 c2                	jb     1a1e <dotproduct_simdf+0x12e>
    1a5c:	90                   	nop
    1a5d:	48 8b 45 e8          	mov    -0x18(%rbp),%rax
    1a61:	64 48 2b 04 25 28 00 	sub    %fs:0x28,%rax
    1a68:	00 00 
    1a6a:	74 05                	je     1a71 <dotproduct_simdf+0x181>
    1a6c:	e8 00 00 00 00       	call   1a71 <dotproduct_simdf+0x181>
    1a71:	48 8b 5d f8          	mov    -0x8(%rbp),%rbx
    1a75:	c9                   	leave  
    1a76:	c3                   	ret    

0000000000001a77 <main>:
    1a77:	f3 0f 1e fa          	endbr64 
    1a7b:	55                   	push   %rbp
    1a7c:	48 89 e5             	mov    %rsp,%rbp
    1a7f:	48 81 ec d0 00 00 00 	sub    $0xd0,%rsp
    1a86:	89 bd 3c ff ff ff    	mov    %edi,-0xc4(%rbp)
    1a8c:	48 89 b5 30 ff ff ff 	mov    %rsi,-0xd0(%rbp)
    1a93:	64 48 8b 04 25 28 00 	mov    %fs:0x28,%rax
    1a9a:	00 00 
    1a9c:	48 89 45 f8          	mov    %rax,-0x8(%rbp)
    1aa0:	31 c0                	xor    %eax,%eax
    1aa2:	bf 00 00 00 00       	mov    $0x0,%edi
    1aa7:	e8 00 00 00 00       	call   1aac <main+0x35>
    1aac:	89 c7                	mov    %eax,%edi
    1aae:	e8 00 00 00 00       	call   1ab3 <main+0x3c>
    1ab3:	83 bd 3c ff ff ff 02 	cmpl   $0x2,-0xc4(%rbp)
    1aba:	7f 32                	jg     1aee <main+0x77>
    1abc:	48 8b 85 30 ff ff ff 	mov    -0xd0(%rbp),%rax
    1ac3:	48 8b 10             	mov    (%rax),%rdx
    1ac6:	48 8b 05 00 00 00 00 	mov    0x0(%rip),%rax        # 1acd <main+0x56>
    1acd:	48 8d 0d 00 00 00 00 	lea    0x0(%rip),%rcx        # 1ad4 <main+0x5d>
    1ad4:	48 89 ce             	mov    %rcx,%rsi
    1ad7:	48 89 c7             	mov    %rax,%rdi
    1ada:	b8 00 00 00 00       	mov    $0x0,%eax
    1adf:	e8 00 00 00 00       	call   1ae4 <main+0x6d>
    1ae4:	b8 01 00 00 00       	mov    $0x1,%eax
    1ae9:	e9 fa 08 00 00       	jmp    23e8 <main+0x971>
    1aee:	48 8b 85 30 ff ff ff 	mov    -0xd0(%rbp),%rax
    1af5:	48 83 c0 08          	add    $0x8,%rax
    1af9:	48 8b 00             	mov    (%rax),%rax
    1afc:	48 89 c7             	mov    %rax,%rdi
    1aff:	e8 00 00 00 00       	call   1b04 <main+0x8d>
    1b04:	48 89 85 60 ff ff ff 	mov    %rax,-0xa0(%rbp)
    1b0b:	48 8b 85 30 ff ff ff 	mov    -0xd0(%rbp),%rax
    1b12:	48 8b 40 10          	mov    0x10(%rax),%rax
    1b16:	48 89 85 68 ff ff ff 	mov    %rax,-0x98(%rbp)
    1b1d:	48 8b 85 68 ff ff ff 	mov    -0x98(%rbp),%rax
    1b24:	48 8d 15 00 00 00 00 	lea    0x0(%rip),%rdx        # 1b2b <main+0xb4>
    1b2b:	48 89 d6             	mov    %rdx,%rsi
    1b2e:	48 89 c7             	mov    %rax,%rdi
    1b31:	e8 00 00 00 00       	call   1b36 <main+0xbf>
    1b36:	85 c0                	test   %eax,%eax
    1b38:	0f 85 f1 03 00 00    	jne    1f2f <main+0x4b8>
    1b3e:	48 8b 85 60 ff ff ff 	mov    -0xa0(%rbp),%rax
    1b45:	48 c1 e0 02          	shl    $0x2,%rax
    1b49:	48 89 c7             	mov    %rax,%rdi
    1b4c:	e8 00 00 00 00       	call   1b51 <main+0xda>
    1b51:	48 89 45 98          	mov    %rax,-0x68(%rbp)
    1b55:	48 83 7d 98 00       	cmpq   $0x0,-0x68(%rbp)
    1b5a:	75 2d                	jne    1b89 <main+0x112>
    1b5c:	48 8b 05 00 00 00 00 	mov    0x0(%rip),%rax        # 1b63 <main+0xec>
    1b63:	48 89 c1             	mov    %rax,%rcx
    1b66:	ba 20 00 00 00       	mov    $0x20,%edx
    1b6b:	be 01 00 00 00       	mov    $0x1,%esi
    1b70:	48 8d 05 00 00 00 00 	lea    0x0(%rip),%rax        # 1b77 <main+0x100>
    1b77:	48 89 c7             	mov    %rax,%rdi
    1b7a:	e8 00 00 00 00       	call   1b7f <main+0x108>
    1b7f:	bf 01 00 00 00       	mov    $0x1,%edi
    1b84:	e8 00 00 00 00       	call   1b89 <main+0x112>
    1b89:	48 8b 85 60 ff ff ff 	mov    -0xa0(%rbp),%rax
    1b90:	48 8d 14 85 00 00 00 	lea    0x0(,%rax,4),%rdx
    1b97:	00 
    1b98:	48 8b 45 98          	mov    -0x68(%rbp),%rax
    1b9c:	be 00 00 00 00       	mov    $0x0,%esi
    1ba1:	48 89 c7             	mov    %rax,%rdi
    1ba4:	e8 00 00 00 00       	call   1ba9 <main+0x132>
    1ba9:	48 8b 85 60 ff ff ff 	mov    -0xa0(%rbp),%rax
    1bb0:	48 c1 e0 02          	shl    $0x2,%rax
    1bb4:	48 89 c7             	mov    %rax,%rdi
    1bb7:	e8 00 00 00 00       	call   1bbc <main+0x145>
    1bbc:	48 89 45 a0          	mov    %rax,-0x60(%rbp)
    1bc0:	48 83 7d a0 00       	cmpq   $0x0,-0x60(%rbp)
    1bc5:	75 2d                	jne    1bf4 <main+0x17d>
    1bc7:	48 8b 05 00 00 00 00 	mov    0x0(%rip),%rax        # 1bce <main+0x157>
    1bce:	48 89 c1             	mov    %rax,%rcx
    1bd1:	ba 20 00 00 00       	mov    $0x20,%edx
    1bd6:	be 01 00 00 00       	mov    $0x1,%esi
    1bdb:	48 8d 05 00 00 00 00 	lea    0x0(%rip),%rax        # 1be2 <main+0x16b>
    1be2:	48 89 c7             	mov    %rax,%rdi
    1be5:	e8 00 00 00 00       	call   1bea <main+0x173>
    1bea:	bf 01 00 00 00       	mov    $0x1,%edi
    1bef:	e8 00 00 00 00       	call   1bf4 <main+0x17d>
    1bf4:	48 8b 85 60 ff ff ff 	mov    -0xa0(%rbp),%rax
    1bfb:	48 8d 14 85 00 00 00 	lea    0x0(,%rax,4),%rdx
    1c02:	00 
    1c03:	48 8b 45 a0          	mov    -0x60(%rbp),%rax
    1c07:	be 00 00 00 00       	mov    $0x0,%esi
    1c0c:	48 89 c7             	mov    %rax,%rdi
    1c0f:	e8 00 00 00 00       	call   1c14 <main+0x19d>
    1c14:	48 c7 45 c0 00 00 00 	movq   $0x0,-0x40(%rbp)
    1c1b:	00 
    1c1c:	48 c7 85 40 ff ff ff 	movq   $0x0,-0xc0(%rbp)
    1c23:	00 00 00 00 
    1c27:	eb 34                	jmp    1c5d <main+0x1e6>
    1c29:	e8 00 00 00 00       	call   1c2e <main+0x1b7>
    1c2e:	99                   	cltd   
    1c2f:	c1 ea 1e             	shr    $0x1e,%edx
    1c32:	01 d0                	add    %edx,%eax
    1c34:	83 e0 03             	and    $0x3,%eax
    1c37:	29 d0                	sub    %edx,%eax
    1c39:	89 c1                	mov    %eax,%ecx
    1c3b:	48 8b 85 40 ff ff ff 	mov    -0xc0(%rbp),%rax
    1c42:	48 8d 14 85 00 00 00 	lea    0x0(,%rax,4),%rdx
    1c49:	00 
    1c4a:	48 8b 45 98          	mov    -0x68(%rbp),%rax
    1c4e:	48 01 d0             	add    %rdx,%rax
    1c51:	8d 51 fe             	lea    -0x2(%rcx),%edx
    1c54:	89 10                	mov    %edx,(%rax)
    1c56:	48 ff 85 40 ff ff ff 	incq   -0xc0(%rbp)
    1c5d:	48 8b 85 40 ff ff ff 	mov    -0xc0(%rbp),%rax
    1c64:	48 3b 85 60 ff ff ff 	cmp    -0xa0(%rbp),%rax
    1c6b:	72 bc                	jb     1c29 <main+0x1b2>
    1c6d:	48 c7 85 48 ff ff ff 	movq   $0x0,-0xb8(%rbp)
    1c74:	00 00 00 00 
    1c78:	eb 34                	jmp    1cae <main+0x237>
    1c7a:	e8 00 00 00 00       	call   1c7f <main+0x208>
    1c7f:	99                   	cltd   
    1c80:	c1 ea 1e             	shr    $0x1e,%edx
    1c83:	01 d0                	add    %edx,%eax
    1c85:	83 e0 03             	and    $0x3,%eax
    1c88:	29 d0                	sub    %edx,%eax
    1c8a:	89 c1                	mov    %eax,%ecx
    1c8c:	48 8b 85 48 ff ff ff 	mov    -0xb8(%rbp),%rax
    1c93:	48 8d 14 85 00 00 00 	lea    0x0(,%rax,4),%rdx
    1c9a:	00 
    1c9b:	48 8b 45 a0          	mov    -0x60(%rbp),%rax
    1c9f:	48 01 d0             	add    %rdx,%rax
    1ca2:	8d 51 fe             	lea    -0x2(%rcx),%edx
    1ca5:	89 10                	mov    %edx,(%rax)
    1ca7:	48 ff 85 48 ff ff ff 	incq   -0xb8(%rbp)
    1cae:	48 8b 85 48 ff ff ff 	mov    -0xb8(%rbp),%rax
    1cb5:	48 3b 85 60 ff ff ff 	cmp    -0xa0(%rbp),%rax
    1cbc:	72 bc                	jb     1c7a <main+0x203>
    1cbe:	48 8d 05 00 00 00 00 	lea    0x0(%rip),%rax        # 1cc5 <main+0x24e>
    1cc5:	48 89 c7             	mov    %rax,%rdi
    1cc8:	e8 00 00 00 00       	call   1ccd <main+0x256>
    1ccd:	48 8d 45 d0          	lea    -0x30(%rbp),%rax
    1cd1:	48 89 c6             	mov    %rax,%rsi
    1cd4:	bf 02 00 00 00       	mov    $0x2,%edi
    1cd9:	e8 00 00 00 00       	call   1cde <main+0x267>
    1cde:	48 8b 95 60 ff ff ff 	mov    -0xa0(%rbp),%rdx
    1ce5:	48 8d 45 c0          	lea    -0x40(%rbp),%rax
    1ce9:	48 8b 75 a0          	mov    -0x60(%rbp),%rsi
    1ced:	48 8b 7d 98          	mov    -0x68(%rbp),%rdi
    1cf1:	48 89 d1             	mov    %rdx,%rcx
    1cf4:	48 89 c2             	mov    %rax,%rdx
    1cf7:	e8 00 00 00 00       	call   1cfc <main+0x285>
    1cfc:	48 8d 45 e0          	lea    -0x20(%rbp),%rax
    1d00:	48 89 c6             	mov    %rax,%rsi
    1d03:	bf 02 00 00 00       	mov    $0x2,%edi
    1d08:	e8 00 00 00 00       	call   1d0d <main+0x296>
    1d0d:	48 8b 45 e0          	mov    -0x20(%rbp),%rax
    1d11:	48 8b 55 d0          	mov    -0x30(%rbp),%rdx
    1d15:	48 29 d0             	sub    %rdx,%rax
    1d18:	c4 e1 f3 2a c8       	vcvtsi2sd %rax,%xmm1,%xmm1
    1d1d:	48 8b 45 e8          	mov    -0x18(%rbp),%rax
    1d21:	48 8b 55 d8          	mov    -0x28(%rbp),%rdx
    1d25:	48 29 d0             	sub    %rdx,%rax
    1d28:	c4 e1 fb 2a c0       	vcvtsi2sd %rax,%xmm0,%xmm0
    1d2d:	c5 fb 10 15 00 00 00 	vmovsd 0x0(%rip),%xmm2        # 1d35 <main+0x2be>
    1d34:	00 
    1d35:	c5 fb 5e c2          	vdivsd %xmm2,%xmm0,%xmm0
    1d39:	c5 f3 58 c0          	vaddsd %xmm0,%xmm1,%xmm0
    1d3d:	c5 fb 11 45 a8       	vmovsd %xmm0,-0x58(%rbp)
    1d42:	48 8b 45 a8          	mov    -0x58(%rbp),%rax
    1d46:	c4 e1 f9 6e c0       	vmovq  %rax,%xmm0
    1d4b:	48 8d 05 00 00 00 00 	lea    0x0(%rip),%rax        # 1d52 <main+0x2db>
    1d52:	48 89 c7             	mov    %rax,%rdi
    1d55:	b8 01 00 00 00       	mov    $0x1,%eax
    1d5a:	e8 00 00 00 00       	call   1d5f <main+0x2e8>
    1d5f:	48 8b 45 c0          	mov    -0x40(%rbp),%rax
    1d63:	48 89 c6             	mov    %rax,%rsi
    1d66:	48 8d 05 00 00 00 00 	lea    0x0(%rip),%rax        # 1d6d <main+0x2f6>
    1d6d:	48 89 c7             	mov    %rax,%rdi
    1d70:	b8 00 00 00 00       	mov    $0x0,%eax
    1d75:	e8 00 00 00 00       	call   1d7a <main+0x303>
    1d7a:	48 c7 45 c0 00 00 00 	movq   $0x0,-0x40(%rbp)
    1d81:	00 
    1d82:	48 8d 05 00 00 00 00 	lea    0x0(%rip),%rax        # 1d89 <main+0x312>
    1d89:	48 89 c7             	mov    %rax,%rdi
    1d8c:	e8 00 00 00 00       	call   1d91 <main+0x31a>
    1d91:	48 8d 45 d0          	lea    -0x30(%rbp),%rax
    1d95:	48 89 c6             	mov    %rax,%rsi
    1d98:	bf 02 00 00 00       	mov    $0x2,%edi
    1d9d:	e8 00 00 00 00       	call   1da2 <main+0x32b>
    1da2:	48 8b 95 60 ff ff ff 	mov    -0xa0(%rbp),%rdx
    1da9:	48 8d 45 c0          	lea    -0x40(%rbp),%rax
    1dad:	48 8b 75 a0          	mov    -0x60(%rbp),%rsi
    1db1:	48 8b 7d 98          	mov    -0x68(%rbp),%rdi
    1db5:	48 89 d1             	mov    %rdx,%rcx
    1db8:	48 89 c2             	mov    %rax,%rdx
    1dbb:	e8 00 00 00 00       	call   1dc0 <main+0x349>
    1dc0:	48 8d 45 e0          	lea    -0x20(%rbp),%rax
    1dc4:	48 89 c6             	mov    %rax,%rsi
    1dc7:	bf 02 00 00 00       	mov    $0x2,%edi
    1dcc:	e8 00 00 00 00       	call   1dd1 <main+0x35a>
    1dd1:	48 8b 45 e0          	mov    -0x20(%rbp),%rax
    1dd5:	48 8b 55 d0          	mov    -0x30(%rbp),%rdx
    1dd9:	48 29 d0             	sub    %rdx,%rax
    1ddc:	c4 e1 f3 2a c8       	vcvtsi2sd %rax,%xmm1,%xmm1
    1de1:	48 8b 45 e8          	mov    -0x18(%rbp),%rax
    1de5:	48 8b 55 d8          	mov    -0x28(%rbp),%rdx
    1de9:	48 29 d0             	sub    %rdx,%rax
    1dec:	c4 e1 fb 2a c0       	vcvtsi2sd %rax,%xmm0,%xmm0
    1df1:	c5 fb 10 15 00 00 00 	vmovsd 0x0(%rip),%xmm2        # 1df9 <main+0x382>
    1df8:	00 
    1df9:	c5 fb 5e c2          	vdivsd %xmm2,%xmm0,%xmm0
    1dfd:	c5 f3 58 c0          	vaddsd %xmm0,%xmm1,%xmm0
    1e01:	c5 fb 11 45 b0       	vmovsd %xmm0,-0x50(%rbp)
    1e06:	48 8b 45 b0          	mov    -0x50(%rbp),%rax
    1e0a:	c4 e1 f9 6e c0       	vmovq  %rax,%xmm0
    1e0f:	48 8d 05 00 00 00 00 	lea    0x0(%rip),%rax        # 1e16 <main+0x39f>
    1e16:	48 89 c7             	mov    %rax,%rdi
    1e19:	b8 01 00 00 00       	mov    $0x1,%eax
    1e1e:	e8 00 00 00 00       	call   1e23 <main+0x3ac>
    1e23:	48 8b 45 c0          	mov    -0x40(%rbp),%rax
    1e27:	48 89 c6             	mov    %rax,%rsi
    1e2a:	48 8d 05 00 00 00 00 	lea    0x0(%rip),%rax        # 1e31 <main+0x3ba>
    1e31:	48 89 c7             	mov    %rax,%rdi
    1e34:	b8 00 00 00 00       	mov    $0x0,%eax
    1e39:	e8 00 00 00 00       	call   1e3e <main+0x3c7>
    1e3e:	48 c7 45 c0 00 00 00 	movq   $0x0,-0x40(%rbp)
    1e45:	00 
    1e46:	48 8d 05 00 00 00 00 	lea    0x0(%rip),%rax        # 1e4d <main+0x3d6>
    1e4d:	48 89 c7             	mov    %rax,%rdi
    1e50:	e8 00 00 00 00       	call   1e55 <main+0x3de>
    1e55:	48 8d 45 d0          	lea    -0x30(%rbp),%rax
    1e59:	48 89 c6             	mov    %rax,%rsi
    1e5c:	bf 02 00 00 00       	mov    $0x2,%edi
    1e61:	e8 00 00 00 00       	call   1e66 <main+0x3ef>
    1e66:	48 8b 95 60 ff ff ff 	mov    -0xa0(%rbp),%rdx
    1e6d:	48 8d 45 c0          	lea    -0x40(%rbp),%rax
    1e71:	48 8b 75 a0          	mov    -0x60(%rbp),%rsi
    1e75:	48 8b 7d 98          	mov    -0x68(%rbp),%rdi
    1e79:	48 89 d1             	mov    %rdx,%rcx
    1e7c:	48 89 c2             	mov    %rax,%rdx
    1e7f:	e8 00 00 00 00       	call   1e84 <main+0x40d>
    1e84:	48 8d 45 e0          	lea    -0x20(%rbp),%rax
    1e88:	48 89 c6             	mov    %rax,%rsi
    1e8b:	bf 02 00 00 00       	mov    $0x2,%edi
    1e90:	e8 00 00 00 00       	call   1e95 <main+0x41e>
    1e95:	48 8b 45 e0          	mov    -0x20(%rbp),%rax
    1e99:	48 8b 55 d0          	mov    -0x30(%rbp),%rdx
    1e9d:	48 29 d0             	sub    %rdx,%rax
    1ea0:	c4 e1 f3 2a c8       	vcvtsi2sd %rax,%xmm1,%xmm1
    1ea5:	48 8b 45 e8          	mov    -0x18(%rbp),%rax
    1ea9:	48 8b 55 d8          	mov    -0x28(%rbp),%rdx
    1ead:	48 29 d0             	sub    %rdx,%rax
    1eb0:	c4 e1 fb 2a c0       	vcvtsi2sd %rax,%xmm0,%xmm0
    1eb5:	c5 fb 10 15 00 00 00 	vmovsd 0x0(%rip),%xmm2        # 1ebd <main+0x446>
    1ebc:	00 
    1ebd:	c5 fb 5e c2          	vdivsd %xmm2,%xmm0,%xmm0
    1ec1:	c5 f3 58 c0          	vaddsd %xmm0,%xmm1,%xmm0
    1ec5:	c5 fb 11 45 b8       	vmovsd %xmm0,-0x48(%rbp)
    1eca:	48 8b 45 b8          	mov    -0x48(%rbp),%rax
    1ece:	c4 e1 f9 6e c0       	vmovq  %rax,%xmm0
    1ed3:	48 8d 05 00 00 00 00 	lea    0x0(%rip),%rax        # 1eda <main+0x463>
    1eda:	48 89 c7             	mov    %rax,%rdi
    1edd:	b8 01 00 00 00       	mov    $0x1,%eax
    1ee2:	e8 00 00 00 00       	call   1ee7 <main+0x470>
    1ee7:	48 8b 45 c0          	mov    -0x40(%rbp),%rax
    1eeb:	48 89 c6             	mov    %rax,%rsi
    1eee:	48 8d 05 00 00 00 00 	lea    0x0(%rip),%rax        # 1ef5 <main+0x47e>
    1ef5:	48 89 c7             	mov    %rax,%rdi
    1ef8:	b8 00 00 00 00       	mov    $0x0,%eax
    1efd:	e8 00 00 00 00       	call   1f02 <main+0x48b>
    1f02:	48 8b 45 98          	mov    -0x68(%rbp),%rax
    1f06:	48 89 c7             	mov    %rax,%rdi
    1f09:	e8 00 00 00 00       	call   1f0e <main+0x497>
    1f0e:	48 c7 45 98 00 00 00 	movq   $0x0,-0x68(%rbp)
    1f15:	00 
    1f16:	48 8b 45 a0          	mov    -0x60(%rbp),%rax
    1f1a:	48 89 c7             	mov    %rax,%rdi
    1f1d:	e8 00 00 00 00       	call   1f22 <main+0x4ab>
    1f22:	48 c7 45 a0 00 00 00 	movq   $0x0,-0x60(%rbp)
    1f29:	00 
    1f2a:	e9 b4 04 00 00       	jmp    23e3 <main+0x96c>
    1f2f:	48 8b 85 68 ff ff ff 	mov    -0x98(%rbp),%rax
    1f36:	48 8d 15 00 00 00 00 	lea    0x0(%rip),%rdx        # 1f3d <main+0x4c6>
    1f3d:	48 89 d6             	mov    %rdx,%rsi
    1f40:	48 89 c7             	mov    %rax,%rdi
    1f43:	e8 00 00 00 00       	call   1f48 <main+0x4d1>
    1f48:	85 c0                	test   %eax,%eax
    1f4a:	0f 85 67 04 00 00    	jne    23b7 <main+0x940>
    1f50:	48 8b 85 60 ff ff ff 	mov    -0xa0(%rbp),%rax
    1f57:	48 c1 e0 03          	shl    $0x3,%rax
    1f5b:	48 89 c7             	mov    %rax,%rdi
    1f5e:	e8 00 00 00 00       	call   1f63 <main+0x4ec>
    1f63:	48 89 85 70 ff ff ff 	mov    %rax,-0x90(%rbp)
    1f6a:	48 83 bd 70 ff ff ff 	cmpq   $0x0,-0x90(%rbp)
    1f71:	00 
    1f72:	75 2d                	jne    1fa1 <main+0x52a>
    1f74:	48 8b 05 00 00 00 00 	mov    0x0(%rip),%rax        # 1f7b <main+0x504>
    1f7b:	48 89 c1             	mov    %rax,%rcx
    1f7e:	ba 20 00 00 00       	mov    $0x20,%edx
    1f83:	be 01 00 00 00       	mov    $0x1,%esi
    1f88:	48 8d 05 00 00 00 00 	lea    0x0(%rip),%rax        # 1f8f <main+0x518>
    1f8f:	48 89 c7             	mov    %rax,%rdi
    1f92:	e8 00 00 00 00       	call   1f97 <main+0x520>
    1f97:	bf 01 00 00 00       	mov    $0x1,%edi
    1f9c:	e8 00 00 00 00       	call   1fa1 <main+0x52a>
    1fa1:	48 8b 85 60 ff ff ff 	mov    -0xa0(%rbp),%rax
    1fa8:	48 8d 14 c5 00 00 00 	lea    0x0(,%rax,8),%rdx
    1faf:	00 
    1fb0:	48 8b 85 70 ff ff ff 	mov    -0x90(%rbp),%rax
    1fb7:	be 00 00 00 00       	mov    $0x0,%esi
    1fbc:	48 89 c7             	mov    %rax,%rdi
    1fbf:	e8 00 00 00 00       	call   1fc4 <main+0x54d>
    1fc4:	48 8b 85 60 ff ff ff 	mov    -0xa0(%rbp),%rax
    1fcb:	48 c1 e0 03          	shl    $0x3,%rax
    1fcf:	48 89 c7             	mov    %rax,%rdi
    1fd2:	e8 00 00 00 00       	call   1fd7 <main+0x560>
    1fd7:	48 89 85 78 ff ff ff 	mov    %rax,-0x88(%rbp)
    1fde:	48 83 bd 78 ff ff ff 	cmpq   $0x0,-0x88(%rbp)
    1fe5:	00 
    1fe6:	75 2d                	jne    2015 <main+0x59e>
    1fe8:	48 8b 05 00 00 00 00 	mov    0x0(%rip),%rax        # 1fef <main+0x578>
    1fef:	48 89 c1             	mov    %rax,%rcx
    1ff2:	ba 20 00 00 00       	mov    $0x20,%edx
    1ff7:	be 01 00 00 00       	mov    $0x1,%esi
    1ffc:	48 8d 05 00 00 00 00 	lea    0x0(%rip),%rax        # 2003 <main+0x58c>
    2003:	48 89 c7             	mov    %rax,%rdi
    2006:	e8 00 00 00 00       	call   200b <main+0x594>
    200b:	bf 01 00 00 00       	mov    $0x1,%edi
    2010:	e8 00 00 00 00       	call   2015 <main+0x59e>
    2015:	48 8b 85 60 ff ff ff 	mov    -0xa0(%rbp),%rax
    201c:	48 8d 14 c5 00 00 00 	lea    0x0(,%rax,8),%rdx
    2023:	00 
    2024:	48 8b 85 78 ff ff ff 	mov    -0x88(%rbp),%rax
    202b:	be 00 00 00 00       	mov    $0x0,%esi
    2030:	48 89 c7             	mov    %rax,%rdi
    2033:	e8 00 00 00 00       	call   2038 <main+0x5c1>
    2038:	d9 ee                	fldz   
    203a:	db 7d c0             	fstpt  -0x40(%rbp)
    203d:	48 c7 85 50 ff ff ff 	movq   $0x0,-0xb0(%rbp)
    2044:	00 00 00 00 
    2048:	eb 51                	jmp    209b <main+0x624>
    204a:	e8 00 00 00 00       	call   204f <main+0x5d8>
    204f:	c5 fb 2a c0          	vcvtsi2sd %eax,%xmm0,%xmm0
    2053:	c5 fb 10 0d 00 00 00 	vmovsd 0x0(%rip),%xmm1        # 205b <main+0x5e4>
    205a:	00 
    205b:	c5 fb 5e c1          	vdivsd %xmm1,%xmm0,%xmm0
    205f:	c5 fb 10 0d 00 00 00 	vmovsd 0x0(%rip),%xmm1        # 2067 <main+0x5f0>
    2066:	00 
    2067:	c5 fb 59 c1          	vmulsd %xmm1,%xmm0,%xmm0
    206b:	48 8b 85 50 ff ff ff 	mov    -0xb0(%rbp),%rax
    2072:	48 8d 14 c5 00 00 00 	lea    0x0(,%rax,8),%rdx
    2079:	00 
    207a:	48 8b 85 70 ff ff ff 	mov    -0x90(%rbp),%rax
    2081:	48 01 d0             	add    %rdx,%rax
    2084:	c5 fb 10 0d 00 00 00 	vmovsd 0x0(%rip),%xmm1        # 208c <main+0x615>
    208b:	00 
    208c:	c5 fb 5c c1          	vsubsd %xmm1,%xmm0,%xmm0
    2090:	c5 fb 11 00          	vmovsd %xmm0,(%rax)
    2094:	48 ff 85 50 ff ff ff 	incq   -0xb0(%rbp)
    209b:	48 8b 85 50 ff ff ff 	mov    -0xb0(%rbp),%rax
    20a2:	48 3b 85 60 ff ff ff 	cmp    -0xa0(%rbp),%rax
    20a9:	72 9f                	jb     204a <main+0x5d3>
    20ab:	48 c7 85 58 ff ff ff 	movq   $0x0,-0xa8(%rbp)
    20b2:	00 00 00 00 
    20b6:	eb 51                	jmp    2109 <main+0x692>
    20b8:	e8 00 00 00 00       	call   20bd <main+0x646>
    20bd:	c5 fb 2a c0          	vcvtsi2sd %eax,%xmm0,%xmm0
    20c1:	c5 fb 10 0d 00 00 00 	vmovsd 0x0(%rip),%xmm1        # 20c9 <main+0x652>
    20c8:	00 
    20c9:	c5 fb 5e c1          	vdivsd %xmm1,%xmm0,%xmm0
    20cd:	c5 fb 10 0d 00 00 00 	vmovsd 0x0(%rip),%xmm1        # 20d5 <main+0x65e>
    20d4:	00 
    20d5:	c5 fb 59 c1          	vmulsd %xmm1,%xmm0,%xmm0
    20d9:	48 8b 85 58 ff ff ff 	mov    -0xa8(%rbp),%rax
    20e0:	48 8d 14 c5 00 00 00 	lea    0x0(,%rax,8),%rdx
    20e7:	00 
    20e8:	48 8b 85 78 ff ff ff 	mov    -0x88(%rbp),%rax
    20ef:	48 01 d0             	add    %rdx,%rax
    20f2:	c5 fb 10 0d 00 00 00 	vmovsd 0x0(%rip),%xmm1        # 20fa <main+0x683>
    20f9:	00 
    20fa:	c5 fb 5c c1          	vsubsd %xmm1,%xmm0,%xmm0
    20fe:	c5 fb 11 00          	vmovsd %xmm0,(%rax)
    2102:	48 ff 85 58 ff ff ff 	incq   -0xa8(%rbp)
    2109:	48 8b 85 58 ff ff ff 	mov    -0xa8(%rbp),%rax
    2110:	48 3b 85 60 ff ff ff 	cmp    -0xa0(%rbp),%rax
    2117:	72 9f                	jb     20b8 <main+0x641>
    2119:	48 8d 05 00 00 00 00 	lea    0x0(%rip),%rax        # 2120 <main+0x6a9>
    2120:	48 89 c7             	mov    %rax,%rdi
    2123:	e8 00 00 00 00       	call   2128 <main+0x6b1>
    2128:	48 8d 45 d0          	lea    -0x30(%rbp),%rax
    212c:	48 89 c6             	mov    %rax,%rsi
    212f:	bf 02 00 00 00       	mov    $0x2,%edi
    2134:	e8 00 00 00 00       	call   2139 <main+0x6c2>
    2139:	48 8b 95 60 ff ff ff 	mov    -0xa0(%rbp),%rdx
    2140:	48 8d 45 c0          	lea    -0x40(%rbp),%rax
    2144:	48 8b b5 78 ff ff ff 	mov    -0x88(%rbp),%rsi
    214b:	48 8b bd 70 ff ff ff 	mov    -0x90(%rbp),%rdi
    2152:	48 89 d1             	mov    %rdx,%rcx
    2155:	48 89 c2             	mov    %rax,%rdx
    2158:	e8 00 00 00 00       	call   215d <main+0x6e6>
    215d:	48 8d 45 e0          	lea    -0x20(%rbp),%rax
    2161:	48 89 c6             	mov    %rax,%rsi
    2164:	bf 02 00 00 00       	mov    $0x2,%edi
    2169:	e8 00 00 00 00       	call   216e <main+0x6f7>
    216e:	48 8b 45 e0          	mov    -0x20(%rbp),%rax
    2172:	48 8b 55 d0          	mov    -0x30(%rbp),%rdx
    2176:	48 29 d0             	sub    %rdx,%rax
    2179:	c4 e1 f3 2a c8       	vcvtsi2sd %rax,%xmm1,%xmm1
    217e:	48 8b 45 e8          	mov    -0x18(%rbp),%rax
    2182:	48 8b 55 d8          	mov    -0x28(%rbp),%rdx
    2186:	48 29 d0             	sub    %rdx,%rax
    2189:	c4 e1 fb 2a c0       	vcvtsi2sd %rax,%xmm0,%xmm0
    218e:	c5 fb 10 15 00 00 00 	vmovsd 0x0(%rip),%xmm2        # 2196 <main+0x71f>
    2195:	00 
    2196:	c5 fb 5e c2          	vdivsd %xmm2,%xmm0,%xmm0
    219a:	c5 f3 58 c0          	vaddsd %xmm0,%xmm1,%xmm0
    219e:	c5 fb 11 45 80       	vmovsd %xmm0,-0x80(%rbp)
    21a3:	48 8b 45 80          	mov    -0x80(%rbp),%rax
    21a7:	c4 e1 f9 6e c0       	vmovq  %rax,%xmm0
    21ac:	48 8d 05 00 00 00 00 	lea    0x0(%rip),%rax        # 21b3 <main+0x73c>
    21b3:	48 89 c7             	mov    %rax,%rdi
    21b6:	b8 01 00 00 00       	mov    $0x1,%eax
    21bb:	e8 00 00 00 00       	call   21c0 <main+0x749>
    21c0:	db 6d c0             	fldt   -0x40(%rbp)
    21c3:	48 8d 64 24 f0       	lea    -0x10(%rsp),%rsp
    21c8:	db 3c 24             	fstpt  (%rsp)
    21cb:	48 8d 05 00 00 00 00 	lea    0x0(%rip),%rax        # 21d2 <main+0x75b>
    21d2:	48 89 c7             	mov    %rax,%rdi
    21d5:	b8 00 00 00 00       	mov    $0x0,%eax
    21da:	e8 00 00 00 00       	call   21df <main+0x768>
    21df:	48 83 c4 10          	add    $0x10,%rsp
    21e3:	d9 ee                	fldz   
    21e5:	db 7d c0             	fstpt  -0x40(%rbp)
    21e8:	48 8d 05 00 00 00 00 	lea    0x0(%rip),%rax        # 21ef <main+0x778>
    21ef:	48 89 c7             	mov    %rax,%rdi
    21f2:	e8 00 00 00 00       	call   21f7 <main+0x780>
    21f7:	48 8d 45 d0          	lea    -0x30(%rbp),%rax
    21fb:	48 89 c6             	mov    %rax,%rsi
    21fe:	bf 02 00 00 00       	mov    $0x2,%edi
    2203:	e8 00 00 00 00       	call   2208 <main+0x791>
    2208:	48 8b 95 60 ff ff ff 	mov    -0xa0(%rbp),%rdx
    220f:	48 8d 45 c0          	lea    -0x40(%rbp),%rax
    2213:	48 8b b5 78 ff ff ff 	mov    -0x88(%rbp),%rsi
    221a:	48 8b bd 70 ff ff ff 	mov    -0x90(%rbp),%rdi
    2221:	48 89 d1             	mov    %rdx,%rcx
    2224:	48 89 c2             	mov    %rax,%rdx
    2227:	e8 00 00 00 00       	call   222c <main+0x7b5>
    222c:	48 8d 45 e0          	lea    -0x20(%rbp),%rax
    2230:	48 89 c6             	mov    %rax,%rsi
    2233:	bf 02 00 00 00       	mov    $0x2,%edi
    2238:	e8 00 00 00 00       	call   223d <main+0x7c6>
    223d:	48 8b 45 e0          	mov    -0x20(%rbp),%rax
    2241:	48 8b 55 d0          	mov    -0x30(%rbp),%rdx
    2245:	48 29 d0             	sub    %rdx,%rax
    2248:	c4 e1 f3 2a c8       	vcvtsi2sd %rax,%xmm1,%xmm1
    224d:	48 8b 45 e8          	mov    -0x18(%rbp),%rax
    2251:	48 8b 55 d8          	mov    -0x28(%rbp),%rdx
    2255:	48 29 d0             	sub    %rdx,%rax
    2258:	c4 e1 fb 2a c0       	vcvtsi2sd %rax,%xmm0,%xmm0
    225d:	c5 fb 10 15 00 00 00 	vmovsd 0x0(%rip),%xmm2        # 2265 <main+0x7ee>
    2264:	00 
    2265:	c5 fb 5e c2          	vdivsd %xmm2,%xmm0,%xmm0
    2269:	c5 f3 58 c0          	vaddsd %xmm0,%xmm1,%xmm0
    226d:	c5 fb 11 45 88       	vmovsd %xmm0,-0x78(%rbp)
    2272:	48 8b 45 88          	mov    -0x78(%rbp),%rax
    2276:	c4 e1 f9 6e c0       	vmovq  %rax,%xmm0
    227b:	48 8d 05 00 00 00 00 	lea    0x0(%rip),%rax        # 2282 <main+0x80b>
    2282:	48 89 c7             	mov    %rax,%rdi
    2285:	b8 01 00 00 00       	mov    $0x1,%eax
    228a:	e8 00 00 00 00       	call   228f <main+0x818>
    228f:	db 6d c0             	fldt   -0x40(%rbp)
    2292:	48 8d 64 24 f0       	lea    -0x10(%rsp),%rsp
    2297:	db 3c 24             	fstpt  (%rsp)
    229a:	48 8d 05 00 00 00 00 	lea    0x0(%rip),%rax        # 22a1 <main+0x82a>
    22a1:	48 89 c7             	mov    %rax,%rdi
    22a4:	b8 00 00 00 00       	mov    $0x0,%eax
    22a9:	e8 00 00 00 00       	call   22ae <main+0x837>
    22ae:	48 83 c4 10          	add    $0x10,%rsp
    22b2:	d9 ee                	fldz   
    22b4:	db 7d c0             	fstpt  -0x40(%rbp)
    22b7:	48 8d 05 00 00 00 00 	lea    0x0(%rip),%rax        # 22be <main+0x847>
    22be:	48 89 c7             	mov    %rax,%rdi
    22c1:	e8 00 00 00 00       	call   22c6 <main+0x84f>
    22c6:	48 8d 45 d0          	lea    -0x30(%rbp),%rax
    22ca:	48 89 c6             	mov    %rax,%rsi
    22cd:	bf 02 00 00 00       	mov    $0x2,%edi
    22d2:	e8 00 00 00 00       	call   22d7 <main+0x860>
    22d7:	48 8b 95 60 ff ff ff 	mov    -0xa0(%rbp),%rdx
    22de:	48 8d 45 c0          	lea    -0x40(%rbp),%rax
    22e2:	48 8b b5 78 ff ff ff 	mov    -0x88(%rbp),%rsi
    22e9:	48 8b bd 70 ff ff ff 	mov    -0x90(%rbp),%rdi
    22f0:	48 89 d1             	mov    %rdx,%rcx
    22f3:	48 89 c2             	mov    %rax,%rdx
    22f6:	e8 00 00 00 00       	call   22fb <main+0x884>
    22fb:	48 8d 45 e0          	lea    -0x20(%rbp),%rax
    22ff:	48 89 c6             	mov    %rax,%rsi
    2302:	bf 02 00 00 00       	mov    $0x2,%edi
    2307:	e8 00 00 00 00       	call   230c <main+0x895>
    230c:	48 8b 45 e0          	mov    -0x20(%rbp),%rax
    2310:	48 8b 55 d0          	mov    -0x30(%rbp),%rdx
    2314:	48 29 d0             	sub    %rdx,%rax
    2317:	c4 e1 f3 2a c8       	vcvtsi2sd %rax,%xmm1,%xmm1
    231c:	48 8b 45 e8          	mov    -0x18(%rbp),%rax
    2320:	48 8b 55 d8          	mov    -0x28(%rbp),%rdx
    2324:	48 29 d0             	sub    %rdx,%rax
    2327:	c4 e1 fb 2a c0       	vcvtsi2sd %rax,%xmm0,%xmm0
    232c:	c5 fb 10 15 00 00 00 	vmovsd 0x0(%rip),%xmm2        # 2334 <main+0x8bd>
    2333:	00 
    2334:	c5 fb 5e c2          	vdivsd %xmm2,%xmm0,%xmm0
    2338:	c5 f3 58 c0          	vaddsd %xmm0,%xmm1,%xmm0
    233c:	c5 fb 11 45 90       	vmovsd %xmm0,-0x70(%rbp)
    2341:	48 8b 45 90          	mov    -0x70(%rbp),%rax
    2345:	c4 e1 f9 6e c0       	vmovq  %rax,%xmm0
    234a:	48 8d 05 00 00 00 00 	lea    0x0(%rip),%rax        # 2351 <main+0x8da>
    2351:	48 89 c7             	mov    %rax,%rdi
    2354:	b8 01 00 00 00       	mov    $0x1,%eax
    2359:	e8 00 00 00 00       	call   235e <main+0x8e7>
    235e:	db 6d c0             	fldt   -0x40(%rbp)
    2361:	48 8d 64 24 f0       	lea    -0x10(%rsp),%rsp
    2366:	db 3c 24             	fstpt  (%rsp)
    2369:	48 8d 05 00 00 00 00 	lea    0x0(%rip),%rax        # 2370 <main+0x8f9>
    2370:	48 89 c7             	mov    %rax,%rdi
    2373:	b8 00 00 00 00       	mov    $0x0,%eax
    2378:	e8 00 00 00 00       	call   237d <main+0x906>
    237d:	48 83 c4 10          	add    $0x10,%rsp
    2381:	48 8b 85 70 ff ff ff 	mov    -0x90(%rbp),%rax
    2388:	48 89 c7             	mov    %rax,%rdi
    238b:	e8 00 00 00 00       	call   2390 <main+0x919>
    2390:	48 c7 85 70 ff ff ff 	movq   $0x0,-0x90(%rbp)
    2397:	00 00 00 00 
    239b:	48 8b 85 78 ff ff ff 	mov    -0x88(%rbp),%rax
    23a2:	48 89 c7             	mov    %rax,%rdi
    23a5:	e8 00 00 00 00       	call   23aa <main+0x933>
    23aa:	48 c7 85 78 ff ff ff 	movq   $0x0,-0x88(%rbp)
    23b1:	00 00 00 00 
    23b5:	eb 2c                	jmp    23e3 <main+0x96c>
    23b7:	48 8b 05 00 00 00 00 	mov    0x0(%rip),%rax        # 23be <main+0x947>
    23be:	48 8b 95 68 ff ff ff 	mov    -0x98(%rbp),%rdx
    23c5:	48 8d 0d 00 00 00 00 	lea    0x0(%rip),%rcx        # 23cc <main+0x955>
    23cc:	48 89 ce             	mov    %rcx,%rsi
    23cf:	48 89 c7             	mov    %rax,%rdi
    23d2:	b8 00 00 00 00       	mov    $0x0,%eax
    23d7:	e8 00 00 00 00       	call   23dc <main+0x965>
    23dc:	b8 01 00 00 00       	mov    $0x1,%eax
    23e1:	eb 05                	jmp    23e8 <main+0x971>
    23e3:	b8 00 00 00 00       	mov    $0x0,%eax
    23e8:	48 8b 55 f8          	mov    -0x8(%rbp),%rdx
    23ec:	64 48 2b 14 25 28 00 	sub    %fs:0x28,%rdx
    23f3:	00 00 
    23f5:	74 05                	je     23fc <main+0x985>
    23f7:	e8 00 00 00 00       	call   23fc <main+0x985>
    23fc:	c9                   	leave  
    23fd:	c3                   	ret    

00000000000023fe <dotproduct_parallel_i8._omp_fn.0>:
    23fe:	f3 0f 1e fa          	endbr64 
    2402:	55                   	push   %rbp
    2403:	48 89 e5             	mov    %rsp,%rbp
    2406:	41 54                	push   %r12
    2408:	53                   	push   %rbx
    2409:	48 83 ec 40          	sub    $0x40,%rsp
    240d:	48 89 7d b8          	mov    %rdi,-0x48(%rbp)
    2411:	48 c7 45 c8 00 00 00 	movq   $0x0,-0x38(%rbp)
    2418:	00 
    2419:	48 8b 45 b8          	mov    -0x48(%rbp),%rax
    241d:	48 8b 40 10          	mov    0x10(%rax),%rax
    2421:	48 89 45 d8          	mov    %rax,-0x28(%rbp)
    2425:	48 8b 45 b8          	mov    -0x48(%rbp),%rax
    2429:	48 8b 40 08          	mov    0x8(%rax),%rax
    242d:	48 89 45 e0          	mov    %rax,-0x20(%rbp)
    2431:	48 8b 45 b8          	mov    -0x48(%rbp),%rax
    2435:	48 8b 00             	mov    (%rax),%rax
    2438:	48 89 45 e8          	mov    %rax,-0x18(%rbp)
    243c:	48 8b 5d d8          	mov    -0x28(%rbp),%rbx
    2440:	48 85 db             	test   %rbx,%rbx
    2443:	75 15                	jne    245a <dotproduct_parallel_i8._omp_fn.0+0x5c>
    2445:	48 8b 45 b8          	mov    -0x48(%rbp),%rax
    2449:	48 83 c0 18          	add    $0x18,%rax
    244d:	48 8b 55 c8          	mov    -0x38(%rbp),%rdx
    2451:	f0 48 01 10          	lock add %rdx,(%rax)
    2455:	e9 8c 00 00 00       	jmp    24e6 <dotproduct_parallel_i8._omp_fn.0+0xe8>
    245a:	e8 00 00 00 00       	call   245f <dotproduct_parallel_i8._omp_fn.0+0x61>
    245f:	4c 63 e0             	movslq %eax,%r12
    2462:	e8 00 00 00 00       	call   2467 <dotproduct_parallel_i8._omp_fn.0+0x69>
    2467:	48 63 f0             	movslq %eax,%rsi
    246a:	48 89 d8             	mov    %rbx,%rax
    246d:	ba 00 00 00 00       	mov    $0x0,%edx
    2472:	49 f7 f4             	div    %r12
    2475:	48 89 c1             	mov    %rax,%rcx
    2478:	48 89 d8             	mov    %rbx,%rax
    247b:	ba 00 00 00 00       	mov    $0x0,%edx
    2480:	49 f7 f4             	div    %r12
    2483:	48 89 d0             	mov    %rdx,%rax
    2486:	48 39 c6             	cmp    %rax,%rsi
    2489:	72 51                	jb     24dc <dotproduct_parallel_i8._omp_fn.0+0xde>
    248b:	48 0f af f1          	imul   %rcx,%rsi
    248f:	48 89 f2             	mov    %rsi,%rdx
    2492:	48 01 d0             	add    %rdx,%rax
    2495:	48 8d 14 08          	lea    (%rax,%rcx,1),%rdx
    2499:	48 39 d0             	cmp    %rdx,%rax
    249c:	73 a7                	jae    2445 <dotproduct_parallel_i8._omp_fn.0+0x47>
    249e:	48 89 45 d0          	mov    %rax,-0x30(%rbp)
    24a2:	48 8b 4d e8          	mov    -0x18(%rbp),%rcx
    24a6:	48 8b 45 d0          	mov    -0x30(%rbp),%rax
    24aa:	48 01 c8             	add    %rcx,%rax
    24ad:	0f b6 00             	movzbl (%rax),%eax
    24b0:	0f be c8             	movsbl %al,%ecx
    24b3:	48 8b 75 e0          	mov    -0x20(%rbp),%rsi
    24b7:	48 8b 45 d0          	mov    -0x30(%rbp),%rax
    24bb:	48 01 f0             	add    %rsi,%rax
    24be:	0f b6 00             	movzbl (%rax),%eax
    24c1:	0f be c0             	movsbl %al,%eax
    24c4:	0f af c1             	imul   %ecx,%eax
    24c7:	48 98                	cltq   
    24c9:	48 01 45 c8          	add    %rax,-0x38(%rbp)
    24cd:	48 ff 45 d0          	incq   -0x30(%rbp)
    24d1:	48 39 55 d0          	cmp    %rdx,-0x30(%rbp)
    24d5:	72 cb                	jb     24a2 <dotproduct_parallel_i8._omp_fn.0+0xa4>
    24d7:	e9 69 ff ff ff       	jmp    2445 <dotproduct_parallel_i8._omp_fn.0+0x47>
    24dc:	b8 00 00 00 00       	mov    $0x0,%eax
    24e1:	48 ff c1             	inc    %rcx
    24e4:	eb a5                	jmp    248b <dotproduct_parallel_i8._omp_fn.0+0x8d>
    24e6:	48 83 c4 40          	add    $0x40,%rsp
    24ea:	5b                   	pop    %rbx
    24eb:	41 5c                	pop    %r12
    24ed:	5d                   	pop    %rbp
    24ee:	c3                   	ret    

00000000000024ef <dotproduct_parallel_i16._omp_fn.0>:
    24ef:	f3 0f 1e fa          	endbr64 
    24f3:	55                   	push   %rbp
    24f4:	48 89 e5             	mov    %rsp,%rbp
    24f7:	41 54                	push   %r12
    24f9:	53                   	push   %rbx
    24fa:	48 83 ec 40          	sub    $0x40,%rsp
    24fe:	48 89 7d b8          	mov    %rdi,-0x48(%rbp)
    2502:	48 c7 45 c8 00 00 00 	movq   $0x0,-0x38(%rbp)
    2509:	00 
    250a:	48 8b 45 b8          	mov    -0x48(%rbp),%rax
    250e:	48 8b 40 10          	mov    0x10(%rax),%rax
    2512:	48 89 45 d8          	mov    %rax,-0x28(%rbp)
    2516:	48 8b 45 b8          	mov    -0x48(%rbp),%rax
    251a:	48 8b 40 08          	mov    0x8(%rax),%rax
    251e:	48 89 45 e0          	mov    %rax,-0x20(%rbp)
    2522:	48 8b 45 b8          	mov    -0x48(%rbp),%rax
    2526:	48 8b 00             	mov    (%rax),%rax
    2529:	48 89 45 e8          	mov    %rax,-0x18(%rbp)
    252d:	48 8b 5d d8          	mov    -0x28(%rbp),%rbx
    2531:	48 85 db             	test   %rbx,%rbx
    2534:	75 15                	jne    254b <dotproduct_parallel_i16._omp_fn.0+0x5c>
    2536:	48 8b 45 b8          	mov    -0x48(%rbp),%rax
    253a:	48 83 c0 18          	add    $0x18,%rax
    253e:	48 8b 55 c8          	mov    -0x38(%rbp),%rdx
    2542:	f0 48 01 10          	lock add %rdx,(%rax)
    2546:	e9 92 00 00 00       	jmp    25dd <dotproduct_parallel_i16._omp_fn.0+0xee>
    254b:	e8 00 00 00 00       	call   2550 <dotproduct_parallel_i16._omp_fn.0+0x61>
    2550:	4c 63 e0             	movslq %eax,%r12
    2553:	e8 00 00 00 00       	call   2558 <dotproduct_parallel_i16._omp_fn.0+0x69>
    2558:	48 63 f0             	movslq %eax,%rsi
    255b:	48 89 d8             	mov    %rbx,%rax
    255e:	ba 00 00 00 00       	mov    $0x0,%edx
    2563:	49 f7 f4             	div    %r12
    2566:	48 89 c1             	mov    %rax,%rcx
    2569:	48 89 d8             	mov    %rbx,%rax
    256c:	ba 00 00 00 00       	mov    $0x0,%edx
    2571:	49 f7 f4             	div    %r12
    2574:	48 89 d0             	mov    %rdx,%rax
    2577:	48 39 c6             	cmp    %rax,%rsi
    257a:	72 57                	jb     25d3 <dotproduct_parallel_i16._omp_fn.0+0xe4>
    257c:	48 0f af f1          	imul   %rcx,%rsi
    2580:	48 89 f2             	mov    %rsi,%rdx
    2583:	48 01 d0             	add    %rdx,%rax
    2586:	48 8d 14 08          	lea    (%rax,%rcx,1),%rdx
    258a:	48 39 d0             	cmp    %rdx,%rax
    258d:	73 a7                	jae    2536 <dotproduct_parallel_i16._omp_fn.0+0x47>
    258f:	48 89 45 d0          	mov    %rax,-0x30(%rbp)
    2593:	48 8b 45 d0          	mov    -0x30(%rbp),%rax
    2597:	48 8d 0c 00          	lea    (%rax,%rax,1),%rcx
    259b:	48 8b 45 e8          	mov    -0x18(%rbp),%rax
    259f:	48 01 c8             	add    %rcx,%rax
    25a2:	0f b7 00             	movzwl (%rax),%eax
    25a5:	0f bf c8             	movswl %ax,%ecx
    25a8:	48 8b 45 d0          	mov    -0x30(%rbp),%rax
    25ac:	48 8d 34 00          	lea    (%rax,%rax,1),%rsi
    25b0:	48 8b 45 e0          	mov    -0x20(%rbp),%rax
    25b4:	48 01 f0             	add    %rsi,%rax
    25b7:	0f b7 00             	movzwl (%rax),%eax
    25ba:	98                   	cwtl   
    25bb:	0f af c1             	imul   %ecx,%eax
    25be:	48 98                	cltq   
    25c0:	48 01 45 c8          	add    %rax,-0x38(%rbp)
    25c4:	48 ff 45 d0          	incq   -0x30(%rbp)
    25c8:	48 39 55 d0          	cmp    %rdx,-0x30(%rbp)
    25cc:	72 c5                	jb     2593 <dotproduct_parallel_i16._omp_fn.0+0xa4>
    25ce:	e9 63 ff ff ff       	jmp    2536 <dotproduct_parallel_i16._omp_fn.0+0x47>
    25d3:	b8 00 00 00 00       	mov    $0x0,%eax
    25d8:	48 ff c1             	inc    %rcx
    25db:	eb 9f                	jmp    257c <dotproduct_parallel_i16._omp_fn.0+0x8d>
    25dd:	48 83 c4 40          	add    $0x40,%rsp
    25e1:	5b                   	pop    %rbx
    25e2:	41 5c                	pop    %r12
    25e4:	5d                   	pop    %rbp
    25e5:	c3                   	ret    

00000000000025e6 <dotproduct_parallel_i32._omp_fn.0>:
    25e6:	f3 0f 1e fa          	endbr64 
    25ea:	55                   	push   %rbp
    25eb:	48 89 e5             	mov    %rsp,%rbp
    25ee:	41 54                	push   %r12
    25f0:	53                   	push   %rbx
    25f1:	48 83 ec 40          	sub    $0x40,%rsp
    25f5:	48 89 7d b8          	mov    %rdi,-0x48(%rbp)
    25f9:	48 c7 45 c8 00 00 00 	movq   $0x0,-0x38(%rbp)
    2600:	00 
    2601:	48 8b 45 b8          	mov    -0x48(%rbp),%rax
    2605:	48 8b 40 10          	mov    0x10(%rax),%rax
    2609:	48 89 45 d8          	mov    %rax,-0x28(%rbp)
    260d:	48 8b 45 b8          	mov    -0x48(%rbp),%rax
    2611:	48 8b 40 08          	mov    0x8(%rax),%rax
    2615:	48 89 45 e0          	mov    %rax,-0x20(%rbp)
    2619:	48 8b 45 b8          	mov    -0x48(%rbp),%rax
    261d:	48 8b 00             	mov    (%rax),%rax
    2620:	48 89 45 e8          	mov    %rax,-0x18(%rbp)
    2624:	48 8b 5d d8          	mov    -0x28(%rbp),%rbx
    2628:	48 85 db             	test   %rbx,%rbx
    262b:	75 15                	jne    2642 <dotproduct_parallel_i32._omp_fn.0+0x5c>
    262d:	48 8b 45 b8          	mov    -0x48(%rbp),%rax
    2631:	48 83 c0 18          	add    $0x18,%rax
    2635:	48 8b 55 c8          	mov    -0x38(%rbp),%rdx
    2639:	f0 48 01 10          	lock add %rdx,(%rax)
    263d:	e9 94 00 00 00       	jmp    26d6 <dotproduct_parallel_i32._omp_fn.0+0xf0>
    2642:	e8 00 00 00 00       	call   2647 <dotproduct_parallel_i32._omp_fn.0+0x61>
    2647:	4c 63 e0             	movslq %eax,%r12
    264a:	e8 00 00 00 00       	call   264f <dotproduct_parallel_i32._omp_fn.0+0x69>
    264f:	48 63 f0             	movslq %eax,%rsi
    2652:	48 89 d8             	mov    %rbx,%rax
    2655:	ba 00 00 00 00       	mov    $0x0,%edx
    265a:	49 f7 f4             	div    %r12
    265d:	48 89 c1             	mov    %rax,%rcx
    2660:	48 89 d8             	mov    %rbx,%rax
    2663:	ba 00 00 00 00       	mov    $0x0,%edx
    2668:	49 f7 f4             	div    %r12
    266b:	48 89 d0             	mov    %rdx,%rax
    266e:	48 39 c6             	cmp    %rax,%rsi
    2671:	72 59                	jb     26cc <dotproduct_parallel_i32._omp_fn.0+0xe6>
    2673:	48 0f af f1          	imul   %rcx,%rsi
    2677:	48 89 f2             	mov    %rsi,%rdx
    267a:	48 01 d0             	add    %rdx,%rax
    267d:	48 8d 14 08          	lea    (%rax,%rcx,1),%rdx
    2681:	48 39 d0             	cmp    %rdx,%rax
    2684:	73 a7                	jae    262d <dotproduct_parallel_i32._omp_fn.0+0x47>
    2686:	48 89 45 d0          	mov    %rax,-0x30(%rbp)
    268a:	48 8b 45 d0          	mov    -0x30(%rbp),%rax
    268e:	48 8d 0c 85 00 00 00 	lea    0x0(,%rax,4),%rcx
    2695:	00 
    2696:	48 8b 45 e8          	mov    -0x18(%rbp),%rax
    269a:	48 01 c8             	add    %rcx,%rax
    269d:	8b 08                	mov    (%rax),%ecx
    269f:	48 8b 45 d0          	mov    -0x30(%rbp),%rax
    26a3:	48 8d 34 85 00 00 00 	lea    0x0(,%rax,4),%rsi
    26aa:	00 
    26ab:	48 8b 45 e0          	mov    -0x20(%rbp),%rax
    26af:	48 01 f0             	add    %rsi,%rax
    26b2:	8b 00                	mov    (%rax),%eax
    26b4:	0f af c1             	imul   %ecx,%eax
    26b7:	48 98                	cltq   
    26b9:	48 01 45 c8          	add    %rax,-0x38(%rbp)
    26bd:	48 ff 45 d0          	incq   -0x30(%rbp)
    26c1:	48 39 55 d0          	cmp    %rdx,-0x30(%rbp)
    26c5:	72 c3                	jb     268a <dotproduct_parallel_i32._omp_fn.0+0xa4>
    26c7:	e9 61 ff ff ff       	jmp    262d <dotproduct_parallel_i32._omp_fn.0+0x47>
    26cc:	b8 00 00 00 00       	mov    $0x0,%eax
    26d1:	48 ff c1             	inc    %rcx
    26d4:	eb 9d                	jmp    2673 <dotproduct_parallel_i32._omp_fn.0+0x8d>
    26d6:	48 83 c4 40          	add    $0x40,%rsp
    26da:	5b                   	pop    %rbx
    26db:	41 5c                	pop    %r12
    26dd:	5d                   	pop    %rbp
    26de:	c3                   	ret    

00000000000026df <dotproduct_parallel_f32._omp_fn.0>:
    26df:	f3 0f 1e fa          	endbr64 
    26e3:	55                   	push   %rbp
    26e4:	48 89 e5             	mov    %rsp,%rbp
    26e7:	41 54                	push   %r12
    26e9:	53                   	push   %rbx
    26ea:	48 83 ec 40          	sub    $0x40,%rsp
    26ee:	48 89 7d b8          	mov    %rdi,-0x48(%rbp)
    26f2:	d9 ee                	fldz   
    26f4:	db 7d e0             	fstpt  -0x20(%rbp)
    26f7:	48 8b 45 b8          	mov    -0x48(%rbp),%rax
    26fb:	48 8b 40 20          	mov    0x20(%rax),%rax
    26ff:	48 89 45 c8          	mov    %rax,-0x38(%rbp)
    2703:	48 8b 45 b8          	mov    -0x48(%rbp),%rax
    2707:	48 8b 40 18          	mov    0x18(%rax),%rax
    270b:	48 89 45 d0          	mov    %rax,-0x30(%rbp)
    270f:	48 8b 45 b8          	mov    -0x48(%rbp),%rax
    2713:	48 8b 40 10          	mov    0x10(%rax),%rax
    2717:	48 89 45 d8          	mov    %rax,-0x28(%rbp)
    271b:	48 8b 5d c8          	mov    -0x38(%rbp),%rbx
    271f:	48 85 db             	test   %rbx,%rbx
    2722:	75 1c                	jne    2740 <dotproduct_parallel_f32._omp_fn.0+0x61>
    2724:	48 8b 5d b8          	mov    -0x48(%rbp),%rbx
    2728:	e8 00 00 00 00       	call   272d <dotproduct_parallel_f32._omp_fn.0+0x4e>
    272d:	db 2b                	fldt   (%rbx)
    272f:	db 6d e0             	fldt   -0x20(%rbp)
    2732:	de c1                	faddp  %st,%st(1)
    2734:	db 3b                	fstpt  (%rbx)
    2736:	e8 00 00 00 00       	call   273b <dotproduct_parallel_f32._omp_fn.0+0x5c>
    273b:	e9 a3 00 00 00       	jmp    27e3 <dotproduct_parallel_f32._omp_fn.0+0x104>
    2740:	e8 00 00 00 00       	call   2745 <dotproduct_parallel_f32._omp_fn.0+0x66>
    2745:	4c 63 e0             	movslq %eax,%r12
    2748:	e8 00 00 00 00       	call   274d <dotproduct_parallel_f32._omp_fn.0+0x6e>
    274d:	48 63 f0             	movslq %eax,%rsi
    2750:	48 89 d8             	mov    %rbx,%rax
    2753:	ba 00 00 00 00       	mov    $0x0,%edx
    2758:	49 f7 f4             	div    %r12
    275b:	48 89 c1             	mov    %rax,%rcx
    275e:	48 89 d8             	mov    %rbx,%rax
    2761:	ba 00 00 00 00       	mov    $0x0,%edx
    2766:	49 f7 f4             	div    %r12
    2769:	48 89 d0             	mov    %rdx,%rax
    276c:	48 39 c6             	cmp    %rax,%rsi
    276f:	72 68                	jb     27d9 <dotproduct_parallel_f32._omp_fn.0+0xfa>
    2771:	48 0f af f1          	imul   %rcx,%rsi
    2775:	48 89 f2             	mov    %rsi,%rdx
    2778:	48 01 d0             	add    %rdx,%rax
    277b:	48 8d 14 08          	lea    (%rax,%rcx,1),%rdx
    277f:	48 39 d0             	cmp    %rdx,%rax
    2782:	73 a0                	jae    2724 <dotproduct_parallel_f32._omp_fn.0+0x45>
    2784:	48 89 45 c0          	mov    %rax,-0x40(%rbp)
    2788:	48 8b 45 c0          	mov    -0x40(%rbp),%rax
    278c:	48 8d 0c 85 00 00 00 	lea    0x0(,%rax,4),%rcx
    2793:	00 
    2794:	48 8b 45 d8          	mov    -0x28(%rbp),%rax
    2798:	48 01 c8             	add    %rcx,%rax
    279b:	c5 fa 10 08          	vmovss (%rax),%xmm1
    279f:	48 8b 45 c0          	mov    -0x40(%rbp),%rax
    27a3:	48 8d 0c 85 00 00 00 	lea    0x0(,%rax,4),%rcx
    27aa:	00 
    27ab:	48 8b 45 d0          	mov    -0x30(%rbp),%rax
    27af:	48 01 c8             	add    %rcx,%rax
    27b2:	c5 fa 10 00          	vmovss (%rax),%xmm0
    27b6:	c5 f2 59 d0          	vmulss %xmm0,%xmm1,%xmm2
    27ba:	c5 fa 11 55 b4       	vmovss %xmm2,-0x4c(%rbp)
    27bf:	d9 45 b4             	flds   -0x4c(%rbp)
    27c2:	db 6d e0             	fldt   -0x20(%rbp)
    27c5:	de c1                	faddp  %st,%st(1)
    27c7:	db 7d e0             	fstpt  -0x20(%rbp)
    27ca:	48 ff 45 c0          	incq   -0x40(%rbp)
    27ce:	48 39 55 c0          	cmp    %rdx,-0x40(%rbp)
    27d2:	72 b4                	jb     2788 <dotproduct_parallel_f32._omp_fn.0+0xa9>
    27d4:	e9 4b ff ff ff       	jmp    2724 <dotproduct_parallel_f32._omp_fn.0+0x45>
    27d9:	b8 00 00 00 00       	mov    $0x0,%eax
    27de:	48 ff c1             	inc    %rcx
    27e1:	eb 8e                	jmp    2771 <dotproduct_parallel_f32._omp_fn.0+0x92>
    27e3:	48 83 c4 40          	add    $0x40,%rsp
    27e7:	5b                   	pop    %rbx
    27e8:	41 5c                	pop    %r12
    27ea:	5d                   	pop    %rbp
    27eb:	c3                   	ret    

00000000000027ec <dotproduct_parallel_f64._omp_fn.0>:
    27ec:	f3 0f 1e fa          	endbr64 
    27f0:	55                   	push   %rbp
    27f1:	48 89 e5             	mov    %rsp,%rbp
    27f4:	41 54                	push   %r12
    27f6:	53                   	push   %rbx
    27f7:	48 83 ec 40          	sub    $0x40,%rsp
    27fb:	48 89 7d b8          	mov    %rdi,-0x48(%rbp)
    27ff:	d9 ee                	fldz   
    2801:	db 7d e0             	fstpt  -0x20(%rbp)
    2804:	48 8b 45 b8          	mov    -0x48(%rbp),%rax
    2808:	48 8b 40 20          	mov    0x20(%rax),%rax
    280c:	48 89 45 c8          	mov    %rax,-0x38(%rbp)
    2810:	48 8b 45 b8          	mov    -0x48(%rbp),%rax
    2814:	48 8b 40 18          	mov    0x18(%rax),%rax
    2818:	48 89 45 d0          	mov    %rax,-0x30(%rbp)
    281c:	48 8b 45 b8          	mov    -0x48(%rbp),%rax
    2820:	48 8b 40 10          	mov    0x10(%rax),%rax
    2824:	48 89 45 d8          	mov    %rax,-0x28(%rbp)
    2828:	48 8b 5d c8          	mov    -0x38(%rbp),%rbx
    282c:	48 85 db             	test   %rbx,%rbx
    282f:	75 1c                	jne    284d <dotproduct_parallel_f64._omp_fn.0+0x61>
    2831:	48 8b 5d b8          	mov    -0x48(%rbp),%rbx
    2835:	e8 00 00 00 00       	call   283a <dotproduct_parallel_f64._omp_fn.0+0x4e>
    283a:	db 2b                	fldt   (%rbx)
    283c:	db 6d e0             	fldt   -0x20(%rbp)
    283f:	de c1                	faddp  %st,%st(1)
    2841:	db 3b                	fstpt  (%rbx)
    2843:	e8 00 00 00 00       	call   2848 <dotproduct_parallel_f64._omp_fn.0+0x5c>
    2848:	e9 a3 00 00 00       	jmp    28f0 <dotproduct_parallel_f64._omp_fn.0+0x104>
    284d:	e8 00 00 00 00       	call   2852 <dotproduct_parallel_f64._omp_fn.0+0x66>
    2852:	4c 63 e0             	movslq %eax,%r12
    2855:	e8 00 00 00 00       	call   285a <dotproduct_parallel_f64._omp_fn.0+0x6e>
    285a:	48 63 f0             	movslq %eax,%rsi
    285d:	48 89 d8             	mov    %rbx,%rax
    2860:	ba 00 00 00 00       	mov    $0x0,%edx
    2865:	49 f7 f4             	div    %r12
    2868:	48 89 c1             	mov    %rax,%rcx
    286b:	48 89 d8             	mov    %rbx,%rax
    286e:	ba 00 00 00 00       	mov    $0x0,%edx
    2873:	49 f7 f4             	div    %r12
    2876:	48 89 d0             	mov    %rdx,%rax
    2879:	48 39 c6             	cmp    %rax,%rsi
    287c:	72 68                	jb     28e6 <dotproduct_parallel_f64._omp_fn.0+0xfa>
    287e:	48 0f af f1          	imul   %rcx,%rsi
    2882:	48 89 f2             	mov    %rsi,%rdx
    2885:	48 01 d0             	add    %rdx,%rax
    2888:	48 8d 14 08          	lea    (%rax,%rcx,1),%rdx
    288c:	48 39 d0             	cmp    %rdx,%rax
    288f:	73 a0                	jae    2831 <dotproduct_parallel_f64._omp_fn.0+0x45>
    2891:	48 89 45 c0          	mov    %rax,-0x40(%rbp)
    2895:	48 8b 45 c0          	mov    -0x40(%rbp),%rax
    2899:	48 8d 0c c5 00 00 00 	lea    0x0(,%rax,8),%rcx
    28a0:	00 
    28a1:	48 8b 45 d8          	mov    -0x28(%rbp),%rax
    28a5:	48 01 c8             	add    %rcx,%rax
    28a8:	c5 fb 10 08          	vmovsd (%rax),%xmm1
    28ac:	48 8b 45 c0          	mov    -0x40(%rbp),%rax
    28b0:	48 8d 0c c5 00 00 00 	lea    0x0(,%rax,8),%rcx
    28b7:	00 
    28b8:	48 8b 45 d0          	mov    -0x30(%rbp),%rax
    28bc:	48 01 c8             	add    %rcx,%rax
    28bf:	c5 fb 10 00          	vmovsd (%rax),%xmm0
    28c3:	c5 f3 59 d0          	vmulsd %xmm0,%xmm1,%xmm2
    28c7:	c5 fb 11 55 b0       	vmovsd %xmm2,-0x50(%rbp)
    28cc:	dd 45 b0             	fldl   -0x50(%rbp)
    28cf:	db 6d e0             	fldt   -0x20(%rbp)
    28d2:	de c1                	faddp  %st,%st(1)
    28d4:	db 7d e0             	fstpt  -0x20(%rbp)
    28d7:	48 ff 45 c0          	incq   -0x40(%rbp)
    28db:	48 39 55 c0          	cmp    %rdx,-0x40(%rbp)
    28df:	72 b4                	jb     2895 <dotproduct_parallel_f64._omp_fn.0+0xa9>
    28e1:	e9 4b ff ff ff       	jmp    2831 <dotproduct_parallel_f64._omp_fn.0+0x45>
    28e6:	b8 00 00 00 00       	mov    $0x0,%eax
    28eb:	48 ff c1             	inc    %rcx
    28ee:	eb 8e                	jmp    287e <dotproduct_parallel_f64._omp_fn.0+0x92>
    28f0:	48 83 c4 40          	add    $0x40,%rsp
    28f4:	5b                   	pop    %rbx
    28f5:	41 5c                	pop    %r12
    28f7:	5d                   	pop    %rbp
    28f8:	c3                   	ret    
