
p3.o:     file format elf64-x86-64

Contents of section .text:
 0000 f30f1efa 554889e5 4883ec10 48897df8  ....UH..H...H.}.
 0010 488d0500 00000048 89c6488d 05000000  H......H..H.....
 0020 004889c7 e8000000 004889c2 488b45f8  .H.......H..H.E.
 0030 8b0089c6 4889d7e8 00000000 488b1500  ....H.......H...
 0040 00000048 89d64889 c7e80000 0000488d  ...H..H.......H.
 0050 05000000 004889c6 488d0500 00000048  .....H..H......H
 0060 89c7e800 00000048 89c2488b 45f84883  .......H..H.E.H.
 0070 c0044889 c64889d7 e8000000 00488b15  ..H..H.......H..
 0080 00000000 4889d648 89c7e800 00000090  ....H..H........
 0090 c9c3f30f 1efa5548 89e54883 ec104889  ......UH..H...H.
 00a0 7df8488d 05000000 004889c6 488d0500  }.H......H..H...
 00b0 00000048 89c7e800 00000048 89c2488b  ...H.......H..H.
 00c0 45f88b00 89c64889 d7e80000 0000488b  E.....H.......H.
 00d0 15000000 004889d6 4889c7e8 00000000  .....H..H.......
 00e0 488d0500 00000048 89c6488d 05000000  H......H..H.....
 00f0 004889c7 e8000000 004889c2 488b45f8  .H.......H..H.E.
 0100 4883c004 4889c648 89d7e800 00000048  H...H..H.......H
 0110 8b150000 00004889 d64889c7 e8000000  ......H..H......
 0120 0090c9c3 f30f1efa 554889e5 4881ec10  ........UH..H...
 0130 04000064 488b0425 28000000 488945f8  ...dH..%(...H.E.
 0140 31c0488d 85f0fbff ff488d15 00000000  1.H......H......
 0150 b9800000 004889c7 4889d6f3 48a54889  .....H..H...H.H.
 0160 f24889f8 8b0a8908 488d85f0 fbffff48  .H......H......H
 0170 89c7e800 00000048 8d85f0fb ffff4889  .......H......H.
 0180 c7e80000 0000b800 00000048 8b55f864  ...........H.U.d
 0190 482b1425 28000000 7405e800 000000c9  H+.%(...t.......
 01a0 c3f30f1e fa554889 e54883ec 10897dfc  .....UH..H....}.
 01b0 8975f883 7dfc0175 3b817df8 ffff0000  .u..}..u;.}.....
 01c0 7532488d 05000000 004889c7 e8000000  u2H......H......
 01d0 00488d05 00000000 4889c248 8d050000  .H......H..H....
 01e0 00004889 c6488b05 00000000 4889c7e8  ..H..H......H...
 01f0 00000000 90c9c3f3 0f1efa55 4889e5be  ...........UH...
 0200 ffff0000 bf010000 00e893ff ffff5dc3  ..............].
Contents of section .rodata:
 0000 49443a20 00446573 63726970 74696f6e  ID: .Description
 0010 3a200000 00000000 00000000 00000000  : ..............
 0020 03000000 4e415a48 41000000 00000000  ....NAZHA.......
 0030 00000000 00000000 00000000 00000000  ................
 0040 00000000 00000000 00000000 00000000  ................
 0050 00000000 00000000 00000000 00000000  ................
 0060 00000000 00000000 00000000 00000000  ................
 0070 00000000 00000000 00000000 00000000  ................
 0080 00000000 00000000 00000000 00000000  ................
 0090 00000000 00000000 00000000 00000000  ................
 00a0 00000000 00000000 00000000 00000000  ................
 00b0 00000000 00000000 00000000 00000000  ................
 00c0 00000000 00000000 00000000 00000000  ................
 00d0 00000000 00000000 00000000 00000000  ................
 00e0 00000000 00000000 00000000 00000000  ................
 00f0 00000000 00000000 00000000 00000000  ................
 0100 00000000 00000000 00000000 00000000  ................
 0110 00000000 00000000 00000000 00000000  ................
 0120 00000000 00000000 00000000 00000000  ................
 0130 00000000 00000000 00000000 00000000  ................
 0140 00000000 00000000 00000000 00000000  ................
 0150 00000000 00000000 00000000 00000000  ................
 0160 00000000 00000000 00000000 00000000  ................
 0170 00000000 00000000 00000000 00000000  ................
 0180 00000000 00000000 00000000 00000000  ................
 0190 00000000 00000000 00000000 00000000  ................
 01a0 00000000 00000000 00000000 00000000  ................
 01b0 00000000 00000000 00000000 00000000  ................
 01c0 00000000 00000000 00000000 00000000  ................
 01d0 00000000 00000000 00000000 00000000  ................
 01e0 00000000 00000000 00000000 00000000  ................
 01f0 00000000 00000000 00000000 00000000  ................
 0200 00000000 00000000 00000000 00000000  ................
 0210 00000000 00000000 00000000 00000000  ................
 0220 00000000 00000000 00000000 00000000  ................
 0230 00000000 00000000 00000000 00000000  ................
 0240 00000000 00000000 00000000 00000000  ................
 0250 00000000 00000000 00000000 00000000  ................
 0260 00000000 00000000 00000000 00000000  ................
 0270 00000000 00000000 00000000 00000000  ................
 0280 00000000 00000000 00000000 00000000  ................
 0290 00000000 00000000 00000000 00000000  ................
 02a0 00000000 00000000 00000000 00000000  ................
 02b0 00000000 00000000 00000000 00000000  ................
 02c0 00000000 00000000 00000000 00000000  ................
 02d0 00000000 00000000 00000000 00000000  ................
 02e0 00000000 00000000 00000000 00000000  ................
 02f0 00000000 00000000 00000000 00000000  ................
 0300 00000000 00000000 00000000 00000000  ................
 0310 00000000 00000000 00000000 00000000  ................
 0320 00000000 00000000 00000000 00000000  ................
 0330 00000000 00000000 00000000 00000000  ................
 0340 00000000 00000000 00000000 00000000  ................
 0350 00000000 00000000 00000000 00000000  ................
 0360 00000000 00000000 00000000 00000000  ................
 0370 00000000 00000000 00000000 00000000  ................
 0380 00000000 00000000 00000000 00000000  ................
 0390 00000000 00000000 00000000 00000000  ................
 03a0 00000000 00000000 00000000 00000000  ................
 03b0 00000000 00000000 00000000 00000000  ................
 03c0 00000000 00000000 00000000 00000000  ................
 03d0 00000000 00000000 00000000 00000000  ................
 03e0 00000000 00000000 00000000 00000000  ................
 03f0 00000000 00000000 00000000 00000000  ................
 0400 00000000 00000000 00000000 00000000  ................
 0410 00000000 00000000 00000000 00000000  ................
 0420 00000000                             ....            
Contents of section .init_array:
 0000 00000000 00000000                    ........        
Contents of section .comment:
 0000 00474343 3a202855 62756e74 75203131  .GCC: (Ubuntu 11
 0010 2e342e30 2d317562 756e7475 317e3232  .4.0-1ubuntu1~22
 0020 2e303429 2031312e 342e3000           .04) 11.4.0.    
Contents of section .note.gnu.property:
 0000 04000000 10000000 05000000 474e5500  ............GNU.
 0010 020000c0 04000000 03000000 00000000  ................
Contents of section .eh_frame:
 0000 14000000 00000000 017a5200 01781001  .........zR..x..
 0010 1b0c0708 90010000 1c000000 1c000000  ................
 0020 00000000 92000000 00450e10 8602430d  .........E....C.
 0030 0602890c 07080000 1c000000 3c000000  ............<...
 0040 00000000 92000000 00450e10 8602430d  .........E....C.
 0050 0602890c 07080000 1c000000 5c000000  ............\...
 0060 00000000 7d000000 00450e10 8602430d  ....}....E....C.
 0070 0602740c 07080000 1c000000 7c000000  ..t.........|...
 0080 00000000 56000000 00450e10 8602430d  ....V....E....C.
 0090 06024d0c 07080000 1c000000 9c000000  ..M.............
 00a0 00000000 19000000 00450e10 8602430d  .........E....C.
 00b0 06500c07 08000000                    .P......        

Disassembly of section .text:

0000000000000000 <_Z8disp_stuP7Student>:
   0:	f3 0f 1e fa          	endbr64 
   4:	55                   	push   %rbp
   5:	48 89 e5             	mov    %rsp,%rbp
   8:	48 83 ec 10          	sub    $0x10,%rsp
   c:	48 89 7d f8          	mov    %rdi,-0x8(%rbp)
  10:	48 8d 05 00 00 00 00 	lea    0x0(%rip),%rax        # 17 <_Z8disp_stuP7Student+0x17>
  17:	48 89 c6             	mov    %rax,%rsi
  1a:	48 8d 05 00 00 00 00 	lea    0x0(%rip),%rax        # 21 <_Z8disp_stuP7Student+0x21>
  21:	48 89 c7             	mov    %rax,%rdi
  24:	e8 00 00 00 00       	call   29 <_Z8disp_stuP7Student+0x29>
  29:	48 89 c2             	mov    %rax,%rdx
  2c:	48 8b 45 f8          	mov    -0x8(%rbp),%rax
  30:	8b 00                	mov    (%rax),%eax
  32:	89 c6                	mov    %eax,%esi
  34:	48 89 d7             	mov    %rdx,%rdi
  37:	e8 00 00 00 00       	call   3c <_Z8disp_stuP7Student+0x3c>
  3c:	48 8b 15 00 00 00 00 	mov    0x0(%rip),%rdx        # 43 <_Z8disp_stuP7Student+0x43>
  43:	48 89 d6             	mov    %rdx,%rsi
  46:	48 89 c7             	mov    %rax,%rdi
  49:	e8 00 00 00 00       	call   4e <_Z8disp_stuP7Student+0x4e>
  4e:	48 8d 05 00 00 00 00 	lea    0x0(%rip),%rax        # 55 <_Z8disp_stuP7Student+0x55>
  55:	48 89 c6             	mov    %rax,%rsi
  58:	48 8d 05 00 00 00 00 	lea    0x0(%rip),%rax        # 5f <_Z8disp_stuP7Student+0x5f>
  5f:	48 89 c7             	mov    %rax,%rdi
  62:	e8 00 00 00 00       	call   67 <_Z8disp_stuP7Student+0x67>
  67:	48 89 c2             	mov    %rax,%rdx
  6a:	48 8b 45 f8          	mov    -0x8(%rbp),%rax
  6e:	48 83 c0 04          	add    $0x4,%rax
  72:	48 89 c6             	mov    %rax,%rsi
  75:	48 89 d7             	mov    %rdx,%rdi
  78:	e8 00 00 00 00       	call   7d <_Z8disp_stuP7Student+0x7d>
  7d:	48 8b 15 00 00 00 00 	mov    0x0(%rip),%rdx        # 84 <_Z8disp_stuP7Student+0x84>
  84:	48 89 d6             	mov    %rdx,%rsi
  87:	48 89 c7             	mov    %rax,%rdi
  8a:	e8 00 00 00 00       	call   8f <_Z8disp_stuP7Student+0x8f>
  8f:	90                   	nop
  90:	c9                   	leave  
  91:	c3                   	ret    

0000000000000092 <_Z8disp_stuR7Student>:
  92:	f3 0f 1e fa          	endbr64 
  96:	55                   	push   %rbp
  97:	48 89 e5             	mov    %rsp,%rbp
  9a:	48 83 ec 10          	sub    $0x10,%rsp
  9e:	48 89 7d f8          	mov    %rdi,-0x8(%rbp)
  a2:	48 8d 05 00 00 00 00 	lea    0x0(%rip),%rax        # a9 <_Z8disp_stuR7Student+0x17>
  a9:	48 89 c6             	mov    %rax,%rsi
  ac:	48 8d 05 00 00 00 00 	lea    0x0(%rip),%rax        # b3 <_Z8disp_stuR7Student+0x21>
  b3:	48 89 c7             	mov    %rax,%rdi
  b6:	e8 00 00 00 00       	call   bb <_Z8disp_stuR7Student+0x29>
  bb:	48 89 c2             	mov    %rax,%rdx
  be:	48 8b 45 f8          	mov    -0x8(%rbp),%rax
  c2:	8b 00                	mov    (%rax),%eax
  c4:	89 c6                	mov    %eax,%esi
  c6:	48 89 d7             	mov    %rdx,%rdi
  c9:	e8 00 00 00 00       	call   ce <_Z8disp_stuR7Student+0x3c>
  ce:	48 8b 15 00 00 00 00 	mov    0x0(%rip),%rdx        # d5 <_Z8disp_stuR7Student+0x43>
  d5:	48 89 d6             	mov    %rdx,%rsi
  d8:	48 89 c7             	mov    %rax,%rdi
  db:	e8 00 00 00 00       	call   e0 <_Z8disp_stuR7Student+0x4e>
  e0:	48 8d 05 00 00 00 00 	lea    0x0(%rip),%rax        # e7 <_Z8disp_stuR7Student+0x55>
  e7:	48 89 c6             	mov    %rax,%rsi
  ea:	48 8d 05 00 00 00 00 	lea    0x0(%rip),%rax        # f1 <_Z8disp_stuR7Student+0x5f>
  f1:	48 89 c7             	mov    %rax,%rdi
  f4:	e8 00 00 00 00       	call   f9 <_Z8disp_stuR7Student+0x67>
  f9:	48 89 c2             	mov    %rax,%rdx
  fc:	48 8b 45 f8          	mov    -0x8(%rbp),%rax
 100:	48 83 c0 04          	add    $0x4,%rax
 104:	48 89 c6             	mov    %rax,%rsi
 107:	48 89 d7             	mov    %rdx,%rdi
 10a:	e8 00 00 00 00       	call   10f <_Z8disp_stuR7Student+0x7d>
 10f:	48 8b 15 00 00 00 00 	mov    0x0(%rip),%rdx        # 116 <_Z8disp_stuR7Student+0x84>
 116:	48 89 d6             	mov    %rdx,%rsi
 119:	48 89 c7             	mov    %rax,%rdi
 11c:	e8 00 00 00 00       	call   121 <_Z8disp_stuR7Student+0x8f>
 121:	90                   	nop
 122:	c9                   	leave  
 123:	c3                   	ret    

0000000000000124 <main>:
 124:	f3 0f 1e fa          	endbr64 
 128:	55                   	push   %rbp
 129:	48 89 e5             	mov    %rsp,%rbp
 12c:	48 81 ec 10 04 00 00 	sub    $0x410,%rsp
 133:	64 48 8b 04 25 28 00 	mov    %fs:0x28,%rax
 13a:	00 00 
 13c:	48 89 45 f8          	mov    %rax,-0x8(%rbp)
 140:	31 c0                	xor    %eax,%eax
 142:	48 8d 85 f0 fb ff ff 	lea    -0x410(%rbp),%rax
 149:	48 8d 15 00 00 00 00 	lea    0x0(%rip),%rdx        # 150 <main+0x2c>
 150:	b9 80 00 00 00       	mov    $0x80,%ecx
 155:	48 89 c7             	mov    %rax,%rdi
 158:	48 89 d6             	mov    %rdx,%rsi
 15b:	f3 48 a5             	rep movsq %ds:(%rsi),%es:(%rdi)
 15e:	48 89 f2             	mov    %rsi,%rdx
 161:	48 89 f8             	mov    %rdi,%rax
 164:	8b 0a                	mov    (%rdx),%ecx
 166:	89 08                	mov    %ecx,(%rax)
 168:	48 8d 85 f0 fb ff ff 	lea    -0x410(%rbp),%rax
 16f:	48 89 c7             	mov    %rax,%rdi
 172:	e8 00 00 00 00       	call   177 <main+0x53>
 177:	48 8d 85 f0 fb ff ff 	lea    -0x410(%rbp),%rax
 17e:	48 89 c7             	mov    %rax,%rdi
 181:	e8 00 00 00 00       	call   186 <main+0x62>
 186:	b8 00 00 00 00       	mov    $0x0,%eax
 18b:	48 8b 55 f8          	mov    -0x8(%rbp),%rdx
 18f:	64 48 2b 14 25 28 00 	sub    %fs:0x28,%rdx
 196:	00 00 
 198:	74 05                	je     19f <main+0x7b>
 19a:	e8 00 00 00 00       	call   19f <main+0x7b>
 19f:	c9                   	leave  
 1a0:	c3                   	ret    

00000000000001a1 <_Z41__static_initialization_and_destruction_0ii>:
 1a1:	f3 0f 1e fa          	endbr64 
 1a5:	55                   	push   %rbp
 1a6:	48 89 e5             	mov    %rsp,%rbp
 1a9:	48 83 ec 10          	sub    $0x10,%rsp
 1ad:	89 7d fc             	mov    %edi,-0x4(%rbp)
 1b0:	89 75 f8             	mov    %esi,-0x8(%rbp)
 1b3:	83 7d fc 01          	cmpl   $0x1,-0x4(%rbp)
 1b7:	75 3b                	jne    1f4 <_Z41__static_initialization_and_destruction_0ii+0x53>
 1b9:	81 7d f8 ff ff 00 00 	cmpl   $0xffff,-0x8(%rbp)
 1c0:	75 32                	jne    1f4 <_Z41__static_initialization_and_destruction_0ii+0x53>
 1c2:	48 8d 05 00 00 00 00 	lea    0x0(%rip),%rax        # 1c9 <_Z41__static_initialization_and_destruction_0ii+0x28>
 1c9:	48 89 c7             	mov    %rax,%rdi
 1cc:	e8 00 00 00 00       	call   1d1 <_Z41__static_initialization_and_destruction_0ii+0x30>
 1d1:	48 8d 05 00 00 00 00 	lea    0x0(%rip),%rax        # 1d8 <_Z41__static_initialization_and_destruction_0ii+0x37>
 1d8:	48 89 c2             	mov    %rax,%rdx
 1db:	48 8d 05 00 00 00 00 	lea    0x0(%rip),%rax        # 1e2 <_Z41__static_initialization_and_destruction_0ii+0x41>
 1e2:	48 89 c6             	mov    %rax,%rsi
 1e5:	48 8b 05 00 00 00 00 	mov    0x0(%rip),%rax        # 1ec <_Z41__static_initialization_and_destruction_0ii+0x4b>
 1ec:	48 89 c7             	mov    %rax,%rdi
 1ef:	e8 00 00 00 00       	call   1f4 <_Z41__static_initialization_and_destruction_0ii+0x53>
 1f4:	90                   	nop
 1f5:	c9                   	leave  
 1f6:	c3                   	ret    

00000000000001f7 <_GLOBAL__sub_I__Z8disp_stuP7Student>:
 1f7:	f3 0f 1e fa          	endbr64 
 1fb:	55                   	push   %rbp
 1fc:	48 89 e5             	mov    %rsp,%rbp
 1ff:	be ff ff 00 00       	mov    $0xffff,%esi
 204:	bf 01 00 00 00       	mov    $0x1,%edi
 209:	e8 93 ff ff ff       	call   1a1 <_Z41__static_initialization_and_destruction_0ii>
 20e:	5d                   	pop    %rbp
 20f:	c3                   	ret    
